Archive member included to satisfy reference by file (symbol)

c:/program files/microchip/xc32/v4.35/bin/bin/../../lib/gcc/pic32c/8.3.1/arm/v5te/nofp\libgcc.a(_udivsi3.o)
                              build/lcdc_rgba888_mxt_9x60_wvga/debug/_ext/1121151461/gfx_canvas.o (__aeabi_uidiv)
c:/program files/microchip/xc32/v4.35/bin/bin/../../lib/gcc/pic32c/8.3.1/arm/v5te/nofp\libgcc.a(_divsi3.o)
                              build/lcdc_rgba888_mxt_9x60_wvga/debug/_ext/305146849/legato_math.o (__aeabi_idiv)
c:/program files/microchip/xc32/v4.35/bin/bin/../../lib/gcc/pic32c/8.3.1/arm/v5te/nofp\libgcc.a(_dvmd_tls.o)
                              c:/program files/microchip/xc32/v4.35/bin/bin/../../lib/gcc/pic32c/8.3.1/arm/v5te/nofp\libgcc.a(_udivsi3.o) (__aeabi_idiv0)
c:/program files/microchip/xc32/v4.35/bin/bin/../../lib/gcc/pic32c/8.3.1/arm/v5te/nofp\libgcc.a(_arm_addsubdf3.o)
                              build/lcdc_rgba888_mxt_9x60_wvga/debug/_ext/1360937237/app.o (__aeabi_i2d)
c:/program files/microchip/xc32/v4.35/bin/bin/../../lib/gcc/pic32c/8.3.1/arm/v5te/nofp\libgcc.a(_arm_muldivdf3.o)
                              build/lcdc_rgba888_mxt_9x60_wvga/debug/_ext/1360937237/app.o (__aeabi_dmul)
c:/program files/microchip/xc32/v4.35/bin/bin/../../lib/gcc/pic32c/8.3.1/arm/v5te/nofp\libgcc.a(_arm_fixunsdfsi.o)
                              build/lcdc_rgba888_mxt_9x60_wvga/debug/_ext/1360937237/app.o (__aeabi_d2uiz)
c:/program files/microchip/xc32/v4.35/bin/bin/../../lib/gcc/pic32c/8.3.1/arm/v5te/nofp\libgcc.a(_arm_addsubsf3.o)
                              build/lcdc_rgba888_mxt_9x60_wvga/debug/_ext/305146849/legato_math.o (__aeabi_fsub)
c:/program files/microchip/xc32/v4.35/bin/bin/../../lib/gcc/pic32c/8.3.1/arm/v5te/nofp\libgcc.a(_arm_muldivsf3.o)
                              build/lcdc_rgba888_mxt_9x60_wvga/debug/_ext/1165331637/gfx_driver.o (__aeabi_fmul)
c:/program files/microchip/xc32/v4.35/bin/bin/../../lib/gcc/pic32c/8.3.1/arm/v5te/nofp\libgcc.a(_arm_cmpsf2.o)
                              build/lcdc_rgba888_mxt_9x60_wvga/debug/_ext/305146849/legato_math.o (__aeabi_fcmplt)
c:/program files/microchip/xc32/v4.35/bin/bin/../../lib/gcc/pic32c/8.3.1/arm/v5te/nofp\libgcc.a(_arm_fixsfsi.o)
                              build/lcdc_rgba888_mxt_9x60_wvga/debug/_ext/1165331637/gfx_driver.o (__aeabi_f2iz)
c:/program files/microchip/xc32/v4.35/bin/bin/../../lib/gcc/pic32c/8.3.1/arm/v5te/nofp\libgcc.a(_arm_fixunssfsi.o)
                              build/lcdc_rgba888_mxt_9x60_wvga/debug/_ext/1165331637/gfx_driver.o (__aeabi_f2uiz)
c:/program files/microchip/xc32/v4.35/bin/bin/../../lib/gcc/pic32c/8.3.1/arm/v5te/nofp\libgcc.a(_aeabi_uldivmod.o)
                              build/lcdc_rgba888_mxt_9x60_wvga/debug/_ext/1812361045/sys_time.o (__aeabi_uldivmod)
c:/program files/microchip/xc32/v4.35/bin/bin/../../lib/gcc/pic32c/8.3.1/arm/v5te/nofp\libgcc.a(_udivmoddi4.o)
                              c:/program files/microchip/xc32/v4.35/bin/bin/../../lib/gcc/pic32c/8.3.1/arm/v5te/nofp\libgcc.a(_aeabi_uldivmod.o) (__udivmoddi4)
c:/program files/microchip/xc32/v4.35/bin/bin/../../lib/gcc/pic32c/8.3.1/../../../../pic32c/lib/arm/v5te/nofp\libm-musl.a(atan.o)
                              build/lcdc_rgba888_mxt_9x60_wvga/debug/_ext/305146849/legato_math.o (atan)
c:/program files/microchip/xc32/v4.35/bin/bin/../../lib/gcc/pic32c/8.3.1/../../../../pic32c/lib/arm/v5te/nofp\libm-musl.a(fabs.o)
                              c:/program files/microchip/xc32/v4.35/bin/bin/../../lib/gcc/pic32c/8.3.1/../../../../pic32c/lib/arm/v5te/nofp\libm-musl.a(atan.o) (fabs)
c:/program files/microchip/xc32/v4.35/bin/bin/../../lib/gcc/pic32c/8.3.1/../../../../pic32c/lib/arm/v5te/nofp\libg-musl.a(__libc_start_main.o)
                              build/lcdc_rgba888_mxt_9x60_wvga/debug/_ext/2052985144/cstartup.o (__libc_init_array)
c:/program files/microchip/xc32/v4.35/bin/bin/../../lib/gcc/pic32c/8.3.1/../../../../pic32c/lib/arm/v5te/nofp\libg-musl.a(libc.o)
                              c:/program files/microchip/xc32/v4.35/bin/bin/../../lib/gcc/pic32c/8.3.1/../../../../pic32c/lib/arm/v5te/nofp\libg-musl.a(__libc_start_main.o) (__progname_full)
c:/program files/microchip/xc32/v4.35/bin/bin/../../lib/gcc/pic32c/8.3.1/../../../../pic32c/lib/arm/v5te/nofp\libg-musl.a(malloc.o)
                              build/lcdc_rgba888_mxt_9x60_wvga/debug/_ext/1121151461/gfx_canvas.o (malloc)
c:/program files/microchip/xc32/v4.35/bin/bin/../../lib/gcc/pic32c/8.3.1/../../../../pic32c/lib/arm/v5te/nofp\libg-musl.a(expand_heap.o)
                              c:/program files/microchip/xc32/v4.35/bin/bin/../../lib/gcc/pic32c/8.3.1/../../../../pic32c/lib/arm/v5te/nofp\libg-musl.a(malloc.o) (__expand_heap)
c:/program files/microchip/xc32/v4.35/bin/bin/../../lib/gcc/pic32c/8.3.1/../../../../pic32c/lib/arm/v5te/nofp\libg-musl.a(__sio_printf_dnpuxX.o)
                              (_printf_dnpuxX)
c:/program files/microchip/xc32/v4.35/bin/bin/../../lib/gcc/pic32c/8.3.1/../../../../pic32c/lib/arm/v5te/nofp\libg-musl.a(__sio_sprintf_dnpuxX.o)
                              (_sprintf_dnpuxX)
c:/program files/microchip/xc32/v4.35/bin/bin/../../lib/gcc/pic32c/8.3.1/../../../../pic32c/lib/arm/v5te/nofp\libg-musl.a(__fmt_d.o)
                              c:/program files/microchip/xc32/v4.35/bin/bin/../../lib/gcc/pic32c/8.3.1/../../../../pic32c/lib/arm/v5te/nofp\libg-musl.a(__sio_printf_dnpuxX.o) (__fmt_d_needed)
c:/program files/microchip/xc32/v4.35/bin/bin/../../lib/gcc/pic32c/8.3.1/../../../../pic32c/lib/arm/v5te/nofp\libg-musl.a(__fmt_u.o)
                              c:/program files/microchip/xc32/v4.35/bin/bin/../../lib/gcc/pic32c/8.3.1/../../../../pic32c/lib/arm/v5te/nofp\libg-musl.a(__sio_printf_dnpuxX.o) (__fmt_u_needed)
c:/program files/microchip/xc32/v4.35/bin/bin/../../lib/gcc/pic32c/8.3.1/../../../../pic32c/lib/arm/v5te/nofp\libg-musl.a(__fmt_x.o)
                              c:/program files/microchip/xc32/v4.35/bin/bin/../../lib/gcc/pic32c/8.3.1/../../../../pic32c/lib/arm/v5te/nofp\libg-musl.a(__sio_printf_dnpuxX.o) (__fmt_x_needed)
c:/program files/microchip/xc32/v4.35/bin/bin/../../lib/gcc/pic32c/8.3.1/../../../../pic32c/lib/arm/v5te/nofp\libg-musl.a(__pop_int.o)
                              c:/program files/microchip/xc32/v4.35/bin/bin/../../lib/gcc/pic32c/8.3.1/../../../../pic32c/lib/arm/v5te/nofp\libg-musl.a(__sio_printf_dnpuxX.o) (__pop_int_needed)
c:/program files/microchip/xc32/v4.35/bin/bin/../../lib/gcc/pic32c/8.3.1/../../../../pic32c/lib/arm/v5te/nofp\libg-musl.a(__pop_ptr.o)
                              c:/program files/microchip/xc32/v4.35/bin/bin/../../lib/gcc/pic32c/8.3.1/../../../../pic32c/lib/arm/v5te/nofp\libg-musl.a(__sio_printf_dnpuxX.o) (__pop_ptr_needed)
c:/program files/microchip/xc32/v4.35/bin/bin/../../lib/gcc/pic32c/8.3.1/../../../../pic32c/lib/arm/v5te/nofp\libg-musl.a(__printf_core.o)
                              c:/program files/microchip/xc32/v4.35/bin/bin/../../lib/gcc/pic32c/8.3.1/../../../../pic32c/lib/arm/v5te/nofp\libg-musl.a(__fmt_d.o) (__pad)
c:/program files/microchip/xc32/v4.35/bin/bin/../../lib/gcc/pic32c/8.3.1/../../../../pic32c/lib/arm/v5te/nofp\libg-musl.a(stdout.o)
                              c:/program files/microchip/xc32/v4.35/bin/bin/../../lib/gcc/pic32c/8.3.1/../../../../pic32c/lib/arm/v5te/nofp\libg-musl.a(__sio_printf_dnpuxX.o) (_stdout)
c:/program files/microchip/xc32/v4.35/bin/bin/../../lib/gcc/pic32c/8.3.1/../../../../pic32c/lib/arm/v5te/nofp\libg-musl.a(putchar.o)
                              build/lcdc_rgba888_mxt_9x60_wvga/debug/_ext/28088523/legato_variableheap.o (putchar)
c:/program files/microchip/xc32/v4.35/bin/bin/../../lib/gcc/pic32c/8.3.1/../../../../pic32c/lib/arm/v5te/nofp\libg-musl.a(puts.o)
                              build/lcdc_rgba888_mxt_9x60_wvga/debug/_ext/28088523/legato_memory.o (puts)
c:/program files/microchip/xc32/v4.35/bin/bin/../../lib/gcc/pic32c/8.3.1/../../../../pic32c/lib/arm/v5te/nofp\libg-musl.a(atoi.o)
                              c:/program files/microchip/xc32/v4.35/bin/bin/../../lib/gcc/pic32c/8.3.1/../../../../pic32c/lib/arm/v5te/nofp\libg-musl.a(__printf_core.o) (atoi)
c:/program files/microchip/xc32/v4.35/bin/bin/../../lib/gcc/pic32c/8.3.1/../../../../pic32c/lib/arm/v5te/nofp\libg-musl.a(memcpy.o)
                              build/lcdc_rgba888_mxt_9x60_wvga/debug/_ext/1121151461/gfx_canvas.o (memcpy)
c:/program files/microchip/xc32/v4.35/bin/bin/../../lib/gcc/pic32c/8.3.1/../../../../pic32c/lib/arm/v5te/nofp\libg-musl.a(memset.o)
                              build/lcdc_rgba888_mxt_9x60_wvga/debug/_ext/305146849/legato_math.o (memset)
c:/program files/microchip/xc32/v4.35/bin/bin/../../lib/gcc/pic32c/8.3.1/../../../../pic32c/lib/arm/v5te/nofp\libg-musl.a(strlen.o)
                              build/lcdc_rgba888_mxt_9x60_wvga/debug/_ext/1872343871/lodepng.o (strlen)
c:/program files/microchip/xc32/v4.35/bin/bin/../../lib/gcc/pic32c/8.3.1/../../../../pic32c/lib/arm/v5te/nofp\libg-musl.a(tolower.o)
                              c:/program files/microchip/xc32/v4.35/bin/bin/../../lib/gcc/pic32c/8.3.1/../../../../pic32c/lib/arm/v5te/nofp\libg-musl.a(__printf_core.o) (tolower)
c:/program files/microchip/xc32/v4.35/bin/bin/../../lib/gcc/pic32c/8.3.1/../../../../pic32c/lib/arm/v5te/nofp\libg-musl.a(toupper.o)
                              c:/program files/microchip/xc32/v4.35/bin/bin/../../lib/gcc/pic32c/8.3.1/../../../../pic32c/lib/arm/v5te/nofp\libg-musl.a(__fmt_x.o) (toupper)
c:/program files/microchip/xc32/v4.35/bin/bin/../../lib/gcc/pic32c/8.3.1/../../../../pic32c/lib/arm/v5te/nofp\libg-musl.a(__environ.o)
                              c:/program files/microchip/xc32/v4.35/bin/bin/../../lib/gcc/pic32c/8.3.1/../../../../pic32c/lib/arm/v5te/nofp\libg-musl.a(__libc_start_main.o) (__environ)
c:/program files/microchip/xc32/v4.35/bin/bin/../../lib/gcc/pic32c/8.3.1/../../../../pic32c/lib/arm/v5te/nofp\libg-musl.a(__errno_location.o)
                              c:/program files/microchip/xc32/v4.35/bin/bin/../../lib/gcc/pic32c/8.3.1/../../../../pic32c/lib/arm/v5te/nofp\libg-musl.a(malloc.o) (__errno_val)
c:/program files/microchip/xc32/v4.35/bin/bin/../../lib/gcc/pic32c/8.3.1/../../../../pic32c/lib/arm/v5te/nofp\libg-musl.a(__int_vfprintf.o)
                              c:/program files/microchip/xc32/v4.35/bin/bin/../../lib/gcc/pic32c/8.3.1/../../../../pic32c/lib/arm/v5te/nofp\libg-musl.a(__sio_printf_dnpuxX.o) (__vfprintf)
c:/program files/microchip/xc32/v4.35/bin/bin/../../lib/gcc/pic32c/8.3.1/../../../../pic32c/lib/arm/v5te/nofp\libg-musl.a(__int_vsprintf.o)
                              c:/program files/microchip/xc32/v4.35/bin/bin/../../lib/gcc/pic32c/8.3.1/../../../../pic32c/lib/arm/v5te/nofp\libg-musl.a(__sio_sprintf_dnpuxX.o) (__vsprintf)
c:/program files/microchip/xc32/v4.35/bin/bin/../../lib/gcc/pic32c/8.3.1/../../../../pic32c/lib/arm/v5te/nofp\libg-musl.a(fputs.o)
                              c:/program files/microchip/xc32/v4.35/bin/bin/../../lib/gcc/pic32c/8.3.1/../../../../pic32c/lib/arm/v5te/nofp\libg-musl.a(puts.o) (fputs)
c:/program files/microchip/xc32/v4.35/bin/bin/../../lib/gcc/pic32c/8.3.1/../../../../pic32c/lib/arm/v5te/nofp\libg-musl.a(__cvt_u.o)
                              c:/program files/microchip/xc32/v4.35/bin/bin/../../lib/gcc/pic32c/8.3.1/../../../../pic32c/lib/arm/v5te/nofp\libg-musl.a(__fmt_d.o) (__cvt_u)
c:/program files/microchip/xc32/v4.35/bin/bin/../../lib/gcc/pic32c/8.3.1/../../../../pic32c/lib/arm/v5te/nofp\libg-musl.a(__io_init_needed.o)
                              c:/program files/microchip/xc32/v4.35/bin/bin/../../lib/gcc/pic32c/8.3.1/../../../../pic32c/lib/arm/v5te/nofp\libg-musl.a(stdout.o) (__io_init_needed)
c:/program files/microchip/xc32/v4.35/bin/bin/../../lib/gcc/pic32c/8.3.1/../../../../pic32c/lib/arm/v5te/nofp\libg-musl.a(__pop_float.o)
                              c:/program files/microchip/xc32/v4.35/bin/bin/../../lib/gcc/pic32c/8.3.1/../../../../pic32c/lib/arm/v5te/nofp\libg-musl.a(__printf_core.o) (__pop_float)
c:/program files/microchip/xc32/v4.35/bin/bin/../../lib/gcc/pic32c/8.3.1/../../../../pic32c/lib/arm/v5te/nofp\libg-musl.a(fwrite.o)
                              c:/program files/microchip/xc32/v4.35/bin/bin/../../lib/gcc/pic32c/8.3.1/../../../../pic32c/lib/arm/v5te/nofp\libg-musl.a(fputs.o) (fwrite)
c:/program files/microchip/xc32/v4.35/bin/bin/../../lib/gcc/pic32c/8.3.1/../../../../pic32c/lib/arm/v5te/nofp\libg-musl.a(putc.o)
                              c:/program files/microchip/xc32/v4.35/bin/bin/../../lib/gcc/pic32c/8.3.1/../../../../pic32c/lib/arm/v5te/nofp\libg-musl.a(putchar.o) (fputc)
c:/program files/microchip/xc32/v4.35/bin/bin/../../lib/gcc/pic32c/8.3.1/../../../../pic32c/lib/arm/v5te/nofp\libg-musl.a(__int_vsnprintf.o)
                              c:/program files/microchip/xc32/v4.35/bin/bin/../../lib/gcc/pic32c/8.3.1/../../../../pic32c/lib/arm/v5te/nofp\libg-musl.a(__int_vsprintf.o) (__vsnprintf)
c:/program files/microchip/xc32/v4.35/bin/bin/../../lib/gcc/pic32c/8.3.1/../../../../pic32c/lib/arm/v5te/nofp\libg-musl.a(__init_stdio.o)
                              c:/program files/microchip/xc32/v4.35/bin/bin/../../lib/gcc/pic32c/8.3.1/../../../../pic32c/lib/arm/v5te/nofp\libg-musl.a(__io_init_needed.o) (__init_stdio_needed)
c:/program files/microchip/xc32/v4.35/bin/bin/../../lib/gcc/pic32c/8.3.1/../../../../pic32c/lib/arm/v5te/nofp\libg-musl.a(__io_file_needed.o)
                              c:/program files/microchip/xc32/v4.35/bin/bin/../../lib/gcc/pic32c/8.3.1/../../../../pic32c/lib/arm/v5te/nofp\libg-musl.a(__io_init_needed.o) (__io_file_needed)
c:/program files/microchip/xc32/v4.35/bin/bin/../../lib/gcc/pic32c/8.3.1/../../../../pic32c/lib/arm/v5te/nofp\libg-musl.a(__out.o)
                              c:/program files/microchip/xc32/v4.35/bin/bin/../../lib/gcc/pic32c/8.3.1/../../../../pic32c/lib/arm/v5te/nofp\libg-musl.a(putc.o) (__out_needed)
c:/program files/microchip/xc32/v4.35/bin/bin/../../lib/gcc/pic32c/8.3.1/../../../../pic32c/lib/arm/v5te/nofp\libpic32c.a(sbrk.o)
                              c:/program files/microchip/xc32/v4.35/bin/bin/../../lib/gcc/pic32c/8.3.1/../../../../pic32c/lib/arm/v5te/nofp\libg-musl.a(expand_heap.o) (_sbrk)
c:/program files/microchip/xc32/v4.35/bin/bin/../../lib/gcc/pic32c/8.3.1/arm/v5te/nofp\libgcc.a(_arm_truncdfsf2.o)
                              c:/program files/microchip/xc32/v4.35/bin/bin/../../lib/gcc/pic32c/8.3.1/../../../../pic32c/lib/arm/v5te/nofp\libm-musl.a(atan.o) (__aeabi_d2f)

Microchip PIC32 Memory-Usage Report
        --------------------------------------------------------------------------
         Total Program Memory used  :           0           0  
        --------------------------------------------------------------------------


RAM Data-Memory Usage
section                    address  length [bytes]      (dec)  Description
-------                 ----------  -------------------------  -----------
.text                   0x23f00000       0x567100     5665024   
.data                   0x24467100          0xd6c        3436  Initialized data 
.ARM.exidx              0x24467e6c            0x8           8   
.relocate               0x24467e74           0x3c          60   
.region_cache_aligned_c 0x24467e74            0xc          12   
.bss                    0x24468000        0x90ac0      592576  Uninitialized data 
.stacks                 0x244f8ac0         0x2140        8512   
         Total RAM used  :    0x5faabc     6269628  5.3% of 0x7000000
        --------------------------------------------------------------------------
            Total Data Memory used  :    0x5faabc     6269628  5.3% of 0x7000000
        --------------------------------------------------------------------------


Dynamic Data-Memory Reservation
section                    address  length [bytes]      (dec)  Description
-------                 ----------  -------------------------  -----------
heap                    0x244fac08          0x200         512  Reserved for heap 
stack                   0x244fae20      0x3b051d8    61886936  Reserved for stack 

        --------------------------------------------------------------------------

Microchip PIC32 Memory-Usage Report By Module

        text        data         bss         dec         hex    basename                                          filename
--------------------------------------------------------------------------------
     5479840        2040           0     5481880      53a598    le_gen_images.o                               build/lcdc_rgba888_mxt_9x60_wvga/debug/_ext/1497821479/le_gen_images.o
        1116          84      296068      297268       48934    legato_memory.o                               build/lcdc_rgba888_mxt_9x60_wvga/debug/_ext/28088523/legato_memory.o
        3432           1      262284      265717       40df5    legato_renderer.o                             build/lcdc_rgba888_mxt_9x60_wvga/debug/_ext/1081070089/legato_renderer.o
       39140          96           0       39236        9944    le_gen_fonts.o                                build/lcdc_rgba888_mxt_9x60_wvga/debug/_ext/644506877/le_gen_fonts.o
       21472           0           0       21472        53e0    lodepng.o                                     build/lcdc_rgba888_mxt_9x60_wvga/debug/_ext/1872343871/lodepng.o
         712           0       16384       17096        42c8    plib_mmu.o                                    build/lcdc_rgba888_mxt_9x60_wvga/debug/_ext/4998521/plib_mmu.o
        8584           0         182        8766        223e    le_gen_screen_Screen0.o                       build/lcdc_rgba888_mxt_9x60_wvga/debug/_ext/534613472/le_gen_screen_Screen0.o
        1552           0        5212        6764        1a6c    legato_imagedecoder_jpeg.o                    build/lcdc_rgba888_mxt_9x60_wvga/debug/_ext/2086705360/legato_imagedecoder_jpeg.o
        5004           6        1251        6261        1875    app.o                                         build/lcdc_rgba888_mxt_9x60_wvga/debug/_ext/1360937237/app.o
        6108           0          35        6143        17ff    legato_imagedecoder_jpeg_common.o             build/lcdc_rgba888_mxt_9x60_wvga/debug/_ext/2086705360/legato_imagedecoder_jpeg_common.o
        5672          40           0        5712        1650    legato_widget.o                               build/lcdc_rgba888_mxt_9x60_wvga/debug/_ext/261620856/legato_widget.o
        5252           0         288        5540        15a4    legato_imagedecoder_raw.o                     build/lcdc_rgba888_mxt_9x60_wvga/debug/_ext/1872342336/legato_imagedecoder_raw.o
        3052           8         341        3401         d49    gfx_canvas.o                                  build/lcdc_rgba888_mxt_9x60_wvga/debug/_ext/1121151461/gfx_canvas.o
        3164           0           0        3164         c5c    legato_widget_skin_classic_common.o           build/lcdc_rgba888_mxt_9x60_wvga/debug/_ext/261620856/legato_widget_skin_classic_common.o
        3020           0           0        3020         bcc    legato_draw_arc.o                             build/lcdc_rgba888_mxt_9x60_wvga/debug/_ext/1081070089/legato_draw_arc.o
        2632           2         224        2858         b2a    sys_time.o                                    build/lcdc_rgba888_mxt_9x60_wvga/debug/_ext/1812361045/sys_time.o
        2848           0           0        2848         b20    le_gen_scheme.o                               build/lcdc_rgba888_mxt_9x60_wvga/debug/_ext/706129189/le_gen_scheme.o
        2840           0           0        2840         b18    legato_math.o                                 build/lcdc_rgba888_mxt_9x60_wvga/debug/_ext/305146849/legato_math.o
        2728           0           0        2728         aa8    legato_rectarray.o                            build/lcdc_rgba888_mxt_9x60_wvga/debug/_ext/109670485/legato_rectarray.o
        1880           0         752        2632         a48    legato_state.o                                build/lcdc_rgba888_mxt_9x60_wvga/debug/_ext/1618192685/legato_state.o
        2564           0           0        2564         a04    legato_widget_button.o                        build/lcdc_rgba888_mxt_9x60_wvga/debug/_ext/1339002025/legato_widget_button.o
        2520           0           0        2520         9d8    legato_font.o                                 build/lcdc_rgba888_mxt_9x60_wvga/debug/_ext/1618103421/legato_font.o
        2236           0           0        2236         8bc    legato_variableheap.o                         build/lcdc_rgba888_mxt_9x60_wvga/debug/_ext/28088523/legato_variableheap.o
        1620           0         524        2144         860    malloc.o                                      libg-musl.a
        2096           0           0        2096         830    legato_gpu.o                                  build/lcdc_rgba888_mxt_9x60_wvga/debug/_ext/1081070089/legato_gpu.o
        2000           0           0        2000         7d0    legato_utils.o                                build/lcdc_rgba888_mxt_9x60_wvga/debug/_ext/305146849/legato_utils.o
        1988           0           4        1992         7c8    legato_widget_button_skin_classic.o           build/lcdc_rgba888_mxt_9x60_wvga/debug/_ext/1339002025/legato_widget_button_skin_classic.o
        1964           0           0        1964         7ac    legato_fixedstring.o                          build/lcdc_rgba888_mxt_9x60_wvga/debug/_ext/157682245/legato_fixedstring.o
        1600           0         280        1880         758    legato_imagedecoder_mono.o                    build/lcdc_rgba888_mxt_9x60_wvga/debug/_ext/2086794059/legato_imagedecoder_mono.o
        1352         484           0        1836         72c    legato_color_convert.o                        build/lcdc_rgba888_mxt_9x60_wvga/debug/_ext/305146849/legato_color_convert.o
        1740          56           0        1796         704    legato_pixelbuffer.o                          build/lcdc_rgba888_mxt_9x60_wvga/debug/_ext/305146849/legato_pixelbuffer.o
        1780           0           0        1780         6f4    legato_widget_imagesequence.o                 build/lcdc_rgba888_mxt_9x60_wvga/debug/_ext/2015859515/legato_widget_imagesequence.o
        1726           0           0        1726         6be    __printf_core.o                               libg-musl.a
        1544           0           0        1544         608    legato_string.o                               build/lcdc_rgba888_mxt_9x60_wvga/debug/_ext/157682245/legato_string.o
        1524           0          18        1542         606    legato_draw.o                                 build/lcdc_rgba888_mxt_9x60_wvga/debug/_ext/1081070089/legato_draw.o
        1308           0          36        1344         540    legato_input.o                                build/lcdc_rgba888_mxt_9x60_wvga/debug/_ext/1618192685/legato_input.o
        1308           0           0        1308         51c    jidctint.o                                    build/lcdc_rgba888_mxt_9x60_wvga/debug/_ext/2086705360/jidctint.o
        1300           0           0        1300         514    legato_rect.o                                 build/lcdc_rgba888_mxt_9x60_wvga/debug/_ext/305146849/legato_rect.o
         672           0         622        1294         50e    sys_input.o                                   build/lcdc_rgba888_mxt_9x60_wvga/debug/_ext/1414187873/sys_input.o
         664          12         560        1236         4d4    le_gen_stringtable.o                          build/lcdc_rgba888_mxt_9x60_wvga/debug/_ext/706129189/le_gen_stringtable.o
        1136           0           0        1136         470    _arm_muldivdf3.o                              libgcc.a
        1060           0          52        1112         458    legato_imagedecoder_raw_rotate.o              build/lcdc_rgba888_mxt_9x60_wvga/debug/_ext/1872342336/legato_imagedecoder_raw_rotate.o
        1032           0          72        1104         450    legato_imagedecoder_raw_scale.o               build/lcdc_rgba888_mxt_9x60_wvga/debug/_ext/1872342336/legato_imagedecoder_raw_scale.o
        1052           0           4        1056         420    legato_widget_rectangle_skin_classic.o        build/lcdc_rgba888_mxt_9x60_wvga/debug/_ext/337100648/legato_widget_rectangle_skin_classic.o
         908           0         104        1012         3f4    legato_imagedecoder_png.o                     build/lcdc_rgba888_mxt_9x60_wvga/debug/_ext/1872343871/legato_imagedecoder_png.o
         960           0           0         960         3c0    _arm_addsubdf3.o                              libgcc.a
         932           0           0         932         3a4    legato_array.o                                build/lcdc_rgba888_mxt_9x60_wvga/debug/_ext/109670485/legato_array.o
         912           0           0         912         390    legato_tablestring.o                          build/lcdc_rgba888_mxt_9x60_wvga/debug/_ext/157682245/legato_tablestring.o
         872           0          32         904         388    legato_imagedecoder_raw_read_internal.o       build/lcdc_rgba888_mxt_9x60_wvga/debug/_ext/1872342336/legato_imagedecoder_raw_read_internal.o
         864           0          12         876         36c    legato_widget_imagesequence_skin_classic.o    build/lcdc_rgba888_mxt_9x60_wvga/debug/_ext/2015859515/legato_widget_imagesequence_skin_classic.o
         860           0          12         872         368    legato_widget_label_skin_classic.o            build/lcdc_rgba888_mxt_9x60_wvga/debug/_ext/1195110755/legato_widget_label_skin_classic.o
         812          44           0         856         358    legato_color_lerp.o                           build/lcdc_rgba888_mxt_9x60_wvga/debug/_ext/305146849/legato_color_lerp.o
         768          12           0         780         30c    legato_stringutils.o                          build/lcdc_rgba888_mxt_9x60_wvga/debug/_ext/157682245/legato_stringutils.o
         768           0           0         768         300    legato_scheme.o                               build/lcdc_rgba888_mxt_9x60_wvga/debug/_ext/1618192685/legato_scheme.o
         760           0           0         760         2f8    _arm_muldivsf3.o                              libgcc.a
         748           0           0         748         2ec    legato_widget_label.o                         build/lcdc_rgba888_mxt_9x60_wvga/debug/_ext/1195110755/legato_widget_label.o
         712           0          12         724         2d4    legato_widget_image_skin_classic.o            build/lcdc_rgba888_mxt_9x60_wvga/debug/_ext/1197524732/legato_widget_image_skin_classic.o
         692           0           0         692         2b4    legato_color_blend.o                          build/lcdc_rgba888_mxt_9x60_wvga/debug/_ext/305146849/legato_color_blend.o
         664           0           0         664         298    gfx_driver.o                                  build/lcdc_rgba888_mxt_9x60_wvga/debug/_ext/1165331637/gfx_driver.o
         656           0           0         656         290    legato_string_renderer.o                      build/lcdc_rgba888_mxt_9x60_wvga/debug/_ext/157682245/legato_string_renderer.o
         636           0           0         636         27c    legato_widget_image.o                         build/lcdc_rgba888_mxt_9x60_wvga/debug/_ext/1197524732/legato_widget_image.o
         588           0          40         628         274    legato_image.o                                build/lcdc_rgba888_mxt_9x60_wvga/debug/_ext/1381099687/legato_image.o
         592           0           0         592         250    _arm_addsubsf3.o                              libgcc.a
         568           0           0         568         238    legato_color.o                                build/lcdc_rgba888_mxt_9x60_wvga/debug/_ext/305146849/legato_color.o
         564           0           0         564         234    gfx_canvas_api.o                              build/lcdc_rgba888_mxt_9x60_wvga/debug/_ext/1121151461/gfx_canvas_api.o
          20         512           0         532         214    le_gen_globalpalette.o                        build/lcdc_rgba888_mxt_9x60_wvga/debug/_ext/706129189/le_gen_globalpalette.o
         516           0           0         516         204    legato_widget_rectangle.o                     build/lcdc_rgba888_mxt_9x60_wvga/debug/_ext/337100648/legato_widget_rectangle.o
         488           0           0         488         1e8    cstartup.o                                    build/lcdc_rgba888_mxt_9x60_wvga/debug/_ext/2052985144/cstartup.o
         464           0           0         464         1d0    legato_list.o                                 build/lcdc_rgba888_mxt_9x60_wvga/debug/_ext/109670485/legato_list.o
         456           0           0         456         1c8    legato_draw_line.o                            build/lcdc_rgba888_mxt_9x60_wvga/debug/_ext/1081070089/legato_draw_line.o
         440           0          12         452         1c4    legato_imagedecoder_raw_setup.o               build/lcdc_rgba888_mxt_9x60_wvga/debug/_ext/1872342336/legato_imagedecoder_raw_setup.o
         428           0          12         440         1b8    legato_imagedecoder_raw_blend.o               build/lcdc_rgba888_mxt_9x60_wvga/debug/_ext/1872342336/legato_imagedecoder_raw_blend.o
         424           0           0         424         1a8    legato_stringtable.o                          build/lcdc_rgba888_mxt_9x60_wvga/debug/_ext/157682245/legato_stringtable.o
         424           0           0         424         1a8    legato_image_utils.o                          build/lcdc_rgba888_mxt_9x60_wvga/debug/_ext/1381099687/legato_image_utils.o
         412           0           0         412         19c    __fmt_x.o                                     libg-musl.a
         392           0           4         396         18c    legato_widget_skin_classic.o                  build/lcdc_rgba888_mxt_9x60_wvga/debug/_ext/261620856/legato_widget_skin_classic.o
         300           0          81         381         17d    le_gen_harmony.o                              build/lcdc_rgba888_mxt_9x60_wvga/debug/_ext/706129189/le_gen_harmony.o
         372           0           0         372         174    legato_fixedheap.o                            build/lcdc_rgba888_mxt_9x60_wvga/debug/_ext/28088523/legato_fixedheap.o
         356           0           0         356         164    __pop_int.o                                   libg-musl.a
         276           0          32         308         134    legato_imagedecoder_raw_palette_internal.o    build/lcdc_rgba888_mxt_9x60_wvga/debug/_ext/1872342336/legato_imagedecoder_raw_palette_internal.o
         308           0           0         308         134    _udivmoddi4.o                                 libgcc.a
         284           0          16         300         12c    legato_event.o                                build/lcdc_rgba888_mxt_9x60_wvga/debug/_ext/1618192685/legato_event.o
         280           0           0         280         118    __fmt_d.o                                     libg-musl.a
         244           0           8         252          fc    le_gen_init.o                                 build/lcdc_rgba888_mxt_9x60_wvga/debug/_ext/706129189/le_gen_init.o
         252           0           0         252          fc    _divsi3.o                                     libgcc.a
         252           0           0         252          fc    _arm_cmpsf2.o                                 libgcc.a
         236           0           0         236          ec    __pop_ptr.o                                   libg-musl.a
         220           0           4         224          e0    initialization.o                              build/lcdc_rgba888_mxt_9x60_wvga/debug/_ext/2052985144/initialization.o
         216           0           0         216          d8    plib_aic.o                                    build/lcdc_rgba888_mxt_9x60_wvga/debug/_ext/4986847/plib_aic.o
         204           0           0         204          cc    plib_clk.o                                    build/lcdc_rgba888_mxt_9x60_wvga/debug/_ext/4988870/plib_clk.o
         188           0          16         204          cc    legato_imagedecoder_raw_convert.o             build/lcdc_rgba888_mxt_9x60_wvga/debug/_ext/1872342336/legato_imagedecoder_raw_convert.o
         200           0           0         200          c8    _udivsi3.o                                    libgcc.a
         172           0          24         196          c4    legato_imagedecoder_raw_write.o               build/lcdc_rgba888_mxt_9x60_wvga/debug/_ext/1872342336/legato_imagedecoder_raw_write.o
         188           0           0         188          bc    plib_pio.o                                    build/lcdc_rgba888_mxt_9x60_wvga/debug/_ext/5001274/plib_pio.o
         184           0           0         184          b8    __cvt_u.o                                     libg-musl.a
         172           0           0         172          ac    sys_int.o                                     build/lcdc_rgba888_mxt_9x60_wvga/debug/_ext/1826491803/sys_int.o
         148           0           0         148          94    __fmt_u.o                                     libg-musl.a
         120           0          28         148          94    crtbegin.o                                    c:/program files/microchip/xc32/v4.35/bin/bin/../../lib/gcc/pic32c/8.3.1/arm/v5te/nofp/crtbegin.o
         140           0           0         140          8c    __libc_start_main.o                           libg-musl.a
         132           0           0         132          84    __int_vsnprintf.o                             libg-musl.a
         124           0           0         124          7c    atoi.o                                        libg-musl.a
         108           0          12         120          78    legato_imagedecoder_mono_read_internal.o      build/lcdc_rgba888_mxt_9x60_wvga/debug/_ext/2086794059/legato_imagedecoder_mono_read_internal.o
         108           0           0         108          6c    legato_draw_rect.o                            build/lcdc_rgba888_mxt_9x60_wvga/debug/_ext/1081070089/legato_draw_rect.o
         104           0           0         104          68    __out.o                                       libg-musl.a
          84           0          12          96          60    legato_imagedecoder_raw_mask.o                build/lcdc_rgba888_mxt_9x60_wvga/debug/_ext/1872342336/legato_imagedecoder_raw_mask.o
          92           0           0          92          5c    _arm_fixsfsi.o                                libgcc.a
          84           0           0          84          54    _arm_fixunssfsi.o                             libgcc.a
          84           0           0          84          54    _arm_fixunsdfsi.o                             libgcc.a
           0           0          80          80          50    libc.o                                        libg-musl.a
          40          32           8          80          50    stdout.o                                      libg-musl.a
          64           0           4          68          44    sbrk.o                                        libpic32c.a
          68           0           0          68          44    __pop_float.o                                 libg-musl.a
          60           0           0          60          3c    _aeabi_uldivmod.o                             libgcc.a
          52           0           0          52          34    gfx_simulator.o                               build/lcdc_rgba888_mxt_9x60_wvga/debug/_ext/440801193/gfx_simulator.o
          44           0           0          44          2c    expand_heap.o                                 libg-musl.a
          44           0           0          44          2c    strlen.o                                      libg-musl.a
          40           0           0          40          28    __sio_sprintf_dnpuxX.o                        libg-musl.a
          40           0           0          40          28    __int_vfprintf.o                              libg-musl.a
          36           0           0          36          24    memset.o                                      libg-musl.a
          36           0           0          36          24    memcpy.o                                      libg-musl.a
          24           0           0          24          18    crtn.o                                        c:/program files/microchip/xc32/v4.35/bin/bin/../../lib/gcc/pic32c/8.3.1/arm/v5te/nofp/crtn.o
          24           0           0          24          18    __init_stdio.o                                libg-musl.a
          24           0           0          24          18    tasks.o                                       build/lcdc_rgba888_mxt_9x60_wvga/debug/_ext/2052985144/tasks.o
          24           0           0          24          18    crti.o                                        c:/program files/microchip/xc32/v4.35/bin/bin/../../lib/gcc/pic32c/8.3.1/arm/v5te/nofp/crti.o
          20           0           0          20          14    main.o                                        build/lcdc_rgba888_mxt_9x60_wvga/debug/_ext/1360937237/main.o
          16           0           0          16          10    __int_vsprintf.o                              libg-musl.a
          16           0           0          16          10    toupper.o                                     libg-musl.a
          16           0           0          16          10    tolower.o                                     libg-musl.a
          16           0           0          16          10    fault_handlers.o                              build/lcdc_rgba888_mxt_9x60_wvga/debug/_ext/2052985144/fault_handlers.o
           8           0           0           8           8    fwrite.o                                      libg-musl.a
           8           0           0           8           8    xc32_monitor.o                                build/lcdc_rgba888_mxt_9x60_wvga/debug/_ext/286729486/xc32_monitor.o
           4           0           0           4           4    _dvmd_tls.o                                   libgcc.a
           0           0           4           4           4    __errno_location.o                            libg-musl.a
           0           0           4           4           4    __environ.o                                   libg-musl.a
           0           0        8524        8524        214c    misc                                          misc
           0           0           0        6819        1aa3    padding                                       padding
--------------------------------------------------------------------------------
     5665090        3429      594290     6269628      5faabc    dist/lcdc_rgba888_mxt_9x60_wvga/debug/EVC_sam9x60Cur_tm5000.X.debug.elf


Discarded input sections

 .text          0x00000000        0x0 c:/program files/microchip/xc32/v4.35/bin/bin/../../lib/gcc/pic32c/8.3.1/arm/v5te/nofp/crti.o
 .data          0x00000000        0x0 c:/program files/microchip/xc32/v4.35/bin/bin/../../lib/gcc/pic32c/8.3.1/arm/v5te/nofp/crti.o
 .bss           0x00000000        0x0 c:/program files/microchip/xc32/v4.35/bin/bin/../../lib/gcc/pic32c/8.3.1/arm/v5te/nofp/crti.o
 .xc_stack_usage.hdr
                0x00000000        0xe c:/program files/microchip/xc32/v4.35/bin/bin/../../lib/gcc/pic32c/8.3.1/arm/v5te/nofp/crti.o
 .xc_stack_usage
                0x00000000       0x26 c:/program files/microchip/xc32/v4.35/bin/bin/../../lib/gcc/pic32c/8.3.1/arm/v5te/nofp/crti.o
 .data          0x00000000        0x4 c:/program files/microchip/xc32/v4.35/bin/bin/../../lib/gcc/pic32c/8.3.1/arm/v5te/nofp/crtbegin.o
 .xc_stack_usage
                0x00000000       0x3c c:/program files/microchip/xc32/v4.35/bin/bin/../../lib/gcc/pic32c/8.3.1/arm/v5te/nofp/crtbegin.o
 .xc_stack_usage.hdr
                0x00000000        0xe c:/program files/microchip/xc32/v4.35/bin/bin/../../lib/gcc/pic32c/8.3.1/arm/v5te/nofp/crtbegin.o
 .text          0x00000000        0x0 build/lcdc_rgba888_mxt_9x60_wvga/debug/_ext/1121151461/gfx_canvas_api.o
 .data          0x00000000        0x0 build/lcdc_rgba888_mxt_9x60_wvga/debug/_ext/1121151461/gfx_canvas_api.o
 .bss           0x00000000        0x0 build/lcdc_rgba888_mxt_9x60_wvga/debug/_ext/1121151461/gfx_canvas_api.o
 .text.gfxcDestroy
                0x00000000       0x3c build/lcdc_rgba888_mxt_9x60_wvga/debug/_ext/1121151461/gfx_canvas_api.o
 .text.gfxcGetlayer
                0x00000000       0x24 build/lcdc_rgba888_mxt_9x60_wvga/debug/_ext/1121151461/gfx_canvas_api.o
 .text.gfxcClearLayer
                0x00000000       0x50 build/lcdc_rgba888_mxt_9x60_wvga/debug/_ext/1121151461/gfx_canvas_api.o
 .text.gfxcSetWindowAlpha
                0x00000000       0x28 build/lcdc_rgba888_mxt_9x60_wvga/debug/_ext/1121151461/gfx_canvas_api.o
 .text.gfxcGetWindowPosition
                0x00000000       0x74 build/lcdc_rgba888_mxt_9x60_wvga/debug/_ext/1121151461/gfx_canvas_api.o
 .text.gfxcGetWindowSize
                0x00000000       0x74 build/lcdc_rgba888_mxt_9x60_wvga/debug/_ext/1121151461/gfx_canvas_api.o
 .text.gfxcCopyBuffer
                0x00000000        0xc build/lcdc_rgba888_mxt_9x60_wvga/debug/_ext/1121151461/gfx_canvas_api.o
 .text.gfxcSetBaseCanvasID
                0x00000000        0xc build/lcdc_rgba888_mxt_9x60_wvga/debug/_ext/1121151461/gfx_canvas_api.o
 .text.gfxcSetEffectsInterval
                0x00000000        0xc build/lcdc_rgba888_mxt_9x60_wvga/debug/_ext/1121151461/gfx_canvas_api.o
 .text.gfxcSetEffectsCallback
                0x00000000       0x3c build/lcdc_rgba888_mxt_9x60_wvga/debug/_ext/1121151461/gfx_canvas_api.o
 .text.gfxcStartEffectFade
                0x00000000       0xc0 build/lcdc_rgba888_mxt_9x60_wvga/debug/_ext/1121151461/gfx_canvas_api.o
 .text.gfxcStartEffectMove
                0x00000000       0xdc build/lcdc_rgba888_mxt_9x60_wvga/debug/_ext/1121151461/gfx_canvas_api.o
 .text.gfxcStopEffect
                0x00000000       0x64 build/lcdc_rgba888_mxt_9x60_wvga/debug/_ext/1121151461/gfx_canvas_api.o
 .text.gfxcGetStatus
                0x00000000        0xc build/lcdc_rgba888_mxt_9x60_wvga/debug/_ext/1121151461/gfx_canvas_api.o
 .text          0x00000000        0x0 build/lcdc_rgba888_mxt_9x60_wvga/debug/_ext/1121151461/gfx_canvas.o
 .data          0x00000000        0x0 build/lcdc_rgba888_mxt_9x60_wvga/debug/_ext/1121151461/gfx_canvas.o
 .bss           0x00000000        0x0 build/lcdc_rgba888_mxt_9x60_wvga/debug/_ext/1121151461/gfx_canvas.o
 .text.GFXC_FrameStart
                0x00000000        0x8 build/lcdc_rgba888_mxt_9x60_wvga/debug/_ext/1121151461/gfx_canvas.o
 .text.GFXC_FrameEnd
                0x00000000        0x8 build/lcdc_rgba888_mxt_9x60_wvga/debug/_ext/1121151461/gfx_canvas.o
 .text.GFXC_GetVSYNCCount
                0x00000000        0x8 build/lcdc_rgba888_mxt_9x60_wvga/debug/_ext/1121151461/gfx_canvas.o
 .text.GFXC_GetPixelBuffer
                0x00000000       0x38 build/lcdc_rgba888_mxt_9x60_wvga/debug/_ext/1121151461/gfx_canvas.o
 .text._gfxcCopyBuffer
                0x00000000      0x138 build/lcdc_rgba888_mxt_9x60_wvga/debug/_ext/1121151461/gfx_canvas.o
 .text._gfxcSetBaseCanvasID
                0x00000000       0x24 build/lcdc_rgba888_mxt_9x60_wvga/debug/_ext/1121151461/gfx_canvas.o
 .text.GFXC_GetLayerState
                0x00000000       0x64 build/lcdc_rgba888_mxt_9x60_wvga/debug/_ext/1121151461/gfx_canvas.o
 .text._gfxcSetEffectsIntervalMS
                0x00000000       0x48 build/lcdc_rgba888_mxt_9x60_wvga/debug/_ext/1121151461/gfx_canvas.o
 .text._gfxcStartEffects
                0x00000000       0x1c build/lcdc_rgba888_mxt_9x60_wvga/debug/_ext/1121151461/gfx_canvas.o
 .text._gfxcStopEffects
                0x00000000       0x1c build/lcdc_rgba888_mxt_9x60_wvga/debug/_ext/1121151461/gfx_canvas.o
 .text._gfxcGetStatus
                0x00000000       0x28 build/lcdc_rgba888_mxt_9x60_wvga/debug/_ext/1121151461/gfx_canvas.o
 .bss.gfxcGPU   0x00000000        0x4 build/lcdc_rgba888_mxt_9x60_wvga/debug/_ext/1121151461/gfx_canvas.o
 .data.numLayers
                0x00000000        0x4 build/lcdc_rgba888_mxt_9x60_wvga/debug/_ext/1121151461/gfx_canvas.o
 .text          0x00000000        0x0 build/lcdc_rgba888_mxt_9x60_wvga/debug/_ext/1165331637/gfx_driver.o
 .data          0x00000000        0x0 build/lcdc_rgba888_mxt_9x60_wvga/debug/_ext/1165331637/gfx_driver.o
 .bss           0x00000000        0x0 build/lcdc_rgba888_mxt_9x60_wvga/debug/_ext/1165331637/gfx_driver.o
 .text.no_conv  0x00000000        0x4 build/lcdc_rgba888_mxt_9x60_wvga/debug/_ext/1165331637/gfx_driver.o
 .text.gs8_rgb332
                0x00000000       0x10 build/lcdc_rgba888_mxt_9x60_wvga/debug/_ext/1165331637/gfx_driver.o
 .text.gs8_rgb565
                0x00000000       0x20 build/lcdc_rgba888_mxt_9x60_wvga/debug/_ext/1165331637/gfx_driver.o
 .text.gs8_rgba5551
                0x00000000       0x28 build/lcdc_rgba888_mxt_9x60_wvga/debug/_ext/1165331637/gfx_driver.o
 .text.gs8_rgb888
                0x00000000       0x10 build/lcdc_rgba888_mxt_9x60_wvga/debug/_ext/1165331637/gfx_driver.o
 .text.gs8_rgba8888
                0x00000000       0x14 build/lcdc_rgba888_mxt_9x60_wvga/debug/_ext/1165331637/gfx_driver.o
 .text.gs8_argb8888
                0x00000000       0x14 build/lcdc_rgba888_mxt_9x60_wvga/debug/_ext/1165331637/gfx_driver.o
 .text.rgb332_rgb565
                0x00000000       0x2c build/lcdc_rgba888_mxt_9x60_wvga/debug/_ext/1165331637/gfx_driver.o
 .text.rgb332_rgba5551
                0x00000000       0x2c build/lcdc_rgba888_mxt_9x60_wvga/debug/_ext/1165331637/gfx_driver.o
 .text.rgb332_rgb888
                0x00000000       0x30 build/lcdc_rgba888_mxt_9x60_wvga/debug/_ext/1165331637/gfx_driver.o
 .text.rgb332_rgba8888
                0x00000000       0x2c build/lcdc_rgba888_mxt_9x60_wvga/debug/_ext/1165331637/gfx_driver.o
 .text.rgb332_argb8888
                0x00000000       0x30 build/lcdc_rgba888_mxt_9x60_wvga/debug/_ext/1165331637/gfx_driver.o
 .text.rgb565_rgb332
                0x00000000       0x20 build/lcdc_rgba888_mxt_9x60_wvga/debug/_ext/1165331637/gfx_driver.o
 .text.rgb565_rgba5551
                0x00000000       0x20 build/lcdc_rgba888_mxt_9x60_wvga/debug/_ext/1165331637/gfx_driver.o
 .text.rgb565_rgb888
                0x00000000       0x24 build/lcdc_rgba888_mxt_9x60_wvga/debug/_ext/1165331637/gfx_driver.o
 .text.rgb565_rgba8888
                0x00000000       0x24 build/lcdc_rgba888_mxt_9x60_wvga/debug/_ext/1165331637/gfx_driver.o
 .text.rgb565_argb8888
                0x00000000       0x28 build/lcdc_rgba888_mxt_9x60_wvga/debug/_ext/1165331637/gfx_driver.o
 .text.rgba5551_gs8
                0x00000000        0x4 build/lcdc_rgba888_mxt_9x60_wvga/debug/_ext/1165331637/gfx_driver.o
 .text.rgba5551_rgb332
                0x00000000       0x20 build/lcdc_rgba888_mxt_9x60_wvga/debug/_ext/1165331637/gfx_driver.o
 .text.rgba5551_rgb565
                0x00000000       0x1c build/lcdc_rgba888_mxt_9x60_wvga/debug/_ext/1165331637/gfx_driver.o
 .text.rgba5551_rgb888
                0x00000000       0x30 build/lcdc_rgba888_mxt_9x60_wvga/debug/_ext/1165331637/gfx_driver.o
 .text.rgba5551_rgba8888
                0x00000000       0x40 build/lcdc_rgba888_mxt_9x60_wvga/debug/_ext/1165331637/gfx_driver.o
 .text.rgba5551_argb8888
                0x00000000       0x40 build/lcdc_rgba888_mxt_9x60_wvga/debug/_ext/1165331637/gfx_driver.o
 .text.rgb888_gs8
                0x00000000        0x4 build/lcdc_rgba888_mxt_9x60_wvga/debug/_ext/1165331637/gfx_driver.o
 .text.rgb888_rgb332
                0x00000000       0x24 build/lcdc_rgba888_mxt_9x60_wvga/debug/_ext/1165331637/gfx_driver.o
 .text.rgb888_rgb565
                0x00000000       0x20 build/lcdc_rgba888_mxt_9x60_wvga/debug/_ext/1165331637/gfx_driver.o
 .text.rgb888_rgba5551
                0x00000000       0x28 build/lcdc_rgba888_mxt_9x60_wvga/debug/_ext/1165331637/gfx_driver.o
 .text.rgb888_rgba8888
                0x00000000        0xc build/lcdc_rgba888_mxt_9x60_wvga/debug/_ext/1165331637/gfx_driver.o
 .text.rgb888_argb8888
                0x00000000        0x8 build/lcdc_rgba888_mxt_9x60_wvga/debug/_ext/1165331637/gfx_driver.o
 .text.rgba8888_gs8
                0x00000000        0x4 build/lcdc_rgba888_mxt_9x60_wvga/debug/_ext/1165331637/gfx_driver.o
 .text.rgba8888_rgb332
                0x00000000       0x20 build/lcdc_rgba888_mxt_9x60_wvga/debug/_ext/1165331637/gfx_driver.o
 .text.rgba8888_rgb565
                0x00000000       0x20 build/lcdc_rgba888_mxt_9x60_wvga/debug/_ext/1165331637/gfx_driver.o
 .text.rgba8888_rgba5551
                0x00000000       0x34 build/lcdc_rgba888_mxt_9x60_wvga/debug/_ext/1165331637/gfx_driver.o
 .text.rgba8888_rgb888
                0x00000000        0x8 build/lcdc_rgba888_mxt_9x60_wvga/debug/_ext/1165331637/gfx_driver.o
 .text.rgba8888_argb8888
                0x00000000        0x8 build/lcdc_rgba888_mxt_9x60_wvga/debug/_ext/1165331637/gfx_driver.o
 .text.argb8888_rgba5551
                0x00000000       0x34 build/lcdc_rgba888_mxt_9x60_wvga/debug/_ext/1165331637/gfx_driver.o
 .text.argb8888_rgb888
                0x00000000        0x8 build/lcdc_rgba888_mxt_9x60_wvga/debug/_ext/1165331637/gfx_driver.o
 .text.argb8888_rgba8888
                0x00000000        0x8 build/lcdc_rgba888_mxt_9x60_wvga/debug/_ext/1165331637/gfx_driver.o
 .text.gfxIndexGet1bpp
                0x00000000       0x20 build/lcdc_rgba888_mxt_9x60_wvga/debug/_ext/1165331637/gfx_driver.o
 .text.gfxIndexGet4bpp
                0x00000000       0x18 build/lcdc_rgba888_mxt_9x60_wvga/debug/_ext/1165331637/gfx_driver.o
 .text.gfxIndexGet
                0x00000000       0x64 build/lcdc_rgba888_mxt_9x60_wvga/debug/_ext/1165331637/gfx_driver.o
 .text.gfxGet1byte
                0x00000000        0x8 build/lcdc_rgba888_mxt_9x60_wvga/debug/_ext/1165331637/gfx_driver.o
 .text.gfxGet2byte
                0x00000000        0x8 build/lcdc_rgba888_mxt_9x60_wvga/debug/_ext/1165331637/gfx_driver.o
 .text.gfxGet3byte
                0x00000000       0x1c build/lcdc_rgba888_mxt_9x60_wvga/debug/_ext/1165331637/gfx_driver.o
 .text.gfxGet4byte
                0x00000000        0x8 build/lcdc_rgba888_mxt_9x60_wvga/debug/_ext/1165331637/gfx_driver.o
 .text.gfxSet1byte
                0x00000000        0xc build/lcdc_rgba888_mxt_9x60_wvga/debug/_ext/1165331637/gfx_driver.o
 .text.gfxSet2byte
                0x00000000        0xc build/lcdc_rgba888_mxt_9x60_wvga/debug/_ext/1165331637/gfx_driver.o
 .text.gfxSet3byte
                0x00000000       0x1c build/lcdc_rgba888_mxt_9x60_wvga/debug/_ext/1165331637/gfx_driver.o
 .text.gfxSet4byte
                0x00000000        0xc build/lcdc_rgba888_mxt_9x60_wvga/debug/_ext/1165331637/gfx_driver.o
 .text.rgb332_gs8
                0x00000000       0x9c build/lcdc_rgba888_mxt_9x60_wvga/debug/_ext/1165331637/gfx_driver.o
 .text.rgb565_gs8
                0x00000000       0x9c build/lcdc_rgba888_mxt_9x60_wvga/debug/_ext/1165331637/gfx_driver.o
 .text.gfxColorChannelRed
                0x00000000       0x20 build/lcdc_rgba888_mxt_9x60_wvga/debug/_ext/1165331637/gfx_driver.o
 .text.gfxColorChannelGreen
                0x00000000       0x20 build/lcdc_rgba888_mxt_9x60_wvga/debug/_ext/1165331637/gfx_driver.o
 .text.gfxColorChannelBlue
                0x00000000       0x20 build/lcdc_rgba888_mxt_9x60_wvga/debug/_ext/1165331637/gfx_driver.o
 .text.gfxColorChannelAlpha
                0x00000000       0x30 build/lcdc_rgba888_mxt_9x60_wvga/debug/_ext/1165331637/gfx_driver.o
 .text.gfxScaleIntegerSigned
                0x00000000       0x44 build/lcdc_rgba888_mxt_9x60_wvga/debug/_ext/1165331637/gfx_driver.o
 .text.gfxScaleInteger
                0x00000000       0x44 build/lcdc_rgba888_mxt_9x60_wvga/debug/_ext/1165331637/gfx_driver.o
 .text.gfxPixelBufferOffsetGet_Unsafe
                0x00000000       0x24 build/lcdc_rgba888_mxt_9x60_wvga/debug/_ext/1165331637/gfx_driver.o
 .text.gfxPixelBufferGet_Unsafe
                0x00000000       0x64 build/lcdc_rgba888_mxt_9x60_wvga/debug/_ext/1165331637/gfx_driver.o
 .text.gfxPixelBufferGet
                0x00000000       0x34 build/lcdc_rgba888_mxt_9x60_wvga/debug/_ext/1165331637/gfx_driver.o
 .text.gfxPixelBufferGetIndex
                0x00000000       0x40 build/lcdc_rgba888_mxt_9x60_wvga/debug/_ext/1165331637/gfx_driver.o
 .text.gfxPixelBufferGetIndex_Unsafe
                0x00000000       0x2c build/lcdc_rgba888_mxt_9x60_wvga/debug/_ext/1165331637/gfx_driver.o
 .text.gfxPixelBuffer_SetLocked
                0x00000000       0x2c build/lcdc_rgba888_mxt_9x60_wvga/debug/_ext/1165331637/gfx_driver.o
 .text.gfxColorConvert
                0x00000000       0x28 build/lcdc_rgba888_mxt_9x60_wvga/debug/_ext/1165331637/gfx_driver.o
 .data.gfxIndexGet_FnTable
                0x00000000       0x18 build/lcdc_rgba888_mxt_9x60_wvga/debug/_ext/1165331637/gfx_driver.o
 .data.gfxPixelGet_FnTable
                0x00000000       0x10 build/lcdc_rgba888_mxt_9x60_wvga/debug/_ext/1165331637/gfx_driver.o
 .data.gfxPixelSet_FnTable
                0x00000000       0x10 build/lcdc_rgba888_mxt_9x60_wvga/debug/_ext/1165331637/gfx_driver.o
 .data.gfx_color_convert_table
                0x00000000      0x1e4 build/lcdc_rgba888_mxt_9x60_wvga/debug/_ext/1165331637/gfx_driver.o
 .text          0x00000000        0x0 build/lcdc_rgba888_mxt_9x60_wvga/debug/_ext/305146849/legato_pixelbuffer.o
 .data          0x00000000        0x0 build/lcdc_rgba888_mxt_9x60_wvga/debug/_ext/305146849/legato_pixelbuffer.o
 .bss           0x00000000        0x0 build/lcdc_rgba888_mxt_9x60_wvga/debug/_ext/305146849/legato_pixelbuffer.o
 .text.lePixelBufferGetIndex
                0x00000000       0x40 build/lcdc_rgba888_mxt_9x60_wvga/debug/_ext/305146849/legato_pixelbuffer.o
 .text          0x00000000        0x0 build/lcdc_rgba888_mxt_9x60_wvga/debug/_ext/305146849/legato_color_value.o
 .data          0x00000000        0x0 build/lcdc_rgba888_mxt_9x60_wvga/debug/_ext/305146849/legato_color_value.o
 .bss           0x00000000        0x0 build/lcdc_rgba888_mxt_9x60_wvga/debug/_ext/305146849/legato_color_value.o
 .text.leColorValue
                0x00000000       0x34 build/lcdc_rgba888_mxt_9x60_wvga/debug/_ext/305146849/legato_color_value.o
 .rodata.values
                0x00000000       0x48 build/lcdc_rgba888_mxt_9x60_wvga/debug/_ext/305146849/legato_color_value.o
 .debug_info    0x00000000      0x7a6 build/lcdc_rgba888_mxt_9x60_wvga/debug/_ext/305146849/legato_color_value.o
 .debug_abbrev  0x00000000      0x17d build/lcdc_rgba888_mxt_9x60_wvga/debug/_ext/305146849/legato_color_value.o
 .debug_loc     0x00000000       0x87 build/lcdc_rgba888_mxt_9x60_wvga/debug/_ext/305146849/legato_color_value.o
 .debug_aranges
                0x00000000       0x20 build/lcdc_rgba888_mxt_9x60_wvga/debug/_ext/305146849/legato_color_value.o
 .debug_ranges  0x00000000       0x10 build/lcdc_rgba888_mxt_9x60_wvga/debug/_ext/305146849/legato_color_value.o
 .debug_line    0x00000000      0x10d build/lcdc_rgba888_mxt_9x60_wvga/debug/_ext/305146849/legato_color_value.o
 .debug_str     0x00000000       0x30 build/lcdc_rgba888_mxt_9x60_wvga/debug/_ext/305146849/legato_color_value.o
 .comment       0x00000000       0x2c build/lcdc_rgba888_mxt_9x60_wvga/debug/_ext/305146849/legato_color_value.o
 .debug_frame   0x00000000       0x28 build/lcdc_rgba888_mxt_9x60_wvga/debug/_ext/305146849/legato_color_value.o
 .ARM.attributes
                0x00000000       0x2c build/lcdc_rgba888_mxt_9x60_wvga/debug/_ext/305146849/legato_color_value.o
 .text          0x00000000        0x0 build/lcdc_rgba888_mxt_9x60_wvga/debug/_ext/305146849/legato_utils.o
 .data          0x00000000        0x0 build/lcdc_rgba888_mxt_9x60_wvga/debug/_ext/305146849/legato_utils.o
 .bss           0x00000000        0x0 build/lcdc_rgba888_mxt_9x60_wvga/debug/_ext/305146849/legato_utils.o
 .text.leUtils_PointToScreenSpace
                0x00000000       0x44 build/lcdc_rgba888_mxt_9x60_wvga/debug/_ext/305146849/legato_utils.o
 .text.leUtils_PointScreenToLocalSpace
                0x00000000       0x70 build/lcdc_rgba888_mxt_9x60_wvga/debug/_ext/305146849/legato_utils.o
 .text.leUtils_RectToParentSpace
                0x00000000       0x48 build/lcdc_rgba888_mxt_9x60_wvga/debug/_ext/305146849/legato_utils.o
 .text.leUtils_RectFromParentSpace
                0x00000000       0x48 build/lcdc_rgba888_mxt_9x60_wvga/debug/_ext/305146849/legato_utils.o
 .text.leUtils_ChildIntersectsParent
                0x00000000       0x64 build/lcdc_rgba888_mxt_9x60_wvga/debug/_ext/305146849/legato_utils.o
 .text.leUtils_GetNextHighestWidget
                0x00000000       0x7c build/lcdc_rgba888_mxt_9x60_wvga/debug/_ext/305146849/legato_utils.o
 .text.leUtils_PointLogicalToScratch
                0x00000000        0x4 build/lcdc_rgba888_mxt_9x60_wvga/debug/_ext/305146849/legato_utils.o
 .text.leUtils_RectLogicalToScratch
                0x00000000        0x4 build/lcdc_rgba888_mxt_9x60_wvga/debug/_ext/305146849/legato_utils.o
 .text          0x00000000        0x0 build/lcdc_rgba888_mxt_9x60_wvga/debug/_ext/305146849/legato_color_convert.o
 .data          0x00000000        0x0 build/lcdc_rgba888_mxt_9x60_wvga/debug/_ext/305146849/legato_color_convert.o
 .bss           0x00000000        0x0 build/lcdc_rgba888_mxt_9x60_wvga/debug/_ext/305146849/legato_color_convert.o
 .text          0x00000000        0x0 build/lcdc_rgba888_mxt_9x60_wvga/debug/_ext/305146849/legato_rect.o
 .data          0x00000000        0x0 build/lcdc_rgba888_mxt_9x60_wvga/debug/_ext/305146849/legato_rect.o
 .bss           0x00000000        0x0 build/lcdc_rgba888_mxt_9x60_wvga/debug/_ext/305146849/legato_rect.o
 .text.leRectFromPoints
                0x00000000       0x58 build/lcdc_rgba888_mxt_9x60_wvga/debug/_ext/305146849/legato_rect.o
 .text.leRectToPoints
                0x00000000       0x3c build/lcdc_rgba888_mxt_9x60_wvga/debug/_ext/305146849/legato_rect.o
 .text.leRectSplit
                0x00000000      0x184 build/lcdc_rgba888_mxt_9x60_wvga/debug/_ext/305146849/legato_rect.o
 .text          0x00000000        0x0 build/lcdc_rgba888_mxt_9x60_wvga/debug/_ext/305146849/legato_color_lerp.o
 .data          0x00000000        0x0 build/lcdc_rgba888_mxt_9x60_wvga/debug/_ext/305146849/legato_color_lerp.o
 .bss           0x00000000        0x0 build/lcdc_rgba888_mxt_9x60_wvga/debug/_ext/305146849/legato_color_lerp.o
 .text          0x00000000        0x0 build/lcdc_rgba888_mxt_9x60_wvga/debug/_ext/305146849/legato_math.o
 .data          0x00000000        0x0 build/lcdc_rgba888_mxt_9x60_wvga/debug/_ext/305146849/legato_math.o
 .bss           0x00000000        0x0 build/lcdc_rgba888_mxt_9x60_wvga/debug/_ext/305146849/legato_math.o
 .text.leEllipsePoint
                0x00000000       0xb8 build/lcdc_rgba888_mxt_9x60_wvga/debug/_ext/305146849/legato_math.o
 .text.leAtan   0x00000000        0xc build/lcdc_rgba888_mxt_9x60_wvga/debug/_ext/305146849/legato_math.o
 .text.leMinf   0x00000000       0x20 build/lcdc_rgba888_mxt_9x60_wvga/debug/_ext/305146849/legato_math.o
 .text.leMaxf   0x00000000       0x20 build/lcdc_rgba888_mxt_9x60_wvga/debug/_ext/305146849/legato_math.o
 .text.leClampf
                0x00000000       0x50 build/lcdc_rgba888_mxt_9x60_wvga/debug/_ext/305146849/legato_math.o
 .text.lePercentOfDec
                0x00000000       0x68 build/lcdc_rgba888_mxt_9x60_wvga/debug/_ext/305146849/legato_math.o
 .text.leScaleIntegerSigned
                0x00000000       0x44 build/lcdc_rgba888_mxt_9x60_wvga/debug/_ext/305146849/legato_math.o
 .text.leAbsoluteValue
                0x00000000        0xc build/lcdc_rgba888_mxt_9x60_wvga/debug/_ext/305146849/legato_math.o
 .text.leDivideRounding
                0x00000000       0x78 build/lcdc_rgba888_mxt_9x60_wvga/debug/_ext/305146849/legato_math.o
 .text.leSortPointsX
                0x00000000       0x34 build/lcdc_rgba888_mxt_9x60_wvga/debug/_ext/305146849/legato_math.o
 .text.leSortPointsY
                0x00000000       0x34 build/lcdc_rgba888_mxt_9x60_wvga/debug/_ext/305146849/legato_math.o
 .text.leGetXGivenYOnLine
                0x00000000       0x54 build/lcdc_rgba888_mxt_9x60_wvga/debug/_ext/305146849/legato_math.o
 .text.leGetYGivenXOnLine
                0x00000000       0x58 build/lcdc_rgba888_mxt_9x60_wvga/debug/_ext/305146849/legato_math.o
 .text.leNormalizeAngles
                0x00000000       0x80 build/lcdc_rgba888_mxt_9x60_wvga/debug/_ext/305146849/legato_math.o
 .text.leDegreesFromPercent
                0x00000000       0x2c build/lcdc_rgba888_mxt_9x60_wvga/debug/_ext/305146849/legato_math.o
 .text.leDegreesToPercent
                0x00000000       0x18 build/lcdc_rgba888_mxt_9x60_wvga/debug/_ext/305146849/legato_math.o
 .text          0x00000000        0x0 build/lcdc_rgba888_mxt_9x60_wvga/debug/_ext/305146849/legato_color_blend.o
 .data          0x00000000        0x0 build/lcdc_rgba888_mxt_9x60_wvga/debug/_ext/305146849/legato_color_blend.o
 .bss           0x00000000        0x0 build/lcdc_rgba888_mxt_9x60_wvga/debug/_ext/305146849/legato_color_blend.o
 .text          0x00000000        0x0 build/lcdc_rgba888_mxt_9x60_wvga/debug/_ext/305146849/legato_error.o
 .data          0x00000000        0x0 build/lcdc_rgba888_mxt_9x60_wvga/debug/_ext/305146849/legato_error.o
 .bss           0x00000000        0x0 build/lcdc_rgba888_mxt_9x60_wvga/debug/_ext/305146849/legato_error.o
 .debug_info    0x00000000      0x42f build/lcdc_rgba888_mxt_9x60_wvga/debug/_ext/305146849/legato_error.o
 .debug_abbrev  0x00000000       0xb5 build/lcdc_rgba888_mxt_9x60_wvga/debug/_ext/305146849/legato_error.o
 .debug_aranges
                0x00000000       0x18 build/lcdc_rgba888_mxt_9x60_wvga/debug/_ext/305146849/legato_error.o
 .debug_line    0x00000000       0xb8 build/lcdc_rgba888_mxt_9x60_wvga/debug/_ext/305146849/legato_error.o
 .debug_str     0x00000000        0x9 build/lcdc_rgba888_mxt_9x60_wvga/debug/_ext/305146849/legato_error.o
 .comment       0x00000000       0x2c build/lcdc_rgba888_mxt_9x60_wvga/debug/_ext/305146849/legato_error.o
 .ARM.attributes
                0x00000000       0x32 build/lcdc_rgba888_mxt_9x60_wvga/debug/_ext/305146849/legato_error.o
 .text          0x00000000        0x0 build/lcdc_rgba888_mxt_9x60_wvga/debug/_ext/305146849/legato_color.o
 .data          0x00000000        0x0 build/lcdc_rgba888_mxt_9x60_wvga/debug/_ext/305146849/legato_color.o
 .bss           0x00000000        0x0 build/lcdc_rgba888_mxt_9x60_wvga/debug/_ext/305146849/legato_color.o
 .text.leColorChannelRed
                0x00000000       0x20 build/lcdc_rgba888_mxt_9x60_wvga/debug/_ext/305146849/legato_color.o
 .text.leColorChannelGreen
                0x00000000       0x20 build/lcdc_rgba888_mxt_9x60_wvga/debug/_ext/305146849/legato_color.o
 .text.leColorChannelBlue
                0x00000000       0x20 build/lcdc_rgba888_mxt_9x60_wvga/debug/_ext/305146849/legato_color.o
 .text          0x00000000        0x0 build/lcdc_rgba888_mxt_9x60_wvga/debug/_ext/1618192685/legato_stream.o
 .data          0x00000000        0x0 build/lcdc_rgba888_mxt_9x60_wvga/debug/_ext/1618192685/legato_stream.o
 .bss           0x00000000        0x0 build/lcdc_rgba888_mxt_9x60_wvga/debug/_ext/1618192685/legato_stream.o
 .debug_info    0x00000000      0x42e build/lcdc_rgba888_mxt_9x60_wvga/debug/_ext/1618192685/legato_stream.o
 .debug_abbrev  0x00000000       0xb5 build/lcdc_rgba888_mxt_9x60_wvga/debug/_ext/1618192685/legato_stream.o
 .debug_aranges
                0x00000000       0x18 build/lcdc_rgba888_mxt_9x60_wvga/debug/_ext/1618192685/legato_stream.o
 .debug_line    0x00000000       0xb8 build/lcdc_rgba888_mxt_9x60_wvga/debug/_ext/1618192685/legato_stream.o
 .debug_str     0x00000000        0x9 build/lcdc_rgba888_mxt_9x60_wvga/debug/_ext/1618192685/legato_stream.o
 .comment       0x00000000       0x2c build/lcdc_rgba888_mxt_9x60_wvga/debug/_ext/1618192685/legato_stream.o
 .ARM.attributes
                0x00000000       0x32 build/lcdc_rgba888_mxt_9x60_wvga/debug/_ext/1618192685/legato_stream.o
 .text          0x00000000        0x0 build/lcdc_rgba888_mxt_9x60_wvga/debug/_ext/1618192685/legato_scheme.o
 .data          0x00000000        0x0 build/lcdc_rgba888_mxt_9x60_wvga/debug/_ext/1618192685/legato_scheme.o
 .bss           0x00000000        0x0 build/lcdc_rgba888_mxt_9x60_wvga/debug/_ext/1618192685/legato_scheme.o
 .text.leScheme_Initialize
                0x00000000       0x20 build/lcdc_rgba888_mxt_9x60_wvga/debug/_ext/1618192685/legato_scheme.o
 .text.leScheme_GetColor
                0x00000000       0x1c build/lcdc_rgba888_mxt_9x60_wvga/debug/_ext/1618192685/legato_scheme.o
 .text          0x00000000        0x0 build/lcdc_rgba888_mxt_9x60_wvga/debug/_ext/1618192685/legato_input.o
 .data          0x00000000        0x0 build/lcdc_rgba888_mxt_9x60_wvga/debug/_ext/1618192685/legato_input.o
 .bss           0x00000000        0x0 build/lcdc_rgba888_mxt_9x60_wvga/debug/_ext/1618192685/legato_input.o
 .text._leGetInputState
                0x00000000        0xc build/lcdc_rgba888_mxt_9x60_wvga/debug/_ext/1618192685/legato_input.o
 .text.leInput_Shutdown
                0x00000000        0x4 build/lcdc_rgba888_mxt_9x60_wvga/debug/_ext/1618192685/legato_input.o
 .text.leInput_GetEnabled
                0x00000000       0x10 build/lcdc_rgba888_mxt_9x60_wvga/debug/_ext/1618192685/legato_input.o
 .text.leInput_SetEnabled
                0x00000000       0x14 build/lcdc_rgba888_mxt_9x60_wvga/debug/_ext/1618192685/legato_input.o
 .text          0x00000000        0x0 build/lcdc_rgba888_mxt_9x60_wvga/debug/_ext/1618192685/legato_event.o
 .data          0x00000000        0x0 build/lcdc_rgba888_mxt_9x60_wvga/debug/_ext/1618192685/legato_event.o
 .bss           0x00000000        0x0 build/lcdc_rgba888_mxt_9x60_wvga/debug/_ext/1618192685/legato_event.o
 .text.leEvent_Shutdown
                0x00000000       0x14 build/lcdc_rgba888_mxt_9x60_wvga/debug/_ext/1618192685/legato_event.o
 .text.leEvent_GetCount
                0x00000000       0x10 build/lcdc_rgba888_mxt_9x60_wvga/debug/_ext/1618192685/legato_event.o
 .text.leEvent_SetFilter
                0x00000000       0x14 build/lcdc_rgba888_mxt_9x60_wvga/debug/_ext/1618192685/legato_event.o
 .text.leEvent_ClearList
                0x00000000       0x18 build/lcdc_rgba888_mxt_9x60_wvga/debug/_ext/1618192685/legato_event.o
 .text          0x00000000        0x0 build/lcdc_rgba888_mxt_9x60_wvga/debug/_ext/1618192685/legato_state.o
 .data          0x00000000        0x0 build/lcdc_rgba888_mxt_9x60_wvga/debug/_ext/1618192685/legato_state.o
 .bss           0x00000000        0x0 build/lcdc_rgba888_mxt_9x60_wvga/debug/_ext/1618192685/legato_state.o
 .text.updateWidgetLanguage
                0x00000000       0x44 build/lcdc_rgba888_mxt_9x60_wvga/debug/_ext/1618192685/legato_state.o
 .text.leShutdown
                0x00000000       0x9c build/lcdc_rgba888_mxt_9x60_wvga/debug/_ext/1618192685/legato_state.o
 .text.leLayerCount
                0x00000000       0x24 build/lcdc_rgba888_mxt_9x60_wvga/debug/_ext/1618192685/legato_state.o
 .text.leRemoveLayer
                0x00000000       0x84 build/lcdc_rgba888_mxt_9x60_wvga/debug/_ext/1618192685/legato_state.o
 .text.leSetLayerRenderHorizontal
                0x00000000       0x5c build/lcdc_rgba888_mxt_9x60_wvga/debug/_ext/1618192685/legato_state.o
 .text.leGetLayerClearMode
                0x00000000       0x54 build/lcdc_rgba888_mxt_9x60_wvga/debug/_ext/1618192685/legato_state.o
 .text.leSetLayerClearMode
                0x00000000       0x5c build/lcdc_rgba888_mxt_9x60_wvga/debug/_ext/1618192685/legato_state.o
 .text.leGetStringTable
                0x00000000       0x10 build/lcdc_rgba888_mxt_9x60_wvga/debug/_ext/1618192685/legato_state.o
 .text.leGetStringLanguage
                0x00000000       0x10 build/lcdc_rgba888_mxt_9x60_wvga/debug/_ext/1618192685/legato_state.o
 .text.leSetStringLanguage
                0x00000000       0x5c build/lcdc_rgba888_mxt_9x60_wvga/debug/_ext/1618192685/legato_state.o
 .text.leGetDefaultScheme
                0x00000000        0xc build/lcdc_rgba888_mxt_9x60_wvga/debug/_ext/1618192685/legato_state.o
 .text.leEdit_StartEdit
                0x00000000       0x30 build/lcdc_rgba888_mxt_9x60_wvga/debug/_ext/1618192685/legato_state.o
 .text.leEdit_EndEdit
                0x00000000       0x28 build/lcdc_rgba888_mxt_9x60_wvga/debug/_ext/1618192685/legato_state.o
 .text.leEdit_Clear
                0x00000000       0x28 build/lcdc_rgba888_mxt_9x60_wvga/debug/_ext/1618192685/legato_state.o
 .text.leEdit_Accept
                0x00000000       0x28 build/lcdc_rgba888_mxt_9x60_wvga/debug/_ext/1618192685/legato_state.o
 .text.leEdit_Set
                0x00000000       0x30 build/lcdc_rgba888_mxt_9x60_wvga/debug/_ext/1618192685/legato_state.o
 .text.leEdit_Append
                0x00000000       0x30 build/lcdc_rgba888_mxt_9x60_wvga/debug/_ext/1618192685/legato_state.o
 .text.leEdit_Backspace
                0x00000000       0x28 build/lcdc_rgba888_mxt_9x60_wvga/debug/_ext/1618192685/legato_state.o
 .text          0x00000000        0x0 build/lcdc_rgba888_mxt_9x60_wvga/debug/_ext/109670485/legato_list.o
 .data          0x00000000        0x0 build/lcdc_rgba888_mxt_9x60_wvga/debug/_ext/109670485/legato_list.o
 .bss           0x00000000        0x0 build/lcdc_rgba888_mxt_9x60_wvga/debug/_ext/109670485/legato_list.o
 .text.leList_Assign
                0x00000000       0x58 build/lcdc_rgba888_mxt_9x60_wvga/debug/_ext/109670485/legato_list.o
 .text.leList_PushFront
                0x00000000       0x74 build/lcdc_rgba888_mxt_9x60_wvga/debug/_ext/109670485/legato_list.o
 .text.leList_PopFront
                0x00000000       0x5c build/lcdc_rgba888_mxt_9x60_wvga/debug/_ext/109670485/legato_list.o
 .text.leList_Find
                0x00000000       0x6c build/lcdc_rgba888_mxt_9x60_wvga/debug/_ext/109670485/legato_list.o
 .text.leList_InsertAt
                0x00000000       0xc4 build/lcdc_rgba888_mxt_9x60_wvga/debug/_ext/109670485/legato_list.o
 .text.leList_RemoveAt
                0x00000000       0xa0 build/lcdc_rgba888_mxt_9x60_wvga/debug/_ext/109670485/legato_list.o
 .text.leList_Clear
                0x00000000       0x40 build/lcdc_rgba888_mxt_9x60_wvga/debug/_ext/109670485/legato_list.o
 .text.leList_Copy
                0x00000000       0xa8 build/lcdc_rgba888_mxt_9x60_wvga/debug/_ext/109670485/legato_list.o
 .text          0x00000000        0x0 build/lcdc_rgba888_mxt_9x60_wvga/debug/_ext/109670485/legato_rectarray.o
 .data          0x00000000        0x0 build/lcdc_rgba888_mxt_9x60_wvga/debug/_ext/109670485/legato_rectarray.o
 .bss           0x00000000        0x0 build/lcdc_rgba888_mxt_9x60_wvga/debug/_ext/109670485/legato_rectarray.o
 .text._shuffleRight
                0x00000000       0xa4 build/lcdc_rgba888_mxt_9x60_wvga/debug/_ext/109670485/legato_rectarray.o
 .text.leRectArray_PushFront
                0x00000000       0x78 build/lcdc_rgba888_mxt_9x60_wvga/debug/_ext/109670485/legato_rectarray.o
 .text.leRectArray_PopFront
                0x00000000       0x38 build/lcdc_rgba888_mxt_9x60_wvga/debug/_ext/109670485/legato_rectarray.o
 .text.leRectArray_PopBack
                0x00000000       0x34 build/lcdc_rgba888_mxt_9x60_wvga/debug/_ext/109670485/legato_rectarray.o
 .text.leRectArray_InsertAt
                0x00000000       0xa8 build/lcdc_rgba888_mxt_9x60_wvga/debug/_ext/109670485/legato_rectarray.o
 .text.leRectArray_PadRectangles
                0x00000000       0x14 build/lcdc_rgba888_mxt_9x60_wvga/debug/_ext/109670485/legato_rectarray.o
 .text.leRectArray_PadRectangleHeight
                0x00000000       0xd8 build/lcdc_rgba888_mxt_9x60_wvga/debug/_ext/109670485/legato_rectarray.o
 .text.leRectArray_CropToArea
                0x00000000       0xd0 build/lcdc_rgba888_mxt_9x60_wvga/debug/_ext/109670485/legato_rectarray.o
 .text          0x00000000        0x0 build/lcdc_rgba888_mxt_9x60_wvga/debug/_ext/109670485/legato_array.o
 .data          0x00000000        0x0 build/lcdc_rgba888_mxt_9x60_wvga/debug/_ext/109670485/legato_array.o
 .bss           0x00000000        0x0 build/lcdc_rgba888_mxt_9x60_wvga/debug/_ext/109670485/legato_array.o
 .text.leArray_PushFront
                0x00000000       0x70 build/lcdc_rgba888_mxt_9x60_wvga/debug/_ext/109670485/legato_array.o
 .text.leArray_PopFront
                0x00000000       0x38 build/lcdc_rgba888_mxt_9x60_wvga/debug/_ext/109670485/legato_array.o
 .text.leArray_PopBack
                0x00000000       0x34 build/lcdc_rgba888_mxt_9x60_wvga/debug/_ext/109670485/legato_array.o
 .text.leArray_Set
                0x00000000       0x1c build/lcdc_rgba888_mxt_9x60_wvga/debug/_ext/109670485/legato_array.o
 .text.leArray_Copy
                0x00000000       0x74 build/lcdc_rgba888_mxt_9x60_wvga/debug/_ext/109670485/legato_array.o
 .text          0x00000000        0x0 build/lcdc_rgba888_mxt_9x60_wvga/debug/_ext/1618103421/legato_font.o
 .data          0x00000000        0x0 build/lcdc_rgba888_mxt_9x60_wvga/debug/_ext/1618103421/legato_font.o
 .bss           0x00000000        0x0 build/lcdc_rgba888_mxt_9x60_wvga/debug/_ext/1618103421/legato_font.o
 .text.leFont_GetGlyphRect
                0x00000000       0x34 build/lcdc_rgba888_mxt_9x60_wvga/debug/_ext/1618103421/legato_font.o
 .text          0x00000000        0x0 build/lcdc_rgba888_mxt_9x60_wvga/debug/_ext/1618103421/legato_rasterfont_liberationmono8.o
 .data          0x00000000        0x0 build/lcdc_rgba888_mxt_9x60_wvga/debug/_ext/1618103421/legato_rasterfont_liberationmono8.o
 .bss           0x00000000        0x0 build/lcdc_rgba888_mxt_9x60_wvga/debug/_ext/1618103421/legato_rasterfont_liberationmono8.o
 .debug_info    0x00000000      0x442 build/lcdc_rgba888_mxt_9x60_wvga/debug/_ext/1618103421/legato_rasterfont_liberationmono8.o
 .debug_abbrev  0x00000000       0xb5 build/lcdc_rgba888_mxt_9x60_wvga/debug/_ext/1618103421/legato_rasterfont_liberationmono8.o
 .debug_aranges
                0x00000000       0x18 build/lcdc_rgba888_mxt_9x60_wvga/debug/_ext/1618103421/legato_rasterfont_liberationmono8.o
 .debug_line    0x00000000       0xb8 build/lcdc_rgba888_mxt_9x60_wvga/debug/_ext/1618103421/legato_rasterfont_liberationmono8.o
 .debug_str     0x00000000        0x9 build/lcdc_rgba888_mxt_9x60_wvga/debug/_ext/1618103421/legato_rasterfont_liberationmono8.o
 .comment       0x00000000       0x2c build/lcdc_rgba888_mxt_9x60_wvga/debug/_ext/1618103421/legato_rasterfont_liberationmono8.o
 .ARM.attributes
                0x00000000       0x32 build/lcdc_rgba888_mxt_9x60_wvga/debug/_ext/1618103421/legato_rasterfont_liberationmono8.o
 .text          0x00000000        0x0 build/lcdc_rgba888_mxt_9x60_wvga/debug/_ext/1618103421/legato_rasterfont_stream.o
 .data          0x00000000        0x0 build/lcdc_rgba888_mxt_9x60_wvga/debug/_ext/1618103421/legato_rasterfont_stream.o
 .bss           0x00000000        0x0 build/lcdc_rgba888_mxt_9x60_wvga/debug/_ext/1618103421/legato_rasterfont_stream.o
 .debug_info    0x00000000      0xcc9 build/lcdc_rgba888_mxt_9x60_wvga/debug/_ext/1618103421/legato_rasterfont_stream.o
 .debug_abbrev  0x00000000      0x17b build/lcdc_rgba888_mxt_9x60_wvga/debug/_ext/1618103421/legato_rasterfont_stream.o
 .debug_aranges
                0x00000000       0x18 build/lcdc_rgba888_mxt_9x60_wvga/debug/_ext/1618103421/legato_rasterfont_stream.o
 .debug_line    0x00000000      0x10d build/lcdc_rgba888_mxt_9x60_wvga/debug/_ext/1618103421/legato_rasterfont_stream.o
 .debug_str     0x00000000       0x8b build/lcdc_rgba888_mxt_9x60_wvga/debug/_ext/1618103421/legato_rasterfont_stream.o
 .comment       0x00000000       0x2c build/lcdc_rgba888_mxt_9x60_wvga/debug/_ext/1618103421/legato_rasterfont_stream.o
 .ARM.attributes
                0x00000000       0x32 build/lcdc_rgba888_mxt_9x60_wvga/debug/_ext/1618103421/legato_rasterfont_stream.o
 .text          0x00000000        0x0 build/lcdc_rgba888_mxt_9x60_wvga/debug/_ext/1618103421/legato_rasterfont_liberationmono1.o
 .data          0x00000000        0x0 build/lcdc_rgba888_mxt_9x60_wvga/debug/_ext/1618103421/legato_rasterfont_liberationmono1.o
 .bss           0x00000000        0x0 build/lcdc_rgba888_mxt_9x60_wvga/debug/_ext/1618103421/legato_rasterfont_liberationmono1.o
 .debug_info    0x00000000      0x442 build/lcdc_rgba888_mxt_9x60_wvga/debug/_ext/1618103421/legato_rasterfont_liberationmono1.o
 .debug_abbrev  0x00000000       0xb5 build/lcdc_rgba888_mxt_9x60_wvga/debug/_ext/1618103421/legato_rasterfont_liberationmono1.o
 .debug_aranges
                0x00000000       0x18 build/lcdc_rgba888_mxt_9x60_wvga/debug/_ext/1618103421/legato_rasterfont_liberationmono1.o
 .debug_line    0x00000000       0xb8 build/lcdc_rgba888_mxt_9x60_wvga/debug/_ext/1618103421/legato_rasterfont_liberationmono1.o
 .debug_str     0x00000000        0x9 build/lcdc_rgba888_mxt_9x60_wvga/debug/_ext/1618103421/legato_rasterfont_liberationmono1.o
 .comment       0x00000000       0x2c build/lcdc_rgba888_mxt_9x60_wvga/debug/_ext/1618103421/legato_rasterfont_liberationmono1.o
 .ARM.attributes
                0x00000000       0x32 build/lcdc_rgba888_mxt_9x60_wvga/debug/_ext/1618103421/legato_rasterfont_liberationmono1.o
 .text          0x00000000        0x0 build/lcdc_rgba888_mxt_9x60_wvga/debug/_ext/644506877/le_gen_fonts.o
 .data          0x00000000        0x0 build/lcdc_rgba888_mxt_9x60_wvga/debug/_ext/644506877/le_gen_fonts.o
 .bss           0x00000000        0x0 build/lcdc_rgba888_mxt_9x60_wvga/debug/_ext/644506877/le_gen_fonts.o
 .text          0x00000000        0x0 build/lcdc_rgba888_mxt_9x60_wvga/debug/_ext/1497821479/le_gen_images.o
 .data          0x00000000        0x0 build/lcdc_rgba888_mxt_9x60_wvga/debug/_ext/1497821479/le_gen_images.o
 .bss           0x00000000        0x0 build/lcdc_rgba888_mxt_9x60_wvga/debug/_ext/1497821479/le_gen_images.o
 .text          0x00000000        0x0 build/lcdc_rgba888_mxt_9x60_wvga/debug/_ext/534613472/le_gen_screen_Screen0.o
 .data          0x00000000        0x0 build/lcdc_rgba888_mxt_9x60_wvga/debug/_ext/534613472/le_gen_screen_Screen0.o
 .bss           0x00000000        0x0 build/lcdc_rgba888_mxt_9x60_wvga/debug/_ext/534613472/le_gen_screen_Screen0.o
 .text.screenDestroy_Screen0
                0x00000000       0x20 build/lcdc_rgba888_mxt_9x60_wvga/debug/_ext/534613472/le_gen_screen_Screen0.o
 .text.screenGetRoot_Screen0
                0x00000000       0x74 build/lcdc_rgba888_mxt_9x60_wvga/debug/_ext/534613472/le_gen_screen_Screen0.o
 .text          0x00000000        0x0 build/lcdc_rgba888_mxt_9x60_wvga/debug/_ext/706129189/le_gen_stringtable.o
 .data          0x00000000        0x0 build/lcdc_rgba888_mxt_9x60_wvga/debug/_ext/706129189/le_gen_stringtable.o
 .bss           0x00000000        0x0 build/lcdc_rgba888_mxt_9x60_wvga/debug/_ext/706129189/le_gen_stringtable.o
 .text          0x00000000        0x0 build/lcdc_rgba888_mxt_9x60_wvga/debug/_ext/706129189/le_gen_init.o
 .data          0x00000000        0x0 build/lcdc_rgba888_mxt_9x60_wvga/debug/_ext/706129189/le_gen_init.o
 .bss           0x00000000        0x0 build/lcdc_rgba888_mxt_9x60_wvga/debug/_ext/706129189/le_gen_init.o
 .text.legato_getCurrentScreen
                0x00000000       0x10 build/lcdc_rgba888_mxt_9x60_wvga/debug/_ext/706129189/le_gen_init.o
 .text.legato_isChangingScreens
                0x00000000       0x18 build/lcdc_rgba888_mxt_9x60_wvga/debug/_ext/706129189/le_gen_init.o
 .text          0x00000000        0x0 build/lcdc_rgba888_mxt_9x60_wvga/debug/_ext/706129189/le_gen_harmony.o
 .data          0x00000000        0x0 build/lcdc_rgba888_mxt_9x60_wvga/debug/_ext/706129189/le_gen_harmony.o
 .bss           0x00000000        0x0 build/lcdc_rgba888_mxt_9x60_wvga/debug/_ext/706129189/le_gen_harmony.o
 .text          0x00000000        0x0 build/lcdc_rgba888_mxt_9x60_wvga/debug/_ext/706129189/le_gen_globalpalette.o
 .data          0x00000000        0x0 build/lcdc_rgba888_mxt_9x60_wvga/debug/_ext/706129189/le_gen_globalpalette.o
 .bss           0x00000000        0x0 build/lcdc_rgba888_mxt_9x60_wvga/debug/_ext/706129189/le_gen_globalpalette.o
 .text          0x00000000        0x0 build/lcdc_rgba888_mxt_9x60_wvga/debug/_ext/706129189/le_gen_scheme.o
 .data          0x00000000        0x0 build/lcdc_rgba888_mxt_9x60_wvga/debug/_ext/706129189/le_gen_scheme.o
 .bss           0x00000000        0x0 build/lcdc_rgba888_mxt_9x60_wvga/debug/_ext/706129189/le_gen_scheme.o
 .rodata.GreenScheme
                0x00000000      0x2c8 build/lcdc_rgba888_mxt_9x60_wvga/debug/_ext/706129189/le_gen_scheme.o
 .rodata.RedScheme
                0x00000000      0x2c8 build/lcdc_rgba888_mxt_9x60_wvga/debug/_ext/706129189/le_gen_scheme.o
 .text          0x00000000        0x0 build/lcdc_rgba888_mxt_9x60_wvga/debug/_ext/2086705360/legato_imagedecoder_jpeg.o
 .data          0x00000000        0x0 build/lcdc_rgba888_mxt_9x60_wvga/debug/_ext/2086705360/legato_imagedecoder_jpeg.o
 .bss           0x00000000        0x0 build/lcdc_rgba888_mxt_9x60_wvga/debug/_ext/2086705360/legato_imagedecoder_jpeg.o
 .text          0x00000000        0x0 build/lcdc_rgba888_mxt_9x60_wvga/debug/_ext/2086705360/legato_imagedecoder_jpeg_common.o
 .data          0x00000000        0x0 build/lcdc_rgba888_mxt_9x60_wvga/debug/_ext/2086705360/legato_imagedecoder_jpeg_common.o
 .bss           0x00000000        0x0 build/lcdc_rgba888_mxt_9x60_wvga/debug/_ext/2086705360/legato_imagedecoder_jpeg_common.o
 .text.JPEG_bInterpretResourceHeader
                0x00000000       0x3c build/lcdc_rgba888_mxt_9x60_wvga/debug/_ext/2086705360/legato_imagedecoder_jpeg_common.o
 .bss.JPEG_JpegDecoder
                0x00000000      0xa10 build/lcdc_rgba888_mxt_9x60_wvga/debug/_ext/2086705360/legato_imagedecoder_jpeg_common.o
 .text          0x00000000        0x0 build/lcdc_rgba888_mxt_9x60_wvga/debug/_ext/2086705360/jidctint.o
 .data          0x00000000        0x0 build/lcdc_rgba888_mxt_9x60_wvga/debug/_ext/2086705360/jidctint.o
 .bss           0x00000000        0x0 build/lcdc_rgba888_mxt_9x60_wvga/debug/_ext/2086705360/jidctint.o
 .text          0x00000000        0x0 build/lcdc_rgba888_mxt_9x60_wvga/debug/_ext/2086794059/legato_imagedecoder_mono_read_internal.o
 .data          0x00000000        0x0 build/lcdc_rgba888_mxt_9x60_wvga/debug/_ext/2086794059/legato_imagedecoder_mono_read_internal.o
 .bss           0x00000000        0x0 build/lcdc_rgba888_mxt_9x60_wvga/debug/_ext/2086794059/legato_imagedecoder_mono_read_internal.o
 .text          0x00000000        0x0 build/lcdc_rgba888_mxt_9x60_wvga/debug/_ext/2086794059/legato_imagedecoder_mono_read_stream.o
 .data          0x00000000        0x0 build/lcdc_rgba888_mxt_9x60_wvga/debug/_ext/2086794059/legato_imagedecoder_mono_read_stream.o
 .bss           0x00000000        0x0 build/lcdc_rgba888_mxt_9x60_wvga/debug/_ext/2086794059/legato_imagedecoder_mono_read_stream.o
 .debug_info    0x00000000      0x44b build/lcdc_rgba888_mxt_9x60_wvga/debug/_ext/2086794059/legato_imagedecoder_mono_read_stream.o
 .debug_abbrev  0x00000000       0xb5 build/lcdc_rgba888_mxt_9x60_wvga/debug/_ext/2086794059/legato_imagedecoder_mono_read_stream.o
 .debug_aranges
                0x00000000       0x18 build/lcdc_rgba888_mxt_9x60_wvga/debug/_ext/2086794059/legato_imagedecoder_mono_read_stream.o
 .debug_line    0x00000000       0xb8 build/lcdc_rgba888_mxt_9x60_wvga/debug/_ext/2086794059/legato_imagedecoder_mono_read_stream.o
 .debug_str     0x00000000        0x9 build/lcdc_rgba888_mxt_9x60_wvga/debug/_ext/2086794059/legato_imagedecoder_mono_read_stream.o
 .comment       0x00000000       0x2c build/lcdc_rgba888_mxt_9x60_wvga/debug/_ext/2086794059/legato_imagedecoder_mono_read_stream.o
 .ARM.attributes
                0x00000000       0x32 build/lcdc_rgba888_mxt_9x60_wvga/debug/_ext/2086794059/legato_imagedecoder_mono_read_stream.o
 .text          0x00000000        0x0 build/lcdc_rgba888_mxt_9x60_wvga/debug/_ext/2086794059/legato_imagedecoder_mono.o
 .data          0x00000000        0x0 build/lcdc_rgba888_mxt_9x60_wvga/debug/_ext/2086794059/legato_imagedecoder_mono.o
 .bss           0x00000000        0x0 build/lcdc_rgba888_mxt_9x60_wvga/debug/_ext/2086794059/legato_imagedecoder_mono.o
 .text          0x00000000        0x0 build/lcdc_rgba888_mxt_9x60_wvga/debug/_ext/1872343871/lodepng.o
 .data          0x00000000        0x0 build/lcdc_rgba888_mxt_9x60_wvga/debug/_ext/1872343871/lodepng.o
 .bss           0x00000000        0x0 build/lcdc_rgba888_mxt_9x60_wvga/debug/_ext/1872343871/lodepng.o
 .text.lodepng_decompress_settings_init
                0x00000000       0x18 build/lcdc_rgba888_mxt_9x60_wvga/debug/_ext/1872343871/lodepng.o
 .text.lodepng_chunk_length
                0x00000000        0xc build/lcdc_rgba888_mxt_9x60_wvga/debug/_ext/1872343871/lodepng.o
 .text.lodepng_chunk_type
                0x00000000       0x28 build/lcdc_rgba888_mxt_9x60_wvga/debug/_ext/1872343871/lodepng.o
 .text.lodepng_chunk_ancillary
                0x00000000       0x10 build/lcdc_rgba888_mxt_9x60_wvga/debug/_ext/1872343871/lodepng.o
 .text.lodepng_chunk_private
                0x00000000       0x10 build/lcdc_rgba888_mxt_9x60_wvga/debug/_ext/1872343871/lodepng.o
 .text.lodepng_chunk_safetocopy
                0x00000000       0x10 build/lcdc_rgba888_mxt_9x60_wvga/debug/_ext/1872343871/lodepng.o
 .text.lodepng_chunk_data
                0x00000000        0x8 build/lcdc_rgba888_mxt_9x60_wvga/debug/_ext/1872343871/lodepng.o
 .text.lodepng_chunk_data_const
                0x00000000        0x8 build/lcdc_rgba888_mxt_9x60_wvga/debug/_ext/1872343871/lodepng.o
 .text.lodepng_chunk_generate_crc
                0x00000000       0x44 build/lcdc_rgba888_mxt_9x60_wvga/debug/_ext/1872343871/lodepng.o
 .text.lodepng_chunk_next
                0x00000000       0x18 build/lcdc_rgba888_mxt_9x60_wvga/debug/_ext/1872343871/lodepng.o
 .text.lodepng_chunk_create
                0x00000000       0xe8 build/lcdc_rgba888_mxt_9x60_wvga/debug/_ext/1872343871/lodepng.o
 .text.lodepng_color_mode_cleanup
                0x00000000        0xc build/lcdc_rgba888_mxt_9x60_wvga/debug/_ext/1872343871/lodepng.o
 .text.lodepng_palette_add
                0x00000000       0x94 build/lcdc_rgba888_mxt_9x60_wvga/debug/_ext/1872343871/lodepng.o
 .text.lodepng_get_channels
                0x00000000       0x10 build/lcdc_rgba888_mxt_9x60_wvga/debug/_ext/1872343871/lodepng.o
 .text.lodepng_is_greyscale_type
                0x00000000       0x14 build/lcdc_rgba888_mxt_9x60_wvga/debug/_ext/1872343871/lodepng.o
 .text.lodepng_is_alpha_type
                0x00000000       0x10 build/lcdc_rgba888_mxt_9x60_wvga/debug/_ext/1872343871/lodepng.o
 .text.lodepng_is_palette_type
                0x00000000       0x14 build/lcdc_rgba888_mxt_9x60_wvga/debug/_ext/1872343871/lodepng.o
 .text.lodepng_has_palette_alpha
                0x00000000       0x58 build/lcdc_rgba888_mxt_9x60_wvga/debug/_ext/1872343871/lodepng.o
 .text.lodepng_can_have_alpha
                0x00000000       0x3c build/lcdc_rgba888_mxt_9x60_wvga/debug/_ext/1872343871/lodepng.o
 .text.lodepng_get_raw_size_lct
                0x00000000       0x3c build/lcdc_rgba888_mxt_9x60_wvga/debug/_ext/1872343871/lodepng.o
 .text.lodepng_clear_text
                0x00000000        0xc build/lcdc_rgba888_mxt_9x60_wvga/debug/_ext/1872343871/lodepng.o
 .text.lodepng_clear_itext
                0x00000000        0xc build/lcdc_rgba888_mxt_9x60_wvga/debug/_ext/1872343871/lodepng.o
 .text.lodepng_info_copy
                0x00000000      0x1c8 build/lcdc_rgba888_mxt_9x60_wvga/debug/_ext/1872343871/lodepng.o
 .text.lodepng_info_swap
                0x00000000       0x4c build/lcdc_rgba888_mxt_9x60_wvga/debug/_ext/1872343871/lodepng.o
 .text.lodepng_decode32
                0x00000000       0x2c build/lcdc_rgba888_mxt_9x60_wvga/debug/_ext/1872343871/lodepng.o
 .text.lodepng_decode24
                0x00000000       0x2c build/lcdc_rgba888_mxt_9x60_wvga/debug/_ext/1872343871/lodepng.o
 .text.lodepng_state_copy
                0x00000000       0x64 build/lcdc_rgba888_mxt_9x60_wvga/debug/_ext/1872343871/lodepng.o
 .bss.lodepng_default_decompress_settings
                0x00000000       0x10 build/lcdc_rgba888_mxt_9x60_wvga/debug/_ext/1872343871/lodepng.o
 .data.LODEPNG_VERSION_STRING
                0x00000000        0x4 build/lcdc_rgba888_mxt_9x60_wvga/debug/_ext/1872343871/lodepng.o
 .text          0x00000000        0x0 build/lcdc_rgba888_mxt_9x60_wvga/debug/_ext/1872343871/legato_imagedecoder_png.o
 .data          0x00000000        0x0 build/lcdc_rgba888_mxt_9x60_wvga/debug/_ext/1872343871/legato_imagedecoder_png.o
 .bss           0x00000000        0x0 build/lcdc_rgba888_mxt_9x60_wvga/debug/_ext/1872343871/legato_imagedecoder_png.o
 .text          0x00000000        0x0 build/lcdc_rgba888_mxt_9x60_wvga/debug/_ext/1872342336/legato_imagedecoder_raw_read_stream_rlecolor.o
 .data          0x00000000        0x0 build/lcdc_rgba888_mxt_9x60_wvga/debug/_ext/1872342336/legato_imagedecoder_raw_read_stream_rlecolor.o
 .bss           0x00000000        0x0 build/lcdc_rgba888_mxt_9x60_wvga/debug/_ext/1872342336/legato_imagedecoder_raw_read_stream_rlecolor.o
 .debug_info    0x00000000      0x452 build/lcdc_rgba888_mxt_9x60_wvga/debug/_ext/1872342336/legato_imagedecoder_raw_read_stream_rlecolor.o
 .debug_abbrev  0x00000000       0xb5 build/lcdc_rgba888_mxt_9x60_wvga/debug/_ext/1872342336/legato_imagedecoder_raw_read_stream_rlecolor.o
 .debug_aranges
                0x00000000       0x18 build/lcdc_rgba888_mxt_9x60_wvga/debug/_ext/1872342336/legato_imagedecoder_raw_read_stream_rlecolor.o
 .debug_line    0x00000000       0xb8 build/lcdc_rgba888_mxt_9x60_wvga/debug/_ext/1872342336/legato_imagedecoder_raw_read_stream_rlecolor.o
 .debug_str     0x00000000        0x9 build/lcdc_rgba888_mxt_9x60_wvga/debug/_ext/1872342336/legato_imagedecoder_raw_read_stream_rlecolor.o
 .comment       0x00000000       0x2c build/lcdc_rgba888_mxt_9x60_wvga/debug/_ext/1872342336/legato_imagedecoder_raw_read_stream_rlecolor.o
 .ARM.attributes
                0x00000000       0x32 build/lcdc_rgba888_mxt_9x60_wvga/debug/_ext/1872342336/legato_imagedecoder_raw_read_stream_rlecolor.o
 .text          0x00000000        0x0 build/lcdc_rgba888_mxt_9x60_wvga/debug/_ext/1872342336/legato_imagedecoder_raw_read_internal.o
 .data          0x00000000        0x0 build/lcdc_rgba888_mxt_9x60_wvga/debug/_ext/1872342336/legato_imagedecoder_raw_read_internal.o
 .bss           0x00000000        0x0 build/lcdc_rgba888_mxt_9x60_wvga/debug/_ext/1872342336/legato_imagedecoder_raw_read_internal.o
 .text          0x00000000        0x0 build/lcdc_rgba888_mxt_9x60_wvga/debug/_ext/1872342336/legato_imagedecoder_raw_read_stream_color.o
 .data          0x00000000        0x0 build/lcdc_rgba888_mxt_9x60_wvga/debug/_ext/1872342336/legato_imagedecoder_raw_read_stream_color.o
 .bss           0x00000000        0x0 build/lcdc_rgba888_mxt_9x60_wvga/debug/_ext/1872342336/legato_imagedecoder_raw_read_stream_color.o
 .debug_info    0x00000000      0x44f build/lcdc_rgba888_mxt_9x60_wvga/debug/_ext/1872342336/legato_imagedecoder_raw_read_stream_color.o
 .debug_abbrev  0x00000000       0xb5 build/lcdc_rgba888_mxt_9x60_wvga/debug/_ext/1872342336/legato_imagedecoder_raw_read_stream_color.o
 .debug_aranges
                0x00000000       0x18 build/lcdc_rgba888_mxt_9x60_wvga/debug/_ext/1872342336/legato_imagedecoder_raw_read_stream_color.o
 .debug_line    0x00000000       0xb8 build/lcdc_rgba888_mxt_9x60_wvga/debug/_ext/1872342336/legato_imagedecoder_raw_read_stream_color.o
 .debug_str     0x00000000        0x9 build/lcdc_rgba888_mxt_9x60_wvga/debug/_ext/1872342336/legato_imagedecoder_raw_read_stream_color.o
 .comment       0x00000000       0x2c build/lcdc_rgba888_mxt_9x60_wvga/debug/_ext/1872342336/legato_imagedecoder_raw_read_stream_color.o
 .ARM.attributes
                0x00000000       0x32 build/lcdc_rgba888_mxt_9x60_wvga/debug/_ext/1872342336/legato_imagedecoder_raw_read_stream_color.o
 .text          0x00000000        0x0 build/lcdc_rgba888_mxt_9x60_wvga/debug/_ext/1872342336/legato_imagedecoder_raw_scale.o
 .data          0x00000000        0x0 build/lcdc_rgba888_mxt_9x60_wvga/debug/_ext/1872342336/legato_imagedecoder_raw_scale.o
 .bss           0x00000000        0x0 build/lcdc_rgba888_mxt_9x60_wvga/debug/_ext/1872342336/legato_imagedecoder_raw_scale.o
 .text          0x00000000        0x0 build/lcdc_rgba888_mxt_9x60_wvga/debug/_ext/1872342336/legato_imagedecoder_raw_read_stream_rleindex.o
 .data          0x00000000        0x0 build/lcdc_rgba888_mxt_9x60_wvga/debug/_ext/1872342336/legato_imagedecoder_raw_read_stream_rleindex.o
 .bss           0x00000000        0x0 build/lcdc_rgba888_mxt_9x60_wvga/debug/_ext/1872342336/legato_imagedecoder_raw_read_stream_rleindex.o
 .debug_info    0x00000000      0x452 build/lcdc_rgba888_mxt_9x60_wvga/debug/_ext/1872342336/legato_imagedecoder_raw_read_stream_rleindex.o
 .debug_abbrev  0x00000000       0xb5 build/lcdc_rgba888_mxt_9x60_wvga/debug/_ext/1872342336/legato_imagedecoder_raw_read_stream_rleindex.o
 .debug_aranges
                0x00000000       0x18 build/lcdc_rgba888_mxt_9x60_wvga/debug/_ext/1872342336/legato_imagedecoder_raw_read_stream_rleindex.o
 .debug_line    0x00000000       0xb8 build/lcdc_rgba888_mxt_9x60_wvga/debug/_ext/1872342336/legato_imagedecoder_raw_read_stream_rleindex.o
 .debug_str     0x00000000        0x9 build/lcdc_rgba888_mxt_9x60_wvga/debug/_ext/1872342336/legato_imagedecoder_raw_read_stream_rleindex.o
 .comment       0x00000000       0x2c build/lcdc_rgba888_mxt_9x60_wvga/debug/_ext/1872342336/legato_imagedecoder_raw_read_stream_rleindex.o
 .ARM.attributes
                0x00000000       0x32 build/lcdc_rgba888_mxt_9x60_wvga/debug/_ext/1872342336/legato_imagedecoder_raw_read_stream_rleindex.o
 .text          0x00000000        0x0 build/lcdc_rgba888_mxt_9x60_wvga/debug/_ext/1872342336/legato_imagedecoder_raw.o
 .data          0x00000000        0x0 build/lcdc_rgba888_mxt_9x60_wvga/debug/_ext/1872342336/legato_imagedecoder_raw.o
 .bss           0x00000000        0x0 build/lcdc_rgba888_mxt_9x60_wvga/debug/_ext/1872342336/legato_imagedecoder_raw.o
 .text          0x00000000        0x0 build/lcdc_rgba888_mxt_9x60_wvga/debug/_ext/1872342336/legato_imagedecoder_raw_rotate.o
 .data          0x00000000        0x0 build/lcdc_rgba888_mxt_9x60_wvga/debug/_ext/1872342336/legato_imagedecoder_raw_rotate.o
 .bss           0x00000000        0x0 build/lcdc_rgba888_mxt_9x60_wvga/debug/_ext/1872342336/legato_imagedecoder_raw_rotate.o
 .text          0x00000000        0x0 build/lcdc_rgba888_mxt_9x60_wvga/debug/_ext/1872342336/legato_imagedecoder_raw_mask.o
 .data          0x00000000        0x0 build/lcdc_rgba888_mxt_9x60_wvga/debug/_ext/1872342336/legato_imagedecoder_raw_mask.o
 .bss           0x00000000        0x0 build/lcdc_rgba888_mxt_9x60_wvga/debug/_ext/1872342336/legato_imagedecoder_raw_mask.o
 .text          0x00000000        0x0 build/lcdc_rgba888_mxt_9x60_wvga/debug/_ext/1872342336/legato_imagedecoder_raw_write.o
 .data          0x00000000        0x0 build/lcdc_rgba888_mxt_9x60_wvga/debug/_ext/1872342336/legato_imagedecoder_raw_write.o
 .bss           0x00000000        0x0 build/lcdc_rgba888_mxt_9x60_wvga/debug/_ext/1872342336/legato_imagedecoder_raw_write.o
 .text          0x00000000        0x0 build/lcdc_rgba888_mxt_9x60_wvga/debug/_ext/1872342336/legato_imagedecoder_raw_palette_stream.o
 .data          0x00000000        0x0 build/lcdc_rgba888_mxt_9x60_wvga/debug/_ext/1872342336/legato_imagedecoder_raw_palette_stream.o
 .bss           0x00000000        0x0 build/lcdc_rgba888_mxt_9x60_wvga/debug/_ext/1872342336/legato_imagedecoder_raw_palette_stream.o
 .debug_info    0x00000000      0xcdc build/lcdc_rgba888_mxt_9x60_wvga/debug/_ext/1872342336/legato_imagedecoder_raw_palette_stream.o
 .debug_abbrev  0x00000000      0x17b build/lcdc_rgba888_mxt_9x60_wvga/debug/_ext/1872342336/legato_imagedecoder_raw_palette_stream.o
 .debug_aranges
                0x00000000       0x18 build/lcdc_rgba888_mxt_9x60_wvga/debug/_ext/1872342336/legato_imagedecoder_raw_palette_stream.o
 .debug_line    0x00000000      0x10d build/lcdc_rgba888_mxt_9x60_wvga/debug/_ext/1872342336/legato_imagedecoder_raw_palette_stream.o
 .debug_str     0x00000000       0x8b build/lcdc_rgba888_mxt_9x60_wvga/debug/_ext/1872342336/legato_imagedecoder_raw_palette_stream.o
 .comment       0x00000000       0x2c build/lcdc_rgba888_mxt_9x60_wvga/debug/_ext/1872342336/legato_imagedecoder_raw_palette_stream.o
 .ARM.attributes
                0x00000000       0x32 build/lcdc_rgba888_mxt_9x60_wvga/debug/_ext/1872342336/legato_imagedecoder_raw_palette_stream.o
 .text          0x00000000        0x0 build/lcdc_rgba888_mxt_9x60_wvga/debug/_ext/1872342336/legato_imagedecoder_raw_palette_internal.o
 .data          0x00000000        0x0 build/lcdc_rgba888_mxt_9x60_wvga/debug/_ext/1872342336/legato_imagedecoder_raw_palette_internal.o
 .bss           0x00000000        0x0 build/lcdc_rgba888_mxt_9x60_wvga/debug/_ext/1872342336/legato_imagedecoder_raw_palette_internal.o
 .text          0x00000000        0x0 build/lcdc_rgba888_mxt_9x60_wvga/debug/_ext/1872342336/legato_imagedecoder_raw_setup.o
 .data          0x00000000        0x0 build/lcdc_rgba888_mxt_9x60_wvga/debug/_ext/1872342336/legato_imagedecoder_raw_setup.o
 .bss           0x00000000        0x0 build/lcdc_rgba888_mxt_9x60_wvga/debug/_ext/1872342336/legato_imagedecoder_raw_setup.o
 .text          0x00000000        0x0 build/lcdc_rgba888_mxt_9x60_wvga/debug/_ext/1872342336/legato_imagedecoder_raw_blend.o
 .data          0x00000000        0x0 build/lcdc_rgba888_mxt_9x60_wvga/debug/_ext/1872342336/legato_imagedecoder_raw_blend.o
 .bss           0x00000000        0x0 build/lcdc_rgba888_mxt_9x60_wvga/debug/_ext/1872342336/legato_imagedecoder_raw_blend.o
 .text          0x00000000        0x0 build/lcdc_rgba888_mxt_9x60_wvga/debug/_ext/1872342336/legato_imagedecoder_raw_read_stream_index.o
 .data          0x00000000        0x0 build/lcdc_rgba888_mxt_9x60_wvga/debug/_ext/1872342336/legato_imagedecoder_raw_read_stream_index.o
 .bss           0x00000000        0x0 build/lcdc_rgba888_mxt_9x60_wvga/debug/_ext/1872342336/legato_imagedecoder_raw_read_stream_index.o
 .debug_info    0x00000000      0x44f build/lcdc_rgba888_mxt_9x60_wvga/debug/_ext/1872342336/legato_imagedecoder_raw_read_stream_index.o
 .debug_abbrev  0x00000000       0xb5 build/lcdc_rgba888_mxt_9x60_wvga/debug/_ext/1872342336/legato_imagedecoder_raw_read_stream_index.o
 .debug_aranges
                0x00000000       0x18 build/lcdc_rgba888_mxt_9x60_wvga/debug/_ext/1872342336/legato_imagedecoder_raw_read_stream_index.o
 .debug_line    0x00000000       0xb8 build/lcdc_rgba888_mxt_9x60_wvga/debug/_ext/1872342336/legato_imagedecoder_raw_read_stream_index.o
 .debug_str     0x00000000        0x9 build/lcdc_rgba888_mxt_9x60_wvga/debug/_ext/1872342336/legato_imagedecoder_raw_read_stream_index.o
 .comment       0x00000000       0x2c build/lcdc_rgba888_mxt_9x60_wvga/debug/_ext/1872342336/legato_imagedecoder_raw_read_stream_index.o
 .ARM.attributes
                0x00000000       0x32 build/lcdc_rgba888_mxt_9x60_wvga/debug/_ext/1872342336/legato_imagedecoder_raw_read_stream_index.o
 .text          0x00000000        0x0 build/lcdc_rgba888_mxt_9x60_wvga/debug/_ext/1872342336/legato_imagedecoder_raw_convert.o
 .data          0x00000000        0x0 build/lcdc_rgba888_mxt_9x60_wvga/debug/_ext/1872342336/legato_imagedecoder_raw_convert.o
 .bss           0x00000000        0x0 build/lcdc_rgba888_mxt_9x60_wvga/debug/_ext/1872342336/legato_imagedecoder_raw_convert.o
 .text          0x00000000        0x0 build/lcdc_rgba888_mxt_9x60_wvga/debug/_ext/1381099687/legato_image.o
 .data          0x00000000        0x0 build/lcdc_rgba888_mxt_9x60_wvga/debug/_ext/1381099687/legato_image.o
 .bss           0x00000000        0x0 build/lcdc_rgba888_mxt_9x60_wvga/debug/_ext/1381099687/legato_image.o
 .text.leImage_Free
                0x00000000       0x40 build/lcdc_rgba888_mxt_9x60_wvga/debug/_ext/1381099687/legato_image.o
 .text.leImage_Resize
                0x00000000      0x10c build/lcdc_rgba888_mxt_9x60_wvga/debug/_ext/1381099687/legato_image.o
 .text.leImage_ResizeDraw
                0x00000000       0xc4 build/lcdc_rgba888_mxt_9x60_wvga/debug/_ext/1381099687/legato_image.o
 .text.leImage_Copy
                0x00000000       0xac build/lcdc_rgba888_mxt_9x60_wvga/debug/_ext/1381099687/legato_image.o
 .text.leImage_Render
                0x00000000       0xbc build/lcdc_rgba888_mxt_9x60_wvga/debug/_ext/1381099687/legato_image.o
 .text.leImage_Rotate
                0x00000000       0xb4 build/lcdc_rgba888_mxt_9x60_wvga/debug/_ext/1381099687/legato_image.o
 .text.leImage_RotateDraw
                0x00000000       0xbc build/lcdc_rgba888_mxt_9x60_wvga/debug/_ext/1381099687/legato_image.o
 .text.leProcessImage
                0x00000000       0x9c build/lcdc_rgba888_mxt_9x60_wvga/debug/_ext/1381099687/legato_image.o
 .text          0x00000000        0x0 build/lcdc_rgba888_mxt_9x60_wvga/debug/_ext/1381099687/legato_image_utils.o
 .data          0x00000000        0x0 build/lcdc_rgba888_mxt_9x60_wvga/debug/_ext/1381099687/legato_image_utils.o
 .bss           0x00000000        0x0 build/lcdc_rgba888_mxt_9x60_wvga/debug/_ext/1381099687/legato_image_utils.o
 .text          0x00000000        0x0 build/lcdc_rgba888_mxt_9x60_wvga/debug/_ext/1381099687/legato_palette.o
 .data          0x00000000        0x0 build/lcdc_rgba888_mxt_9x60_wvga/debug/_ext/1381099687/legato_palette.o
 .bss           0x00000000        0x0 build/lcdc_rgba888_mxt_9x60_wvga/debug/_ext/1381099687/legato_palette.o
 .text.lePalette_GetColor
                0x00000000       0x3c build/lcdc_rgba888_mxt_9x60_wvga/debug/_ext/1381099687/legato_palette.o
 .debug_info    0x00000000      0x8a1 build/lcdc_rgba888_mxt_9x60_wvga/debug/_ext/1381099687/legato_palette.o
 .debug_abbrev  0x00000000      0x1a8 build/lcdc_rgba888_mxt_9x60_wvga/debug/_ext/1381099687/legato_palette.o
 .debug_loc     0x00000000       0xaa build/lcdc_rgba888_mxt_9x60_wvga/debug/_ext/1381099687/legato_palette.o
 .debug_aranges
                0x00000000       0x20 build/lcdc_rgba888_mxt_9x60_wvga/debug/_ext/1381099687/legato_palette.o
 .debug_ranges  0x00000000       0x10 build/lcdc_rgba888_mxt_9x60_wvga/debug/_ext/1381099687/legato_palette.o
 .debug_line    0x00000000      0x1c3 build/lcdc_rgba888_mxt_9x60_wvga/debug/_ext/1381099687/legato_palette.o
 .debug_str     0x00000000       0x51 build/lcdc_rgba888_mxt_9x60_wvga/debug/_ext/1381099687/legato_palette.o
 .comment       0x00000000       0x2c build/lcdc_rgba888_mxt_9x60_wvga/debug/_ext/1381099687/legato_palette.o
 .debug_frame   0x00000000       0x2c build/lcdc_rgba888_mxt_9x60_wvga/debug/_ext/1381099687/legato_palette.o
 .ARM.attributes
                0x00000000       0x2c build/lcdc_rgba888_mxt_9x60_wvga/debug/_ext/1381099687/legato_palette.o
 .text          0x00000000        0x0 build/lcdc_rgba888_mxt_9x60_wvga/debug/_ext/28088523/legato_fixedheap.o
 .data          0x00000000        0x0 build/lcdc_rgba888_mxt_9x60_wvga/debug/_ext/28088523/legato_fixedheap.o
 .bss           0x00000000        0x0 build/lcdc_rgba888_mxt_9x60_wvga/debug/_ext/28088523/legato_fixedheap.o
 .text.leFixedHeap_Destroy
                0x00000000       0x34 build/lcdc_rgba888_mxt_9x60_wvga/debug/_ext/28088523/legato_fixedheap.o
 .text.leFixedHeap_Validate
                0x00000000        0x8 build/lcdc_rgba888_mxt_9x60_wvga/debug/_ext/28088523/legato_fixedheap.o
 .text          0x00000000        0x0 build/lcdc_rgba888_mxt_9x60_wvga/debug/_ext/28088523/legato_memory.o
 .data          0x00000000        0x0 build/lcdc_rgba888_mxt_9x60_wvga/debug/_ext/28088523/legato_memory.o
 .bss           0x00000000        0x0 build/lcdc_rgba888_mxt_9x60_wvga/debug/_ext/28088523/legato_memory.o
 .text.leMemoryGetUsageReport
                0x00000000       0x6c build/lcdc_rgba888_mxt_9x60_wvga/debug/_ext/28088523/legato_memory.o
 .text.leMemoryPrintReport
                0x00000000       0xa4 build/lcdc_rgba888_mxt_9x60_wvga/debug/_ext/28088523/legato_memory.o
 .text.leMemoryValidateHeaps
                0x00000000       0x48 build/lcdc_rgba888_mxt_9x60_wvga/debug/_ext/28088523/legato_memory.o
 .rodata        0x00000000       0xe8 build/lcdc_rgba888_mxt_9x60_wvga/debug/_ext/28088523/legato_memory.o
 .text          0x00000000        0x0 build/lcdc_rgba888_mxt_9x60_wvga/debug/_ext/28088523/legato_variableheap.o
 .data          0x00000000        0x0 build/lcdc_rgba888_mxt_9x60_wvga/debug/_ext/28088523/legato_variableheap.o
 .bss           0x00000000        0x0 build/lcdc_rgba888_mxt_9x60_wvga/debug/_ext/28088523/legato_variableheap.o
 .text.leVariableHeap_Destroy
                0x00000000       0x14 build/lcdc_rgba888_mxt_9x60_wvga/debug/_ext/28088523/legato_variableheap.o
 .text.leVariableHeap_Used
                0x00000000       0x34 build/lcdc_rgba888_mxt_9x60_wvga/debug/_ext/28088523/legato_variableheap.o
 .text.leVariableHeap_Dump
                0x00000000       0xec build/lcdc_rgba888_mxt_9x60_wvga/debug/_ext/28088523/legato_variableheap.o
 .rodata        0x00000000       0xb8 build/lcdc_rgba888_mxt_9x60_wvga/debug/_ext/28088523/legato_variableheap.o
 .text          0x00000000        0x0 build/lcdc_rgba888_mxt_9x60_wvga/debug/_ext/1081070089/legato_draw_rect.o
 .data          0x00000000        0x0 build/lcdc_rgba888_mxt_9x60_wvga/debug/_ext/1081070089/legato_draw_rect.o
 .bss           0x00000000        0x0 build/lcdc_rgba888_mxt_9x60_wvga/debug/_ext/1081070089/legato_draw_rect.o
 .text.leRenderer_RectLine
                0x00000000       0x98 build/lcdc_rgba888_mxt_9x60_wvga/debug/_ext/1081070089/legato_draw_rect.o
 .text.leRenderer_HorzGradientRect
                0x00000000       0x90 build/lcdc_rgba888_mxt_9x60_wvga/debug/_ext/1081070089/legato_draw_rect.o
 .text.leRenderer_VertGradientRect
                0x00000000       0x90 build/lcdc_rgba888_mxt_9x60_wvga/debug/_ext/1081070089/legato_draw_rect.o
 .text          0x00000000        0x0 build/lcdc_rgba888_mxt_9x60_wvga/debug/_ext/1081070089/legato_draw_line.o
 .data          0x00000000        0x0 build/lcdc_rgba888_mxt_9x60_wvga/debug/_ext/1081070089/legato_draw_line.o
 .bss           0x00000000        0x0 build/lcdc_rgba888_mxt_9x60_wvga/debug/_ext/1081070089/legato_draw_line.o
 .text.leRenderer_DrawLine
                0x00000000      0x118 build/lcdc_rgba888_mxt_9x60_wvga/debug/_ext/1081070089/legato_draw_line.o
 .text.leRenderer_EllipseLine
                0x00000000       0xcc build/lcdc_rgba888_mxt_9x60_wvga/debug/_ext/1081070089/legato_draw_line.o
 .text          0x00000000        0x0 build/lcdc_rgba888_mxt_9x60_wvga/debug/_ext/1081070089/legato_draw_arc.o
 .data          0x00000000        0x0 build/lcdc_rgba888_mxt_9x60_wvga/debug/_ext/1081070089/legato_draw_arc.o
 .bss           0x00000000        0x0 build/lcdc_rgba888_mxt_9x60_wvga/debug/_ext/1081070089/legato_draw_arc.o
 .text.leRenderer_ArcLine
                0x00000000       0x9c build/lcdc_rgba888_mxt_9x60_wvga/debug/_ext/1081070089/legato_draw_arc.o
 .text.leRenderer_CircleDraw
                0x00000000       0x38 build/lcdc_rgba888_mxt_9x60_wvga/debug/_ext/1081070089/legato_draw_arc.o
 .text          0x00000000        0x0 build/lcdc_rgba888_mxt_9x60_wvga/debug/_ext/1081070089/legato_renderer.o
 .data          0x00000000        0x0 build/lcdc_rgba888_mxt_9x60_wvga/debug/_ext/1081070089/legato_renderer.o
 .bss           0x00000000        0x0 build/lcdc_rgba888_mxt_9x60_wvga/debug/_ext/1081070089/legato_renderer.o
 .text.leRenderer_GetDrawCount
                0x00000000       0x10 build/lcdc_rgba888_mxt_9x60_wvga/debug/_ext/1081070089/legato_renderer.o
 .text.leRenderer_GetGlobalPalette
                0x00000000       0x10 build/lcdc_rgba888_mxt_9x60_wvga/debug/_ext/1081070089/legato_renderer.o
 .text.leRenderer_SetGlobalPalette
                0x00000000       0x14 build/lcdc_rgba888_mxt_9x60_wvga/debug/_ext/1081070089/legato_renderer.o
 .text.leRenderer_GlobalPaletteLookup
                0x00000000       0x1c build/lcdc_rgba888_mxt_9x60_wvga/debug/_ext/1081070089/legato_renderer.o
 .text.leRenderer_CullDrawPoint
                0x00000000       0x20 build/lcdc_rgba888_mxt_9x60_wvga/debug/_ext/1081070089/legato_renderer.o
 .text.leRenderer_Shutdown
                0x00000000        0x4 build/lcdc_rgba888_mxt_9x60_wvga/debug/_ext/1081070089/legato_renderer.o
 .text._leRenderer_DestroyLayerState
                0x00000000       0x40 build/lcdc_rgba888_mxt_9x60_wvga/debug/_ext/1081070089/legato_renderer.o
 .text          0x00000000        0x0 build/lcdc_rgba888_mxt_9x60_wvga/debug/_ext/1081070089/legato_draw.o
 .data          0x00000000        0x0 build/lcdc_rgba888_mxt_9x60_wvga/debug/_ext/1081070089/legato_draw.o
 .bss           0x00000000        0x0 build/lcdc_rgba888_mxt_9x60_wvga/debug/_ext/1081070089/legato_draw.o
 .text.leRenderer_GetPixel_Safe
                0x00000000       0x60 build/lcdc_rgba888_mxt_9x60_wvga/debug/_ext/1081070089/legato_draw.o
 .text.leRenderer_PutPixel_Safe
                0x00000000       0x60 build/lcdc_rgba888_mxt_9x60_wvga/debug/_ext/1081070089/legato_draw.o
 .text          0x00000000        0x0 build/lcdc_rgba888_mxt_9x60_wvga/debug/_ext/1081070089/legato_gpu.o
 .data          0x00000000        0x0 build/lcdc_rgba888_mxt_9x60_wvga/debug/_ext/1081070089/legato_gpu.o
 .bss           0x00000000        0x0 build/lcdc_rgba888_mxt_9x60_wvga/debug/_ext/1081070089/legato_gpu.o
 .text          0x00000000        0x0 build/lcdc_rgba888_mxt_9x60_wvga/debug/_ext/157682245/legato_stringutils.o
 .data          0x00000000        0x0 build/lcdc_rgba888_mxt_9x60_wvga/debug/_ext/157682245/legato_stringutils.o
 .bss           0x00000000        0x0 build/lcdc_rgba888_mxt_9x60_wvga/debug/_ext/157682245/legato_stringutils.o
 .text.leStringUtils_FromCStr
                0x00000000       0x68 build/lcdc_rgba888_mxt_9x60_wvga/debug/_ext/157682245/legato_stringutils.o
 .text.leStringUtils_ToCStr
                0x00000000       0x70 build/lcdc_rgba888_mxt_9x60_wvga/debug/_ext/157682245/legato_stringutils.o
 .text.leStringUtils_GetLineCount
                0x00000000       0x40 build/lcdc_rgba888_mxt_9x60_wvga/debug/_ext/157682245/legato_stringutils.o
 .text.leStringUtils_GetLineCountCStr
                0x00000000       0x50 build/lcdc_rgba888_mxt_9x60_wvga/debug/_ext/157682245/legato_stringutils.o
 .text.leStringUtils_GetLineIndices
                0x00000000       0xa0 build/lcdc_rgba888_mxt_9x60_wvga/debug/_ext/157682245/legato_stringutils.o
 .text.leStringUtils_GetLineIndicesCStr
                0x00000000       0xb4 build/lcdc_rgba888_mxt_9x60_wvga/debug/_ext/157682245/legato_stringutils.o
 .text.leStringUtils_GetLineRect
                0x00000000      0x110 build/lcdc_rgba888_mxt_9x60_wvga/debug/_ext/157682245/legato_stringutils.o
 .text.leStringUtils_GetRect
                0x00000000       0xd0 build/lcdc_rgba888_mxt_9x60_wvga/debug/_ext/157682245/legato_stringutils.o
 .text.leStringUtils_GetLineRectCStr
                0x00000000      0x10c build/lcdc_rgba888_mxt_9x60_wvga/debug/_ext/157682245/legato_stringutils.o
 .text.leStringUtils_GetRectCStr
                0x00000000       0xcc build/lcdc_rgba888_mxt_9x60_wvga/debug/_ext/157682245/legato_stringutils.o
 .text.leStringUtils_GetCharRect
                0x00000000       0xe4 build/lcdc_rgba888_mxt_9x60_wvga/debug/_ext/157682245/legato_stringutils.o
 .text.leStringUtils_GetCharRectCStr
                0x00000000       0xec build/lcdc_rgba888_mxt_9x60_wvga/debug/_ext/157682245/legato_stringutils.o
 .text.leStringUtils_GetCharIndexAtPoint
                0x00000000      0x108 build/lcdc_rgba888_mxt_9x60_wvga/debug/_ext/157682245/legato_stringutils.o
 .text.leStringUtils_GetCharIndexAtPointCStr
                0x00000000      0x104 build/lcdc_rgba888_mxt_9x60_wvga/debug/_ext/157682245/legato_stringutils.o
 .text          0x00000000        0x0 build/lcdc_rgba888_mxt_9x60_wvga/debug/_ext/157682245/legato_string.o
 .data          0x00000000        0x0 build/lcdc_rgba888_mxt_9x60_wvga/debug/_ext/157682245/legato_string.o
 .bss           0x00000000        0x0 build/lcdc_rgba888_mxt_9x60_wvga/debug/_ext/157682245/legato_string.o
 .text.leString_Delete
                0x00000000       0x28 build/lcdc_rgba888_mxt_9x60_wvga/debug/_ext/157682245/legato_string.o
 .text          0x00000000        0x0 build/lcdc_rgba888_mxt_9x60_wvga/debug/_ext/157682245/legato_string_renderer_stream.o
 .data          0x00000000        0x0 build/lcdc_rgba888_mxt_9x60_wvga/debug/_ext/157682245/legato_string_renderer_stream.o
 .bss           0x00000000        0x0 build/lcdc_rgba888_mxt_9x60_wvga/debug/_ext/157682245/legato_string_renderer_stream.o
 .debug_info    0x00000000      0xcd0 build/lcdc_rgba888_mxt_9x60_wvga/debug/_ext/157682245/legato_string_renderer_stream.o
 .debug_abbrev  0x00000000      0x17b build/lcdc_rgba888_mxt_9x60_wvga/debug/_ext/157682245/legato_string_renderer_stream.o
 .debug_aranges
                0x00000000       0x18 build/lcdc_rgba888_mxt_9x60_wvga/debug/_ext/157682245/legato_string_renderer_stream.o
 .debug_line    0x00000000      0x10d build/lcdc_rgba888_mxt_9x60_wvga/debug/_ext/157682245/legato_string_renderer_stream.o
 .debug_str     0x00000000       0x8b build/lcdc_rgba888_mxt_9x60_wvga/debug/_ext/157682245/legato_string_renderer_stream.o
 .comment       0x00000000       0x2c build/lcdc_rgba888_mxt_9x60_wvga/debug/_ext/157682245/legato_string_renderer_stream.o
 .ARM.attributes
                0x00000000       0x32 build/lcdc_rgba888_mxt_9x60_wvga/debug/_ext/157682245/legato_string_renderer_stream.o
 .text          0x00000000        0x0 build/lcdc_rgba888_mxt_9x60_wvga/debug/_ext/157682245/legato_dynamicstring.o
 .data          0x00000000        0x0 build/lcdc_rgba888_mxt_9x60_wvga/debug/_ext/157682245/legato_dynamicstring.o
 .bss           0x00000000        0x0 build/lcdc_rgba888_mxt_9x60_wvga/debug/_ext/157682245/legato_dynamicstring.o
 .text._leDynamicString_GetFont
                0x00000000        0x8 build/lcdc_rgba888_mxt_9x60_wvga/debug/_ext/157682245/legato_dynamicstring.o
 .text._leDynamicString_SetFont
                0x00000000       0x34 build/lcdc_rgba888_mxt_9x60_wvga/debug/_ext/157682245/legato_dynamicstring.o
 .text._leDynamicString_GetCapacity
                0x00000000        0x8 build/lcdc_rgba888_mxt_9x60_wvga/debug/_ext/157682245/legato_dynamicstring.o
 .text._leDynamicString_SetFromString
                0x00000000       0xcc build/lcdc_rgba888_mxt_9x60_wvga/debug/_ext/157682245/legato_dynamicstring.o
 .text._leDynamicString_SetFromChar
                0x00000000       0xa8 build/lcdc_rgba888_mxt_9x60_wvga/debug/_ext/157682245/legato_dynamicstring.o
 .text._leDynamicString_Length
                0x00000000        0x8 build/lcdc_rgba888_mxt_9x60_wvga/debug/_ext/157682245/legato_dynamicstring.o
 .text._leDynamicString_IsEmpty
                0x00000000       0x10 build/lcdc_rgba888_mxt_9x60_wvga/debug/_ext/157682245/legato_dynamicstring.o
 .text._leDynamicString_CharAt
                0x00000000       0x1c build/lcdc_rgba888_mxt_9x60_wvga/debug/_ext/157682245/legato_dynamicstring.o
 .text._leDynamicString_Compare
                0x00000000       0x8c build/lcdc_rgba888_mxt_9x60_wvga/debug/_ext/157682245/legato_dynamicstring.o
 .text._leDynamicString_Append
                0x00000000       0xec build/lcdc_rgba888_mxt_9x60_wvga/debug/_ext/157682245/legato_dynamicstring.o
 .text._leDynamicString_Insert
                0x00000000      0x184 build/lcdc_rgba888_mxt_9x60_wvga/debug/_ext/157682245/legato_dynamicstring.o
 .text._leDynamicString_Remove
                0x00000000       0xc8 build/lcdc_rgba888_mxt_9x60_wvga/debug/_ext/157682245/legato_dynamicstring.o
 .text._leDynamicString_Clear
                0x00000000       0x30 build/lcdc_rgba888_mxt_9x60_wvga/debug/_ext/157682245/legato_dynamicstring.o
 .text._leDynamicString_Destructor
                0x00000000       0x38 build/lcdc_rgba888_mxt_9x60_wvga/debug/_ext/157682245/legato_dynamicstring.o
 .text._leDynamicString_SetCapacity
                0x00000000       0xac build/lcdc_rgba888_mxt_9x60_wvga/debug/_ext/157682245/legato_dynamicstring.o
 .text._leDynamicString_SetFromCStr
                0x00000000       0xa8 build/lcdc_rgba888_mxt_9x60_wvga/debug/_ext/157682245/legato_dynamicstring.o
 .text._leDynamicString_ToChar
                0x00000000       0x50 build/lcdc_rgba888_mxt_9x60_wvga/debug/_ext/157682245/legato_dynamicstring.o
 .text.leDynamicString_Constructor
                0x00000000       0x34 build/lcdc_rgba888_mxt_9x60_wvga/debug/_ext/157682245/legato_dynamicstring.o
 .text.leDynamicString_New
                0x00000000       0x1c build/lcdc_rgba888_mxt_9x60_wvga/debug/_ext/157682245/legato_dynamicstring.o
 .rodata.dynamicStringVTable
                0x00000000       0x70 build/lcdc_rgba888_mxt_9x60_wvga/debug/_ext/157682245/legato_dynamicstring.o
 .debug_info    0x00000000     0x1c11 build/lcdc_rgba888_mxt_9x60_wvga/debug/_ext/157682245/legato_dynamicstring.o
 .debug_abbrev  0x00000000      0x30d build/lcdc_rgba888_mxt_9x60_wvga/debug/_ext/157682245/legato_dynamicstring.o
 .debug_loc     0x00000000      0xc0c build/lcdc_rgba888_mxt_9x60_wvga/debug/_ext/157682245/legato_dynamicstring.o
 .debug_aranges
                0x00000000       0xb0 build/lcdc_rgba888_mxt_9x60_wvga/debug/_ext/157682245/legato_dynamicstring.o
 .debug_ranges  0x00000000       0xa0 build/lcdc_rgba888_mxt_9x60_wvga/debug/_ext/157682245/legato_dynamicstring.o
 .debug_line    0x00000000      0x9da build/lcdc_rgba888_mxt_9x60_wvga/debug/_ext/157682245/legato_dynamicstring.o
 .debug_str     0x00000000      0x17a build/lcdc_rgba888_mxt_9x60_wvga/debug/_ext/157682245/legato_dynamicstring.o
 .comment       0x00000000       0x2c build/lcdc_rgba888_mxt_9x60_wvga/debug/_ext/157682245/legato_dynamicstring.o
 .debug_frame   0x00000000      0x218 build/lcdc_rgba888_mxt_9x60_wvga/debug/_ext/157682245/legato_dynamicstring.o
 .ARM.attributes
                0x00000000       0x2c build/lcdc_rgba888_mxt_9x60_wvga/debug/_ext/157682245/legato_dynamicstring.o
 .text          0x00000000        0x0 build/lcdc_rgba888_mxt_9x60_wvga/debug/_ext/157682245/legato_tablestring.o
 .data          0x00000000        0x0 build/lcdc_rgba888_mxt_9x60_wvga/debug/_ext/157682245/legato_tablestring.o
 .bss           0x00000000        0x0 build/lcdc_rgba888_mxt_9x60_wvga/debug/_ext/157682245/legato_tablestring.o
 .text.leTableString_New
                0x00000000       0x24 build/lcdc_rgba888_mxt_9x60_wvga/debug/_ext/157682245/legato_tablestring.o
 .text._leTableString_ToChar
                0x00000000       0x84 build/lcdc_rgba888_mxt_9x60_wvga/debug/_ext/157682245/legato_tablestring.o
 .text._leTableString_SizeInBytes
                0x00000000       0x48 build/lcdc_rgba888_mxt_9x60_wvga/debug/_ext/157682245/legato_tablestring.o
 .text          0x00000000        0x0 build/lcdc_rgba888_mxt_9x60_wvga/debug/_ext/157682245/legato_stringtable.o
 .data          0x00000000        0x0 build/lcdc_rgba888_mxt_9x60_wvga/debug/_ext/157682245/legato_stringtable.o
 .bss           0x00000000        0x0 build/lcdc_rgba888_mxt_9x60_wvga/debug/_ext/157682245/legato_stringtable.o
 .text.leStringTable_GetStringCount
                0x00000000       0x14 build/lcdc_rgba888_mxt_9x60_wvga/debug/_ext/157682245/legato_stringtable.o
 .text.leStringTable_GetLanguageCount
                0x00000000       0x14 build/lcdc_rgba888_mxt_9x60_wvga/debug/_ext/157682245/legato_stringtable.o
 .text.leStringTable_GetActiveStringOffset
                0x00000000       0x24 build/lcdc_rgba888_mxt_9x60_wvga/debug/_ext/157682245/legato_stringtable.o
 .text          0x00000000        0x0 build/lcdc_rgba888_mxt_9x60_wvga/debug/_ext/157682245/legato_string_renderer.o
 .data          0x00000000        0x0 build/lcdc_rgba888_mxt_9x60_wvga/debug/_ext/157682245/legato_string_renderer.o
 .bss           0x00000000        0x0 build/lcdc_rgba888_mxt_9x60_wvga/debug/_ext/157682245/legato_string_renderer.o
 .text.leStringRenderer_DrawUString
                0x00000000      0x1c8 build/lcdc_rgba888_mxt_9x60_wvga/debug/_ext/157682245/legato_string_renderer.o
 .text.leStringRenderer_DrawCString
                0x00000000      0x1c0 build/lcdc_rgba888_mxt_9x60_wvga/debug/_ext/157682245/legato_string_renderer.o
 .text          0x00000000        0x0 build/lcdc_rgba888_mxt_9x60_wvga/debug/_ext/157682245/legato_fixedstring.o
 .data          0x00000000        0x0 build/lcdc_rgba888_mxt_9x60_wvga/debug/_ext/157682245/legato_fixedstring.o
 .bss           0x00000000        0x0 build/lcdc_rgba888_mxt_9x60_wvga/debug/_ext/157682245/legato_fixedstring.o
 .text.leFixedString_New
                0x00000000       0x2c build/lcdc_rgba888_mxt_9x60_wvga/debug/_ext/157682245/legato_fixedstring.o
 .text          0x00000000        0x0 build/lcdc_rgba888_mxt_9x60_wvga/debug/_ext/1029185477/legato_widget_arc.o
 .data          0x00000000        0x0 build/lcdc_rgba888_mxt_9x60_wvga/debug/_ext/1029185477/legato_widget_arc.o
 .bss           0x00000000        0x0 build/lcdc_rgba888_mxt_9x60_wvga/debug/_ext/1029185477/legato_widget_arc.o
 .debug_info    0x00000000      0x438 build/lcdc_rgba888_mxt_9x60_wvga/debug/_ext/1029185477/legato_widget_arc.o
 .debug_abbrev  0x00000000       0xb5 build/lcdc_rgba888_mxt_9x60_wvga/debug/_ext/1029185477/legato_widget_arc.o
 .debug_aranges
                0x00000000       0x18 build/lcdc_rgba888_mxt_9x60_wvga/debug/_ext/1029185477/legato_widget_arc.o
 .debug_line    0x00000000       0xb8 build/lcdc_rgba888_mxt_9x60_wvga/debug/_ext/1029185477/legato_widget_arc.o
 .debug_str     0x00000000        0x9 build/lcdc_rgba888_mxt_9x60_wvga/debug/_ext/1029185477/legato_widget_arc.o
 .comment       0x00000000       0x2c build/lcdc_rgba888_mxt_9x60_wvga/debug/_ext/1029185477/legato_widget_arc.o
 .ARM.attributes
                0x00000000       0x32 build/lcdc_rgba888_mxt_9x60_wvga/debug/_ext/1029185477/legato_widget_arc.o
 .text          0x00000000        0x0 build/lcdc_rgba888_mxt_9x60_wvga/debug/_ext/1029185477/legato_widget_arc_skin_classic.o
 .data          0x00000000        0x0 build/lcdc_rgba888_mxt_9x60_wvga/debug/_ext/1029185477/legato_widget_arc_skin_classic.o
 .bss           0x00000000        0x0 build/lcdc_rgba888_mxt_9x60_wvga/debug/_ext/1029185477/legato_widget_arc_skin_classic.o
 .debug_info    0x00000000      0x445 build/lcdc_rgba888_mxt_9x60_wvga/debug/_ext/1029185477/legato_widget_arc_skin_classic.o
 .debug_abbrev  0x00000000       0xb5 build/lcdc_rgba888_mxt_9x60_wvga/debug/_ext/1029185477/legato_widget_arc_skin_classic.o
 .debug_aranges
                0x00000000       0x18 build/lcdc_rgba888_mxt_9x60_wvga/debug/_ext/1029185477/legato_widget_arc_skin_classic.o
 .debug_line    0x00000000       0xb8 build/lcdc_rgba888_mxt_9x60_wvga/debug/_ext/1029185477/legato_widget_arc_skin_classic.o
 .debug_str     0x00000000        0x9 build/lcdc_rgba888_mxt_9x60_wvga/debug/_ext/1029185477/legato_widget_arc_skin_classic.o
 .comment       0x00000000       0x2c build/lcdc_rgba888_mxt_9x60_wvga/debug/_ext/1029185477/legato_widget_arc_skin_classic.o
 .ARM.attributes
                0x00000000       0x32 build/lcdc_rgba888_mxt_9x60_wvga/debug/_ext/1029185477/legato_widget_arc_skin_classic.o
 .text          0x00000000        0x0 build/lcdc_rgba888_mxt_9x60_wvga/debug/_ext/1946336466/legato_widget_bar_graph_skin_classic.o
 .data          0x00000000        0x0 build/lcdc_rgba888_mxt_9x60_wvga/debug/_ext/1946336466/legato_widget_bar_graph_skin_classic.o
 .bss           0x00000000        0x0 build/lcdc_rgba888_mxt_9x60_wvga/debug/_ext/1946336466/legato_widget_bar_graph_skin_classic.o
 .debug_info    0x00000000      0x450 build/lcdc_rgba888_mxt_9x60_wvga/debug/_ext/1946336466/legato_widget_bar_graph_skin_classic.o
 .debug_abbrev  0x00000000       0xb5 build/lcdc_rgba888_mxt_9x60_wvga/debug/_ext/1946336466/legato_widget_bar_graph_skin_classic.o
 .debug_aranges
                0x00000000       0x18 build/lcdc_rgba888_mxt_9x60_wvga/debug/_ext/1946336466/legato_widget_bar_graph_skin_classic.o
 .debug_line    0x00000000       0xb8 build/lcdc_rgba888_mxt_9x60_wvga/debug/_ext/1946336466/legato_widget_bar_graph_skin_classic.o
 .debug_str     0x00000000        0x9 build/lcdc_rgba888_mxt_9x60_wvga/debug/_ext/1946336466/legato_widget_bar_graph_skin_classic.o
 .comment       0x00000000       0x2c build/lcdc_rgba888_mxt_9x60_wvga/debug/_ext/1946336466/legato_widget_bar_graph_skin_classic.o
 .ARM.attributes
                0x00000000       0x32 build/lcdc_rgba888_mxt_9x60_wvga/debug/_ext/1946336466/legato_widget_bar_graph_skin_classic.o
 .text          0x00000000        0x0 build/lcdc_rgba888_mxt_9x60_wvga/debug/_ext/1946336466/legato_widget_bar_graph.o
 .data          0x00000000        0x0 build/lcdc_rgba888_mxt_9x60_wvga/debug/_ext/1946336466/legato_widget_bar_graph.o
 .bss           0x00000000        0x0 build/lcdc_rgba888_mxt_9x60_wvga/debug/_ext/1946336466/legato_widget_bar_graph.o
 .debug_info    0x00000000      0x443 build/lcdc_rgba888_mxt_9x60_wvga/debug/_ext/1946336466/legato_widget_bar_graph.o
 .debug_abbrev  0x00000000       0xb5 build/lcdc_rgba888_mxt_9x60_wvga/debug/_ext/1946336466/legato_widget_bar_graph.o
 .debug_aranges
                0x00000000       0x18 build/lcdc_rgba888_mxt_9x60_wvga/debug/_ext/1946336466/legato_widget_bar_graph.o
 .debug_line    0x00000000       0xb8 build/lcdc_rgba888_mxt_9x60_wvga/debug/_ext/1946336466/legato_widget_bar_graph.o
 .debug_str     0x00000000        0x9 build/lcdc_rgba888_mxt_9x60_wvga/debug/_ext/1946336466/legato_widget_bar_graph.o
 .comment       0x00000000       0x2c build/lcdc_rgba888_mxt_9x60_wvga/debug/_ext/1946336466/legato_widget_bar_graph.o
 .ARM.attributes
                0x00000000       0x32 build/lcdc_rgba888_mxt_9x60_wvga/debug/_ext/1946336466/legato_widget_bar_graph.o
 .text          0x00000000        0x0 build/lcdc_rgba888_mxt_9x60_wvga/debug/_ext/1339002025/legato_widget_button.o
 .data          0x00000000        0x0 build/lcdc_rgba888_mxt_9x60_wvga/debug/_ext/1339002025/legato_widget_button.o
 .bss           0x00000000        0x0 build/lcdc_rgba888_mxt_9x60_wvga/debug/_ext/1339002025/legato_widget_button.o
 .text          0x00000000        0x0 build/lcdc_rgba888_mxt_9x60_wvga/debug/_ext/1339002025/legato_widget_button_skin_classic.o
 .data          0x00000000        0x0 build/lcdc_rgba888_mxt_9x60_wvga/debug/_ext/1339002025/legato_widget_button_skin_classic.o
 .bss           0x00000000        0x0 build/lcdc_rgba888_mxt_9x60_wvga/debug/_ext/1339002025/legato_widget_button_skin_classic.o
 .text          0x00000000        0x0 build/lcdc_rgba888_mxt_9x60_wvga/debug/_ext/935657338/legato_widget_checkbox.o
 .data          0x00000000        0x0 build/lcdc_rgba888_mxt_9x60_wvga/debug/_ext/935657338/legato_widget_checkbox.o
 .bss           0x00000000        0x0 build/lcdc_rgba888_mxt_9x60_wvga/debug/_ext/935657338/legato_widget_checkbox.o
 .debug_info    0x00000000      0xcd2 build/lcdc_rgba888_mxt_9x60_wvga/debug/_ext/935657338/legato_widget_checkbox.o
 .debug_abbrev  0x00000000      0x17b build/lcdc_rgba888_mxt_9x60_wvga/debug/_ext/935657338/legato_widget_checkbox.o
 .debug_aranges
                0x00000000       0x18 build/lcdc_rgba888_mxt_9x60_wvga/debug/_ext/935657338/legato_widget_checkbox.o
 .debug_line    0x00000000      0x10d build/lcdc_rgba888_mxt_9x60_wvga/debug/_ext/935657338/legato_widget_checkbox.o
 .debug_str     0x00000000       0x8b build/lcdc_rgba888_mxt_9x60_wvga/debug/_ext/935657338/legato_widget_checkbox.o
 .comment       0x00000000       0x2c build/lcdc_rgba888_mxt_9x60_wvga/debug/_ext/935657338/legato_widget_checkbox.o
 .ARM.attributes
                0x00000000       0x32 build/lcdc_rgba888_mxt_9x60_wvga/debug/_ext/935657338/legato_widget_checkbox.o
 .text          0x00000000        0x0 build/lcdc_rgba888_mxt_9x60_wvga/debug/_ext/935657338/legato_widget_checkbox_skin_classic.o
 .data          0x00000000        0x0 build/lcdc_rgba888_mxt_9x60_wvga/debug/_ext/935657338/legato_widget_checkbox_skin_classic.o
 .bss           0x00000000        0x0 build/lcdc_rgba888_mxt_9x60_wvga/debug/_ext/935657338/legato_widget_checkbox_skin_classic.o
 .debug_info    0x00000000      0x44f build/lcdc_rgba888_mxt_9x60_wvga/debug/_ext/935657338/legato_widget_checkbox_skin_classic.o
 .debug_abbrev  0x00000000       0xb5 build/lcdc_rgba888_mxt_9x60_wvga/debug/_ext/935657338/legato_widget_checkbox_skin_classic.o
 .debug_aranges
                0x00000000       0x18 build/lcdc_rgba888_mxt_9x60_wvga/debug/_ext/935657338/legato_widget_checkbox_skin_classic.o
 .debug_line    0x00000000       0xb8 build/lcdc_rgba888_mxt_9x60_wvga/debug/_ext/935657338/legato_widget_checkbox_skin_classic.o
 .debug_str     0x00000000        0x9 build/lcdc_rgba888_mxt_9x60_wvga/debug/_ext/935657338/legato_widget_checkbox_skin_classic.o
 .comment       0x00000000       0x2c build/lcdc_rgba888_mxt_9x60_wvga/debug/_ext/935657338/legato_widget_checkbox_skin_classic.o
 .ARM.attributes
                0x00000000       0x32 build/lcdc_rgba888_mxt_9x60_wvga/debug/_ext/935657338/legato_widget_checkbox_skin_classic.o
 .text          0x00000000        0x0 build/lcdc_rgba888_mxt_9x60_wvga/debug/_ext/1356472903/legato_widget_circle.o
 .data          0x00000000        0x0 build/lcdc_rgba888_mxt_9x60_wvga/debug/_ext/1356472903/legato_widget_circle.o
 .bss           0x00000000        0x0 build/lcdc_rgba888_mxt_9x60_wvga/debug/_ext/1356472903/legato_widget_circle.o
 .debug_info    0x00000000      0xcce build/lcdc_rgba888_mxt_9x60_wvga/debug/_ext/1356472903/legato_widget_circle.o
 .debug_abbrev  0x00000000      0x17b build/lcdc_rgba888_mxt_9x60_wvga/debug/_ext/1356472903/legato_widget_circle.o
 .debug_aranges
                0x00000000       0x18 build/lcdc_rgba888_mxt_9x60_wvga/debug/_ext/1356472903/legato_widget_circle.o
 .debug_line    0x00000000      0x10d build/lcdc_rgba888_mxt_9x60_wvga/debug/_ext/1356472903/legato_widget_circle.o
 .debug_str     0x00000000       0x8b build/lcdc_rgba888_mxt_9x60_wvga/debug/_ext/1356472903/legato_widget_circle.o
 .comment       0x00000000       0x2c build/lcdc_rgba888_mxt_9x60_wvga/debug/_ext/1356472903/legato_widget_circle.o
 .ARM.attributes
                0x00000000       0x32 build/lcdc_rgba888_mxt_9x60_wvga/debug/_ext/1356472903/legato_widget_circle.o
 .text          0x00000000        0x0 build/lcdc_rgba888_mxt_9x60_wvga/debug/_ext/1356472903/legato_widget_circle_skin_classic.o
 .data          0x00000000        0x0 build/lcdc_rgba888_mxt_9x60_wvga/debug/_ext/1356472903/legato_widget_circle_skin_classic.o
 .bss           0x00000000        0x0 build/lcdc_rgba888_mxt_9x60_wvga/debug/_ext/1356472903/legato_widget_circle_skin_classic.o
 .debug_info    0x00000000      0xcdb build/lcdc_rgba888_mxt_9x60_wvga/debug/_ext/1356472903/legato_widget_circle_skin_classic.o
 .debug_abbrev  0x00000000      0x17b build/lcdc_rgba888_mxt_9x60_wvga/debug/_ext/1356472903/legato_widget_circle_skin_classic.o
 .debug_aranges
                0x00000000       0x18 build/lcdc_rgba888_mxt_9x60_wvga/debug/_ext/1356472903/legato_widget_circle_skin_classic.o
 .debug_line    0x00000000      0x10d build/lcdc_rgba888_mxt_9x60_wvga/debug/_ext/1356472903/legato_widget_circle_skin_classic.o
 .debug_str     0x00000000       0x8b build/lcdc_rgba888_mxt_9x60_wvga/debug/_ext/1356472903/legato_widget_circle_skin_classic.o
 .comment       0x00000000       0x2c build/lcdc_rgba888_mxt_9x60_wvga/debug/_ext/1356472903/legato_widget_circle_skin_classic.o
 .ARM.attributes
                0x00000000       0x32 build/lcdc_rgba888_mxt_9x60_wvga/debug/_ext/1356472903/legato_widget_circle_skin_classic.o
 .text          0x00000000        0x0 build/lcdc_rgba888_mxt_9x60_wvga/debug/_ext/2122148963/legato_widget_circular_gauge_skin_classic.o
 .data          0x00000000        0x0 build/lcdc_rgba888_mxt_9x60_wvga/debug/_ext/2122148963/legato_widget_circular_gauge_skin_classic.o
 .bss           0x00000000        0x0 build/lcdc_rgba888_mxt_9x60_wvga/debug/_ext/2122148963/legato_widget_circular_gauge_skin_classic.o
 .debug_info    0x00000000      0x45a build/lcdc_rgba888_mxt_9x60_wvga/debug/_ext/2122148963/legato_widget_circular_gauge_skin_classic.o
 .debug_abbrev  0x00000000       0xb5 build/lcdc_rgba888_mxt_9x60_wvga/debug/_ext/2122148963/legato_widget_circular_gauge_skin_classic.o
 .debug_aranges
                0x00000000       0x18 build/lcdc_rgba888_mxt_9x60_wvga/debug/_ext/2122148963/legato_widget_circular_gauge_skin_classic.o
 .debug_line    0x00000000       0xb8 build/lcdc_rgba888_mxt_9x60_wvga/debug/_ext/2122148963/legato_widget_circular_gauge_skin_classic.o
 .debug_str     0x00000000        0x9 build/lcdc_rgba888_mxt_9x60_wvga/debug/_ext/2122148963/legato_widget_circular_gauge_skin_classic.o
 .comment       0x00000000       0x2c build/lcdc_rgba888_mxt_9x60_wvga/debug/_ext/2122148963/legato_widget_circular_gauge_skin_classic.o
 .ARM.attributes
                0x00000000       0x32 build/lcdc_rgba888_mxt_9x60_wvga/debug/_ext/2122148963/legato_widget_circular_gauge_skin_classic.o
 .text          0x00000000        0x0 build/lcdc_rgba888_mxt_9x60_wvga/debug/_ext/2122148963/legato_widget_circular_gauge.o
 .data          0x00000000        0x0 build/lcdc_rgba888_mxt_9x60_wvga/debug/_ext/2122148963/legato_widget_circular_gauge.o
 .bss           0x00000000        0x0 build/lcdc_rgba888_mxt_9x60_wvga/debug/_ext/2122148963/legato_widget_circular_gauge.o
 .debug_info    0x00000000      0x44d build/lcdc_rgba888_mxt_9x60_wvga/debug/_ext/2122148963/legato_widget_circular_gauge.o
 .debug_abbrev  0x00000000       0xb5 build/lcdc_rgba888_mxt_9x60_wvga/debug/_ext/2122148963/legato_widget_circular_gauge.o
 .debug_aranges
                0x00000000       0x18 build/lcdc_rgba888_mxt_9x60_wvga/debug/_ext/2122148963/legato_widget_circular_gauge.o
 .debug_line    0x00000000       0xb8 build/lcdc_rgba888_mxt_9x60_wvga/debug/_ext/2122148963/legato_widget_circular_gauge.o
 .debug_str     0x00000000        0x9 build/lcdc_rgba888_mxt_9x60_wvga/debug/_ext/2122148963/legato_widget_circular_gauge.o
 .comment       0x00000000       0x2c build/lcdc_rgba888_mxt_9x60_wvga/debug/_ext/2122148963/legato_widget_circular_gauge.o
 .ARM.attributes
                0x00000000       0x32 build/lcdc_rgba888_mxt_9x60_wvga/debug/_ext/2122148963/legato_widget_circular_gauge.o
 .text          0x00000000        0x0 build/lcdc_rgba888_mxt_9x60_wvga/debug/_ext/1715456695/legato_widget_circular_slider_skin_classic.o
 .data          0x00000000        0x0 build/lcdc_rgba888_mxt_9x60_wvga/debug/_ext/1715456695/legato_widget_circular_slider_skin_classic.o
 .bss           0x00000000        0x0 build/lcdc_rgba888_mxt_9x60_wvga/debug/_ext/1715456695/legato_widget_circular_slider_skin_classic.o
 .debug_info    0x00000000      0x45c build/lcdc_rgba888_mxt_9x60_wvga/debug/_ext/1715456695/legato_widget_circular_slider_skin_classic.o
 .debug_abbrev  0x00000000       0xb5 build/lcdc_rgba888_mxt_9x60_wvga/debug/_ext/1715456695/legato_widget_circular_slider_skin_classic.o
 .debug_aranges
                0x00000000       0x18 build/lcdc_rgba888_mxt_9x60_wvga/debug/_ext/1715456695/legato_widget_circular_slider_skin_classic.o
 .debug_line    0x00000000       0xb8 build/lcdc_rgba888_mxt_9x60_wvga/debug/_ext/1715456695/legato_widget_circular_slider_skin_classic.o
 .debug_str     0x00000000        0x9 build/lcdc_rgba888_mxt_9x60_wvga/debug/_ext/1715456695/legato_widget_circular_slider_skin_classic.o
 .comment       0x00000000       0x2c build/lcdc_rgba888_mxt_9x60_wvga/debug/_ext/1715456695/legato_widget_circular_slider_skin_classic.o
 .ARM.attributes
                0x00000000       0x32 build/lcdc_rgba888_mxt_9x60_wvga/debug/_ext/1715456695/legato_widget_circular_slider_skin_classic.o
 .text          0x00000000        0x0 build/lcdc_rgba888_mxt_9x60_wvga/debug/_ext/1715456695/legato_widget_circular_slider.o
 .data          0x00000000        0x0 build/lcdc_rgba888_mxt_9x60_wvga/debug/_ext/1715456695/legato_widget_circular_slider.o
 .bss           0x00000000        0x0 build/lcdc_rgba888_mxt_9x60_wvga/debug/_ext/1715456695/legato_widget_circular_slider.o
 .debug_info    0x00000000      0x44f build/lcdc_rgba888_mxt_9x60_wvga/debug/_ext/1715456695/legato_widget_circular_slider.o
 .debug_abbrev  0x00000000       0xb5 build/lcdc_rgba888_mxt_9x60_wvga/debug/_ext/1715456695/legato_widget_circular_slider.o
 .debug_aranges
                0x00000000       0x18 build/lcdc_rgba888_mxt_9x60_wvga/debug/_ext/1715456695/legato_widget_circular_slider.o
 .debug_line    0x00000000       0xb8 build/lcdc_rgba888_mxt_9x60_wvga/debug/_ext/1715456695/legato_widget_circular_slider.o
 .debug_str     0x00000000        0x9 build/lcdc_rgba888_mxt_9x60_wvga/debug/_ext/1715456695/legato_widget_circular_slider.o
 .comment       0x00000000       0x2c build/lcdc_rgba888_mxt_9x60_wvga/debug/_ext/1715456695/legato_widget_circular_slider.o
 .ARM.attributes
                0x00000000       0x32 build/lcdc_rgba888_mxt_9x60_wvga/debug/_ext/1715456695/legato_widget_circular_slider.o
 .text          0x00000000        0x0 build/lcdc_rgba888_mxt_9x60_wvga/debug/_ext/1444382766/legato_widget_drawsurface.o
 .data          0x00000000        0x0 build/lcdc_rgba888_mxt_9x60_wvga/debug/_ext/1444382766/legato_widget_drawsurface.o
 .bss           0x00000000        0x0 build/lcdc_rgba888_mxt_9x60_wvga/debug/_ext/1444382766/legato_widget_drawsurface.o
 .debug_info    0x00000000      0x448 build/lcdc_rgba888_mxt_9x60_wvga/debug/_ext/1444382766/legato_widget_drawsurface.o
 .debug_abbrev  0x00000000       0xb5 build/lcdc_rgba888_mxt_9x60_wvga/debug/_ext/1444382766/legato_widget_drawsurface.o
 .debug_aranges
                0x00000000       0x18 build/lcdc_rgba888_mxt_9x60_wvga/debug/_ext/1444382766/legato_widget_drawsurface.o
 .debug_line    0x00000000       0xb8 build/lcdc_rgba888_mxt_9x60_wvga/debug/_ext/1444382766/legato_widget_drawsurface.o
 .debug_str     0x00000000        0x9 build/lcdc_rgba888_mxt_9x60_wvga/debug/_ext/1444382766/legato_widget_drawsurface.o
 .comment       0x00000000       0x2c build/lcdc_rgba888_mxt_9x60_wvga/debug/_ext/1444382766/legato_widget_drawsurface.o
 .ARM.attributes
                0x00000000       0x32 build/lcdc_rgba888_mxt_9x60_wvga/debug/_ext/1444382766/legato_widget_drawsurface.o
 .text          0x00000000        0x0 build/lcdc_rgba888_mxt_9x60_wvga/debug/_ext/1444382766/legato_widget_drawsurface_skin_classic.o
 .data          0x00000000        0x0 build/lcdc_rgba888_mxt_9x60_wvga/debug/_ext/1444382766/legato_widget_drawsurface_skin_classic.o
 .bss           0x00000000        0x0 build/lcdc_rgba888_mxt_9x60_wvga/debug/_ext/1444382766/legato_widget_drawsurface_skin_classic.o
 .debug_info    0x00000000      0x455 build/lcdc_rgba888_mxt_9x60_wvga/debug/_ext/1444382766/legato_widget_drawsurface_skin_classic.o
 .debug_abbrev  0x00000000       0xb5 build/lcdc_rgba888_mxt_9x60_wvga/debug/_ext/1444382766/legato_widget_drawsurface_skin_classic.o
 .debug_aranges
                0x00000000       0x18 build/lcdc_rgba888_mxt_9x60_wvga/debug/_ext/1444382766/legato_widget_drawsurface_skin_classic.o
 .debug_line    0x00000000       0xb8 build/lcdc_rgba888_mxt_9x60_wvga/debug/_ext/1444382766/legato_widget_drawsurface_skin_classic.o
 .debug_str     0x00000000        0x9 build/lcdc_rgba888_mxt_9x60_wvga/debug/_ext/1444382766/legato_widget_drawsurface_skin_classic.o
 .comment       0x00000000       0x2c build/lcdc_rgba888_mxt_9x60_wvga/debug/_ext/1444382766/legato_widget_drawsurface_skin_classic.o
 .ARM.attributes
                0x00000000       0x32 build/lcdc_rgba888_mxt_9x60_wvga/debug/_ext/1444382766/legato_widget_drawsurface_skin_classic.o
 .text          0x00000000        0x0 build/lcdc_rgba888_mxt_9x60_wvga/debug/_ext/511583513/legato_widget_gradient_skin_classic.o
 .data          0x00000000        0x0 build/lcdc_rgba888_mxt_9x60_wvga/debug/_ext/511583513/legato_widget_gradient_skin_classic.o
 .bss           0x00000000        0x0 build/lcdc_rgba888_mxt_9x60_wvga/debug/_ext/511583513/legato_widget_gradient_skin_classic.o
 .debug_info    0x00000000      0x44f build/lcdc_rgba888_mxt_9x60_wvga/debug/_ext/511583513/legato_widget_gradient_skin_classic.o
 .debug_abbrev  0x00000000       0xb5 build/lcdc_rgba888_mxt_9x60_wvga/debug/_ext/511583513/legato_widget_gradient_skin_classic.o
 .debug_aranges
                0x00000000       0x18 build/lcdc_rgba888_mxt_9x60_wvga/debug/_ext/511583513/legato_widget_gradient_skin_classic.o
 .debug_line    0x00000000       0xb8 build/lcdc_rgba888_mxt_9x60_wvga/debug/_ext/511583513/legato_widget_gradient_skin_classic.o
 .debug_str     0x00000000        0x9 build/lcdc_rgba888_mxt_9x60_wvga/debug/_ext/511583513/legato_widget_gradient_skin_classic.o
 .comment       0x00000000       0x2c build/lcdc_rgba888_mxt_9x60_wvga/debug/_ext/511583513/legato_widget_gradient_skin_classic.o
 .ARM.attributes
                0x00000000       0x32 build/lcdc_rgba888_mxt_9x60_wvga/debug/_ext/511583513/legato_widget_gradient_skin_classic.o
 .text          0x00000000        0x0 build/lcdc_rgba888_mxt_9x60_wvga/debug/_ext/511583513/legato_widget_gradient.o
 .data          0x00000000        0x0 build/lcdc_rgba888_mxt_9x60_wvga/debug/_ext/511583513/legato_widget_gradient.o
 .bss           0x00000000        0x0 build/lcdc_rgba888_mxt_9x60_wvga/debug/_ext/511583513/legato_widget_gradient.o
 .debug_info    0x00000000      0x442 build/lcdc_rgba888_mxt_9x60_wvga/debug/_ext/511583513/legato_widget_gradient.o
 .debug_abbrev  0x00000000       0xb5 build/lcdc_rgba888_mxt_9x60_wvga/debug/_ext/511583513/legato_widget_gradient.o
 .debug_aranges
                0x00000000       0x18 build/lcdc_rgba888_mxt_9x60_wvga/debug/_ext/511583513/legato_widget_gradient.o
 .debug_line    0x00000000       0xb8 build/lcdc_rgba888_mxt_9x60_wvga/debug/_ext/511583513/legato_widget_gradient.o
 .debug_str     0x00000000        0x9 build/lcdc_rgba888_mxt_9x60_wvga/debug/_ext/511583513/legato_widget_gradient.o
 .comment       0x00000000       0x2c build/lcdc_rgba888_mxt_9x60_wvga/debug/_ext/511583513/legato_widget_gradient.o
 .ARM.attributes
                0x00000000       0x32 build/lcdc_rgba888_mxt_9x60_wvga/debug/_ext/511583513/legato_widget_gradient.o
 .text          0x00000000        0x0 build/lcdc_rgba888_mxt_9x60_wvga/debug/_ext/94869853/legato_widget_groupbox_skin_classic.o
 .data          0x00000000        0x0 build/lcdc_rgba888_mxt_9x60_wvga/debug/_ext/94869853/legato_widget_groupbox_skin_classic.o
 .bss           0x00000000        0x0 build/lcdc_rgba888_mxt_9x60_wvga/debug/_ext/94869853/legato_widget_groupbox_skin_classic.o
 .debug_info    0x00000000      0x44f build/lcdc_rgba888_mxt_9x60_wvga/debug/_ext/94869853/legato_widget_groupbox_skin_classic.o
 .debug_abbrev  0x00000000       0xb5 build/lcdc_rgba888_mxt_9x60_wvga/debug/_ext/94869853/legato_widget_groupbox_skin_classic.o
 .debug_aranges
                0x00000000       0x18 build/lcdc_rgba888_mxt_9x60_wvga/debug/_ext/94869853/legato_widget_groupbox_skin_classic.o
 .debug_line    0x00000000       0xb8 build/lcdc_rgba888_mxt_9x60_wvga/debug/_ext/94869853/legato_widget_groupbox_skin_classic.o
 .debug_str     0x00000000        0x9 build/lcdc_rgba888_mxt_9x60_wvga/debug/_ext/94869853/legato_widget_groupbox_skin_classic.o
 .comment       0x00000000       0x2c build/lcdc_rgba888_mxt_9x60_wvga/debug/_ext/94869853/legato_widget_groupbox_skin_classic.o
 .ARM.attributes
                0x00000000       0x32 build/lcdc_rgba888_mxt_9x60_wvga/debug/_ext/94869853/legato_widget_groupbox_skin_classic.o
 .text          0x00000000        0x0 build/lcdc_rgba888_mxt_9x60_wvga/debug/_ext/94869853/legato_widget_groupbox.o
 .data          0x00000000        0x0 build/lcdc_rgba888_mxt_9x60_wvga/debug/_ext/94869853/legato_widget_groupbox.o
 .bss           0x00000000        0x0 build/lcdc_rgba888_mxt_9x60_wvga/debug/_ext/94869853/legato_widget_groupbox.o
 .debug_info    0x00000000      0x442 build/lcdc_rgba888_mxt_9x60_wvga/debug/_ext/94869853/legato_widget_groupbox.o
 .debug_abbrev  0x00000000       0xb5 build/lcdc_rgba888_mxt_9x60_wvga/debug/_ext/94869853/legato_widget_groupbox.o
 .debug_aranges
                0x00000000       0x18 build/lcdc_rgba888_mxt_9x60_wvga/debug/_ext/94869853/legato_widget_groupbox.o
 .debug_line    0x00000000       0xb8 build/lcdc_rgba888_mxt_9x60_wvga/debug/_ext/94869853/legato_widget_groupbox.o
 .debug_str     0x00000000        0x9 build/lcdc_rgba888_mxt_9x60_wvga/debug/_ext/94869853/legato_widget_groupbox.o
 .comment       0x00000000       0x2c build/lcdc_rgba888_mxt_9x60_wvga/debug/_ext/94869853/legato_widget_groupbox.o
 .ARM.attributes
                0x00000000       0x32 build/lcdc_rgba888_mxt_9x60_wvga/debug/_ext/94869853/legato_widget_groupbox.o
 .text          0x00000000        0x0 build/lcdc_rgba888_mxt_9x60_wvga/debug/_ext/1197524732/legato_widget_image_skin_classic.o
 .data          0x00000000        0x0 build/lcdc_rgba888_mxt_9x60_wvga/debug/_ext/1197524732/legato_widget_image_skin_classic.o
 .bss           0x00000000        0x0 build/lcdc_rgba888_mxt_9x60_wvga/debug/_ext/1197524732/legato_widget_image_skin_classic.o
 .text          0x00000000        0x0 build/lcdc_rgba888_mxt_9x60_wvga/debug/_ext/1197524732/legato_widget_image.o
 .data          0x00000000        0x0 build/lcdc_rgba888_mxt_9x60_wvga/debug/_ext/1197524732/legato_widget_image.o
 .bss           0x00000000        0x0 build/lcdc_rgba888_mxt_9x60_wvga/debug/_ext/1197524732/legato_widget_image.o
 .text          0x00000000        0x0 build/lcdc_rgba888_mxt_9x60_wvga/debug/_ext/1694778207/legato_widget_imagerotate_skin_classic.o
 .data          0x00000000        0x0 build/lcdc_rgba888_mxt_9x60_wvga/debug/_ext/1694778207/legato_widget_imagerotate_skin_classic.o
 .bss           0x00000000        0x0 build/lcdc_rgba888_mxt_9x60_wvga/debug/_ext/1694778207/legato_widget_imagerotate_skin_classic.o
 .debug_info    0x00000000      0x455 build/lcdc_rgba888_mxt_9x60_wvga/debug/_ext/1694778207/legato_widget_imagerotate_skin_classic.o
 .debug_abbrev  0x00000000       0xb5 build/lcdc_rgba888_mxt_9x60_wvga/debug/_ext/1694778207/legato_widget_imagerotate_skin_classic.o
 .debug_aranges
                0x00000000       0x18 build/lcdc_rgba888_mxt_9x60_wvga/debug/_ext/1694778207/legato_widget_imagerotate_skin_classic.o
 .debug_line    0x00000000       0xb8 build/lcdc_rgba888_mxt_9x60_wvga/debug/_ext/1694778207/legato_widget_imagerotate_skin_classic.o
 .debug_str     0x00000000        0x9 build/lcdc_rgba888_mxt_9x60_wvga/debug/_ext/1694778207/legato_widget_imagerotate_skin_classic.o
 .comment       0x00000000       0x2c build/lcdc_rgba888_mxt_9x60_wvga/debug/_ext/1694778207/legato_widget_imagerotate_skin_classic.o
 .ARM.attributes
                0x00000000       0x32 build/lcdc_rgba888_mxt_9x60_wvga/debug/_ext/1694778207/legato_widget_imagerotate_skin_classic.o
 .text          0x00000000        0x0 build/lcdc_rgba888_mxt_9x60_wvga/debug/_ext/1694778207/legato_widget_imagerotate.o
 .data          0x00000000        0x0 build/lcdc_rgba888_mxt_9x60_wvga/debug/_ext/1694778207/legato_widget_imagerotate.o
 .bss           0x00000000        0x0 build/lcdc_rgba888_mxt_9x60_wvga/debug/_ext/1694778207/legato_widget_imagerotate.o
 .debug_info    0x00000000      0x448 build/lcdc_rgba888_mxt_9x60_wvga/debug/_ext/1694778207/legato_widget_imagerotate.o
 .debug_abbrev  0x00000000       0xb5 build/lcdc_rgba888_mxt_9x60_wvga/debug/_ext/1694778207/legato_widget_imagerotate.o
 .debug_aranges
                0x00000000       0x18 build/lcdc_rgba888_mxt_9x60_wvga/debug/_ext/1694778207/legato_widget_imagerotate.o
 .debug_line    0x00000000       0xb8 build/lcdc_rgba888_mxt_9x60_wvga/debug/_ext/1694778207/legato_widget_imagerotate.o
 .debug_str     0x00000000        0x9 build/lcdc_rgba888_mxt_9x60_wvga/debug/_ext/1694778207/legato_widget_imagerotate.o
 .comment       0x00000000       0x2c build/lcdc_rgba888_mxt_9x60_wvga/debug/_ext/1694778207/legato_widget_imagerotate.o
 .ARM.attributes
                0x00000000       0x32 build/lcdc_rgba888_mxt_9x60_wvga/debug/_ext/1694778207/legato_widget_imagerotate.o
 .text          0x00000000        0x0 build/lcdc_rgba888_mxt_9x60_wvga/debug/_ext/609407686/legato_widget_imagescale.o
 .data          0x00000000        0x0 build/lcdc_rgba888_mxt_9x60_wvga/debug/_ext/609407686/legato_widget_imagescale.o
 .bss           0x00000000        0x0 build/lcdc_rgba888_mxt_9x60_wvga/debug/_ext/609407686/legato_widget_imagescale.o
 .debug_info    0x00000000      0x446 build/lcdc_rgba888_mxt_9x60_wvga/debug/_ext/609407686/legato_widget_imagescale.o
 .debug_abbrev  0x00000000       0xb5 build/lcdc_rgba888_mxt_9x60_wvga/debug/_ext/609407686/legato_widget_imagescale.o
 .debug_aranges
                0x00000000       0x18 build/lcdc_rgba888_mxt_9x60_wvga/debug/_ext/609407686/legato_widget_imagescale.o
 .debug_line    0x00000000       0xb8 build/lcdc_rgba888_mxt_9x60_wvga/debug/_ext/609407686/legato_widget_imagescale.o
 .debug_str     0x00000000        0x9 build/lcdc_rgba888_mxt_9x60_wvga/debug/_ext/609407686/legato_widget_imagescale.o
 .comment       0x00000000       0x2c build/lcdc_rgba888_mxt_9x60_wvga/debug/_ext/609407686/legato_widget_imagescale.o
 .ARM.attributes
                0x00000000       0x32 build/lcdc_rgba888_mxt_9x60_wvga/debug/_ext/609407686/legato_widget_imagescale.o
 .text          0x00000000        0x0 build/lcdc_rgba888_mxt_9x60_wvga/debug/_ext/609407686/legato_widget_imagescale_skin_classic.o
 .data          0x00000000        0x0 build/lcdc_rgba888_mxt_9x60_wvga/debug/_ext/609407686/legato_widget_imagescale_skin_classic.o
 .bss           0x00000000        0x0 build/lcdc_rgba888_mxt_9x60_wvga/debug/_ext/609407686/legato_widget_imagescale_skin_classic.o
 .debug_info    0x00000000      0x453 build/lcdc_rgba888_mxt_9x60_wvga/debug/_ext/609407686/legato_widget_imagescale_skin_classic.o
 .debug_abbrev  0x00000000       0xb5 build/lcdc_rgba888_mxt_9x60_wvga/debug/_ext/609407686/legato_widget_imagescale_skin_classic.o
 .debug_aranges
                0x00000000       0x18 build/lcdc_rgba888_mxt_9x60_wvga/debug/_ext/609407686/legato_widget_imagescale_skin_classic.o
 .debug_line    0x00000000       0xb8 build/lcdc_rgba888_mxt_9x60_wvga/debug/_ext/609407686/legato_widget_imagescale_skin_classic.o
 .debug_str     0x00000000        0x9 build/lcdc_rgba888_mxt_9x60_wvga/debug/_ext/609407686/legato_widget_imagescale_skin_classic.o
 .comment       0x00000000       0x2c build/lcdc_rgba888_mxt_9x60_wvga/debug/_ext/609407686/legato_widget_imagescale_skin_classic.o
 .ARM.attributes
                0x00000000       0x32 build/lcdc_rgba888_mxt_9x60_wvga/debug/_ext/609407686/legato_widget_imagescale_skin_classic.o
 .text          0x00000000        0x0 build/lcdc_rgba888_mxt_9x60_wvga/debug/_ext/2015859515/legato_widget_imagesequence.o
 .data          0x00000000        0x0 build/lcdc_rgba888_mxt_9x60_wvga/debug/_ext/2015859515/legato_widget_imagesequence.o
 .bss           0x00000000        0x0 build/lcdc_rgba888_mxt_9x60_wvga/debug/_ext/2015859515/legato_widget_imagesequence.o
 .text          0x00000000        0x0 build/lcdc_rgba888_mxt_9x60_wvga/debug/_ext/2015859515/legato_widget_imagesequence_skin_classic.o
 .data          0x00000000        0x0 build/lcdc_rgba888_mxt_9x60_wvga/debug/_ext/2015859515/legato_widget_imagesequence_skin_classic.o
 .bss           0x00000000        0x0 build/lcdc_rgba888_mxt_9x60_wvga/debug/_ext/2015859515/legato_widget_imagesequence_skin_classic.o
 .text          0x00000000        0x0 build/lcdc_rgba888_mxt_9x60_wvga/debug/_ext/1582032715/legato_widget_keypad_skin_classic.o
 .data          0x00000000        0x0 build/lcdc_rgba888_mxt_9x60_wvga/debug/_ext/1582032715/legato_widget_keypad_skin_classic.o
 .bss           0x00000000        0x0 build/lcdc_rgba888_mxt_9x60_wvga/debug/_ext/1582032715/legato_widget_keypad_skin_classic.o
 .debug_info    0x00000000      0x44b build/lcdc_rgba888_mxt_9x60_wvga/debug/_ext/1582032715/legato_widget_keypad_skin_classic.o
 .debug_abbrev  0x00000000       0xb5 build/lcdc_rgba888_mxt_9x60_wvga/debug/_ext/1582032715/legato_widget_keypad_skin_classic.o
 .debug_aranges
                0x00000000       0x18 build/lcdc_rgba888_mxt_9x60_wvga/debug/_ext/1582032715/legato_widget_keypad_skin_classic.o
 .debug_line    0x00000000       0xb8 build/lcdc_rgba888_mxt_9x60_wvga/debug/_ext/1582032715/legato_widget_keypad_skin_classic.o
 .debug_str     0x00000000        0x9 build/lcdc_rgba888_mxt_9x60_wvga/debug/_ext/1582032715/legato_widget_keypad_skin_classic.o
 .comment       0x00000000       0x2c build/lcdc_rgba888_mxt_9x60_wvga/debug/_ext/1582032715/legato_widget_keypad_skin_classic.o
 .ARM.attributes
                0x00000000       0x32 build/lcdc_rgba888_mxt_9x60_wvga/debug/_ext/1582032715/legato_widget_keypad_skin_classic.o
 .text          0x00000000        0x0 build/lcdc_rgba888_mxt_9x60_wvga/debug/_ext/1582032715/legato_widget_keypad.o
 .data          0x00000000        0x0 build/lcdc_rgba888_mxt_9x60_wvga/debug/_ext/1582032715/legato_widget_keypad.o
 .bss           0x00000000        0x0 build/lcdc_rgba888_mxt_9x60_wvga/debug/_ext/1582032715/legato_widget_keypad.o
 .debug_info    0x00000000      0xcce build/lcdc_rgba888_mxt_9x60_wvga/debug/_ext/1582032715/legato_widget_keypad.o
 .debug_abbrev  0x00000000      0x17b build/lcdc_rgba888_mxt_9x60_wvga/debug/_ext/1582032715/legato_widget_keypad.o
 .debug_aranges
                0x00000000       0x18 build/lcdc_rgba888_mxt_9x60_wvga/debug/_ext/1582032715/legato_widget_keypad.o
 .debug_line    0x00000000      0x10d build/lcdc_rgba888_mxt_9x60_wvga/debug/_ext/1582032715/legato_widget_keypad.o
 .debug_str     0x00000000       0x8b build/lcdc_rgba888_mxt_9x60_wvga/debug/_ext/1582032715/legato_widget_keypad.o
 .comment       0x00000000       0x2c build/lcdc_rgba888_mxt_9x60_wvga/debug/_ext/1582032715/legato_widget_keypad.o
 .ARM.attributes
                0x00000000       0x32 build/lcdc_rgba888_mxt_9x60_wvga/debug/_ext/1582032715/legato_widget_keypad.o
 .text          0x00000000        0x0 build/lcdc_rgba888_mxt_9x60_wvga/debug/_ext/1195110755/legato_widget_label_skin_classic.o
 .data          0x00000000        0x0 build/lcdc_rgba888_mxt_9x60_wvga/debug/_ext/1195110755/legato_widget_label_skin_classic.o
 .bss           0x00000000        0x0 build/lcdc_rgba888_mxt_9x60_wvga/debug/_ext/1195110755/legato_widget_label_skin_classic.o
 .text          0x00000000        0x0 build/lcdc_rgba888_mxt_9x60_wvga/debug/_ext/1195110755/legato_widget_label.o
 .data          0x00000000        0x0 build/lcdc_rgba888_mxt_9x60_wvga/debug/_ext/1195110755/legato_widget_label.o
 .bss           0x00000000        0x0 build/lcdc_rgba888_mxt_9x60_wvga/debug/_ext/1195110755/legato_widget_label.o
 .text          0x00000000        0x0 build/lcdc_rgba888_mxt_9x60_wvga/debug/_ext/1839659221/legato_widget_line_skin_classic.o
 .data          0x00000000        0x0 build/lcdc_rgba888_mxt_9x60_wvga/debug/_ext/1839659221/legato_widget_line_skin_classic.o
 .bss           0x00000000        0x0 build/lcdc_rgba888_mxt_9x60_wvga/debug/_ext/1839659221/legato_widget_line_skin_classic.o
 .debug_info    0x00000000      0x447 build/lcdc_rgba888_mxt_9x60_wvga/debug/_ext/1839659221/legato_widget_line_skin_classic.o
 .debug_abbrev  0x00000000       0xb5 build/lcdc_rgba888_mxt_9x60_wvga/debug/_ext/1839659221/legato_widget_line_skin_classic.o
 .debug_aranges
                0x00000000       0x18 build/lcdc_rgba888_mxt_9x60_wvga/debug/_ext/1839659221/legato_widget_line_skin_classic.o
 .debug_line    0x00000000       0xb8 build/lcdc_rgba888_mxt_9x60_wvga/debug/_ext/1839659221/legato_widget_line_skin_classic.o
 .debug_str     0x00000000        0x9 build/lcdc_rgba888_mxt_9x60_wvga/debug/_ext/1839659221/legato_widget_line_skin_classic.o
 .comment       0x00000000       0x2c build/lcdc_rgba888_mxt_9x60_wvga/debug/_ext/1839659221/legato_widget_line_skin_classic.o
 .ARM.attributes
                0x00000000       0x32 build/lcdc_rgba888_mxt_9x60_wvga/debug/_ext/1839659221/legato_widget_line_skin_classic.o
 .text          0x00000000        0x0 build/lcdc_rgba888_mxt_9x60_wvga/debug/_ext/1839659221/legato_widget_line.o
 .data          0x00000000        0x0 build/lcdc_rgba888_mxt_9x60_wvga/debug/_ext/1839659221/legato_widget_line.o
 .bss           0x00000000        0x0 build/lcdc_rgba888_mxt_9x60_wvga/debug/_ext/1839659221/legato_widget_line.o
 .debug_info    0x00000000      0x43a build/lcdc_rgba888_mxt_9x60_wvga/debug/_ext/1839659221/legato_widget_line.o
 .debug_abbrev  0x00000000       0xb5 build/lcdc_rgba888_mxt_9x60_wvga/debug/_ext/1839659221/legato_widget_line.o
 .debug_aranges
                0x00000000       0x18 build/lcdc_rgba888_mxt_9x60_wvga/debug/_ext/1839659221/legato_widget_line.o
 .debug_line    0x00000000       0xb8 build/lcdc_rgba888_mxt_9x60_wvga/debug/_ext/1839659221/legato_widget_line.o
 .debug_str     0x00000000        0x9 build/lcdc_rgba888_mxt_9x60_wvga/debug/_ext/1839659221/legato_widget_line.o
 .comment       0x00000000       0x2c build/lcdc_rgba888_mxt_9x60_wvga/debug/_ext/1839659221/legato_widget_line.o
 .ARM.attributes
                0x00000000       0x32 build/lcdc_rgba888_mxt_9x60_wvga/debug/_ext/1839659221/legato_widget_line.o
 .text          0x00000000        0x0 build/lcdc_rgba888_mxt_9x60_wvga/debug/_ext/1047821571/legato_widget_line_graph_skin_classic.o
 .data          0x00000000        0x0 build/lcdc_rgba888_mxt_9x60_wvga/debug/_ext/1047821571/legato_widget_line_graph_skin_classic.o
 .bss           0x00000000        0x0 build/lcdc_rgba888_mxt_9x60_wvga/debug/_ext/1047821571/legato_widget_line_graph_skin_classic.o
 .debug_info    0x00000000      0x452 build/lcdc_rgba888_mxt_9x60_wvga/debug/_ext/1047821571/legato_widget_line_graph_skin_classic.o
 .debug_abbrev  0x00000000       0xb5 build/lcdc_rgba888_mxt_9x60_wvga/debug/_ext/1047821571/legato_widget_line_graph_skin_classic.o
 .debug_aranges
                0x00000000       0x18 build/lcdc_rgba888_mxt_9x60_wvga/debug/_ext/1047821571/legato_widget_line_graph_skin_classic.o
 .debug_line    0x00000000       0xb8 build/lcdc_rgba888_mxt_9x60_wvga/debug/_ext/1047821571/legato_widget_line_graph_skin_classic.o
 .debug_str     0x00000000        0x9 build/lcdc_rgba888_mxt_9x60_wvga/debug/_ext/1047821571/legato_widget_line_graph_skin_classic.o
 .comment       0x00000000       0x2c build/lcdc_rgba888_mxt_9x60_wvga/debug/_ext/1047821571/legato_widget_line_graph_skin_classic.o
 .ARM.attributes
                0x00000000       0x32 build/lcdc_rgba888_mxt_9x60_wvga/debug/_ext/1047821571/legato_widget_line_graph_skin_classic.o
 .text          0x00000000        0x0 build/lcdc_rgba888_mxt_9x60_wvga/debug/_ext/1047821571/legato_widget_line_graph.o
 .data          0x00000000        0x0 build/lcdc_rgba888_mxt_9x60_wvga/debug/_ext/1047821571/legato_widget_line_graph.o
 .bss           0x00000000        0x0 build/lcdc_rgba888_mxt_9x60_wvga/debug/_ext/1047821571/legato_widget_line_graph.o
 .debug_info    0x00000000      0xcd5 build/lcdc_rgba888_mxt_9x60_wvga/debug/_ext/1047821571/legato_widget_line_graph.o
 .debug_abbrev  0x00000000      0x17b build/lcdc_rgba888_mxt_9x60_wvga/debug/_ext/1047821571/legato_widget_line_graph.o
 .debug_aranges
                0x00000000       0x18 build/lcdc_rgba888_mxt_9x60_wvga/debug/_ext/1047821571/legato_widget_line_graph.o
 .debug_line    0x00000000      0x10d build/lcdc_rgba888_mxt_9x60_wvga/debug/_ext/1047821571/legato_widget_line_graph.o
 .debug_str     0x00000000       0x8b build/lcdc_rgba888_mxt_9x60_wvga/debug/_ext/1047821571/legato_widget_line_graph.o
 .comment       0x00000000       0x2c build/lcdc_rgba888_mxt_9x60_wvga/debug/_ext/1047821571/legato_widget_line_graph.o
 .ARM.attributes
                0x00000000       0x32 build/lcdc_rgba888_mxt_9x60_wvga/debug/_ext/1047821571/legato_widget_line_graph.o
 .text          0x00000000        0x0 build/lcdc_rgba888_mxt_9x60_wvga/debug/_ext/1839659051/legato_widget_list.o
 .data          0x00000000        0x0 build/lcdc_rgba888_mxt_9x60_wvga/debug/_ext/1839659051/legato_widget_list.o
 .bss           0x00000000        0x0 build/lcdc_rgba888_mxt_9x60_wvga/debug/_ext/1839659051/legato_widget_list.o
 .debug_info    0x00000000      0xcca build/lcdc_rgba888_mxt_9x60_wvga/debug/_ext/1839659051/legato_widget_list.o
 .debug_abbrev  0x00000000      0x17b build/lcdc_rgba888_mxt_9x60_wvga/debug/_ext/1839659051/legato_widget_list.o
 .debug_aranges
                0x00000000       0x18 build/lcdc_rgba888_mxt_9x60_wvga/debug/_ext/1839659051/legato_widget_list.o
 .debug_line    0x00000000      0x10d build/lcdc_rgba888_mxt_9x60_wvga/debug/_ext/1839659051/legato_widget_list.o
 .debug_str     0x00000000       0x8b build/lcdc_rgba888_mxt_9x60_wvga/debug/_ext/1839659051/legato_widget_list.o
 .comment       0x00000000       0x2c build/lcdc_rgba888_mxt_9x60_wvga/debug/_ext/1839659051/legato_widget_list.o
 .ARM.attributes
                0x00000000       0x32 build/lcdc_rgba888_mxt_9x60_wvga/debug/_ext/1839659051/legato_widget_list.o
 .text          0x00000000        0x0 build/lcdc_rgba888_mxt_9x60_wvga/debug/_ext/1839659051/legato_widget_list_skin_classic.o
 .data          0x00000000        0x0 build/lcdc_rgba888_mxt_9x60_wvga/debug/_ext/1839659051/legato_widget_list_skin_classic.o
 .bss           0x00000000        0x0 build/lcdc_rgba888_mxt_9x60_wvga/debug/_ext/1839659051/legato_widget_list_skin_classic.o
 .debug_info    0x00000000      0x447 build/lcdc_rgba888_mxt_9x60_wvga/debug/_ext/1839659051/legato_widget_list_skin_classic.o
 .debug_abbrev  0x00000000       0xb5 build/lcdc_rgba888_mxt_9x60_wvga/debug/_ext/1839659051/legato_widget_list_skin_classic.o
 .debug_aranges
                0x00000000       0x18 build/lcdc_rgba888_mxt_9x60_wvga/debug/_ext/1839659051/legato_widget_list_skin_classic.o
 .debug_line    0x00000000       0xb8 build/lcdc_rgba888_mxt_9x60_wvga/debug/_ext/1839659051/legato_widget_list_skin_classic.o
 .debug_str     0x00000000        0x9 build/lcdc_rgba888_mxt_9x60_wvga/debug/_ext/1839659051/legato_widget_list_skin_classic.o
 .comment       0x00000000       0x2c build/lcdc_rgba888_mxt_9x60_wvga/debug/_ext/1839659051/legato_widget_list_skin_classic.o
 .ARM.attributes
                0x00000000       0x32 build/lcdc_rgba888_mxt_9x60_wvga/debug/_ext/1839659051/legato_widget_list_skin_classic.o
 .text          0x00000000        0x0 build/lcdc_rgba888_mxt_9x60_wvga/debug/_ext/1634291878/legato_widget_listwheel.o
 .data          0x00000000        0x0 build/lcdc_rgba888_mxt_9x60_wvga/debug/_ext/1634291878/legato_widget_listwheel.o
 .bss           0x00000000        0x0 build/lcdc_rgba888_mxt_9x60_wvga/debug/_ext/1634291878/legato_widget_listwheel.o
 .debug_info    0x00000000      0xcd4 build/lcdc_rgba888_mxt_9x60_wvga/debug/_ext/1634291878/legato_widget_listwheel.o
 .debug_abbrev  0x00000000      0x17b build/lcdc_rgba888_mxt_9x60_wvga/debug/_ext/1634291878/legato_widget_listwheel.o
 .debug_aranges
                0x00000000       0x18 build/lcdc_rgba888_mxt_9x60_wvga/debug/_ext/1634291878/legato_widget_listwheel.o
 .debug_line    0x00000000      0x10d build/lcdc_rgba888_mxt_9x60_wvga/debug/_ext/1634291878/legato_widget_listwheel.o
 .debug_str     0x00000000       0x8b build/lcdc_rgba888_mxt_9x60_wvga/debug/_ext/1634291878/legato_widget_listwheel.o
 .comment       0x00000000       0x2c build/lcdc_rgba888_mxt_9x60_wvga/debug/_ext/1634291878/legato_widget_listwheel.o
 .ARM.attributes
                0x00000000       0x32 build/lcdc_rgba888_mxt_9x60_wvga/debug/_ext/1634291878/legato_widget_listwheel.o
 .text          0x00000000        0x0 build/lcdc_rgba888_mxt_9x60_wvga/debug/_ext/1634291878/legato_widget_listwheel_skin_classic.o
 .data          0x00000000        0x0 build/lcdc_rgba888_mxt_9x60_wvga/debug/_ext/1634291878/legato_widget_listwheel_skin_classic.o
 .bss           0x00000000        0x0 build/lcdc_rgba888_mxt_9x60_wvga/debug/_ext/1634291878/legato_widget_listwheel_skin_classic.o
 .debug_info    0x00000000      0x451 build/lcdc_rgba888_mxt_9x60_wvga/debug/_ext/1634291878/legato_widget_listwheel_skin_classic.o
 .debug_abbrev  0x00000000       0xb5 build/lcdc_rgba888_mxt_9x60_wvga/debug/_ext/1634291878/legato_widget_listwheel_skin_classic.o
 .debug_aranges
                0x00000000       0x18 build/lcdc_rgba888_mxt_9x60_wvga/debug/_ext/1634291878/legato_widget_listwheel_skin_classic.o
 .debug_line    0x00000000       0xb8 build/lcdc_rgba888_mxt_9x60_wvga/debug/_ext/1634291878/legato_widget_listwheel_skin_classic.o
 .debug_str     0x00000000        0x9 build/lcdc_rgba888_mxt_9x60_wvga/debug/_ext/1634291878/legato_widget_listwheel_skin_classic.o
 .comment       0x00000000       0x2c build/lcdc_rgba888_mxt_9x60_wvga/debug/_ext/1634291878/legato_widget_listwheel_skin_classic.o
 .ARM.attributes
                0x00000000       0x32 build/lcdc_rgba888_mxt_9x60_wvga/debug/_ext/1634291878/legato_widget_listwheel_skin_classic.o
 .text          0x00000000        0x0 build/lcdc_rgba888_mxt_9x60_wvga/debug/_ext/1290198647/legato_widget_pie_chart_skin_classic.o
 .data          0x00000000        0x0 build/lcdc_rgba888_mxt_9x60_wvga/debug/_ext/1290198647/legato_widget_pie_chart_skin_classic.o
 .bss           0x00000000        0x0 build/lcdc_rgba888_mxt_9x60_wvga/debug/_ext/1290198647/legato_widget_pie_chart_skin_classic.o
 .debug_info    0x00000000      0x450 build/lcdc_rgba888_mxt_9x60_wvga/debug/_ext/1290198647/legato_widget_pie_chart_skin_classic.o
 .debug_abbrev  0x00000000       0xb5 build/lcdc_rgba888_mxt_9x60_wvga/debug/_ext/1290198647/legato_widget_pie_chart_skin_classic.o
 .debug_aranges
                0x00000000       0x18 build/lcdc_rgba888_mxt_9x60_wvga/debug/_ext/1290198647/legato_widget_pie_chart_skin_classic.o
 .debug_line    0x00000000       0xb8 build/lcdc_rgba888_mxt_9x60_wvga/debug/_ext/1290198647/legato_widget_pie_chart_skin_classic.o
 .debug_str     0x00000000        0x9 build/lcdc_rgba888_mxt_9x60_wvga/debug/_ext/1290198647/legato_widget_pie_chart_skin_classic.o
 .comment       0x00000000       0x2c build/lcdc_rgba888_mxt_9x60_wvga/debug/_ext/1290198647/legato_widget_pie_chart_skin_classic.o
 .ARM.attributes
                0x00000000       0x32 build/lcdc_rgba888_mxt_9x60_wvga/debug/_ext/1290198647/legato_widget_pie_chart_skin_classic.o
 .text          0x00000000        0x0 build/lcdc_rgba888_mxt_9x60_wvga/debug/_ext/1290198647/legato_widget_pie_chart.o
 .data          0x00000000        0x0 build/lcdc_rgba888_mxt_9x60_wvga/debug/_ext/1290198647/legato_widget_pie_chart.o
 .bss           0x00000000        0x0 build/lcdc_rgba888_mxt_9x60_wvga/debug/_ext/1290198647/legato_widget_pie_chart.o
 .debug_info    0x00000000      0x443 build/lcdc_rgba888_mxt_9x60_wvga/debug/_ext/1290198647/legato_widget_pie_chart.o
 .debug_abbrev  0x00000000       0xb5 build/lcdc_rgba888_mxt_9x60_wvga/debug/_ext/1290198647/legato_widget_pie_chart.o
 .debug_aranges
                0x00000000       0x18 build/lcdc_rgba888_mxt_9x60_wvga/debug/_ext/1290198647/legato_widget_pie_chart.o
 .debug_line    0x00000000       0xb8 build/lcdc_rgba888_mxt_9x60_wvga/debug/_ext/1290198647/legato_widget_pie_chart.o
 .debug_str     0x00000000        0x9 build/lcdc_rgba888_mxt_9x60_wvga/debug/_ext/1290198647/legato_widget_pie_chart.o
 .comment       0x00000000       0x2c build/lcdc_rgba888_mxt_9x60_wvga/debug/_ext/1290198647/legato_widget_pie_chart.o
 .ARM.attributes
                0x00000000       0x32 build/lcdc_rgba888_mxt_9x60_wvga/debug/_ext/1290198647/legato_widget_pie_chart.o
 .text          0x00000000        0x0 build/lcdc_rgba888_mxt_9x60_wvga/debug/_ext/231973969/legato_widget_progressbar.o
 .data          0x00000000        0x0 build/lcdc_rgba888_mxt_9x60_wvga/debug/_ext/231973969/legato_widget_progressbar.o
 .bss           0x00000000        0x0 build/lcdc_rgba888_mxt_9x60_wvga/debug/_ext/231973969/legato_widget_progressbar.o
 .debug_info    0x00000000      0xcd8 build/lcdc_rgba888_mxt_9x60_wvga/debug/_ext/231973969/legato_widget_progressbar.o
 .debug_abbrev  0x00000000      0x17b build/lcdc_rgba888_mxt_9x60_wvga/debug/_ext/231973969/legato_widget_progressbar.o
 .debug_aranges
                0x00000000       0x18 build/lcdc_rgba888_mxt_9x60_wvga/debug/_ext/231973969/legato_widget_progressbar.o
 .debug_line    0x00000000      0x10d build/lcdc_rgba888_mxt_9x60_wvga/debug/_ext/231973969/legato_widget_progressbar.o
 .debug_str     0x00000000       0x8b build/lcdc_rgba888_mxt_9x60_wvga/debug/_ext/231973969/legato_widget_progressbar.o
 .comment       0x00000000       0x2c build/lcdc_rgba888_mxt_9x60_wvga/debug/_ext/231973969/legato_widget_progressbar.o
 .ARM.attributes
                0x00000000       0x32 build/lcdc_rgba888_mxt_9x60_wvga/debug/_ext/231973969/legato_widget_progressbar.o
 .text          0x00000000        0x0 build/lcdc_rgba888_mxt_9x60_wvga/debug/_ext/231973969/legato_widget_progressbar_skin_classic.o
 .data          0x00000000        0x0 build/lcdc_rgba888_mxt_9x60_wvga/debug/_ext/231973969/legato_widget_progressbar_skin_classic.o
 .bss           0x00000000        0x0 build/lcdc_rgba888_mxt_9x60_wvga/debug/_ext/231973969/legato_widget_progressbar_skin_classic.o
 .debug_info    0x00000000      0x455 build/lcdc_rgba888_mxt_9x60_wvga/debug/_ext/231973969/legato_widget_progressbar_skin_classic.o
 .debug_abbrev  0x00000000       0xb5 build/lcdc_rgba888_mxt_9x60_wvga/debug/_ext/231973969/legato_widget_progressbar_skin_classic.o
 .debug_aranges
                0x00000000       0x18 build/lcdc_rgba888_mxt_9x60_wvga/debug/_ext/231973969/legato_widget_progressbar_skin_classic.o
 .debug_line    0x00000000       0xb8 build/lcdc_rgba888_mxt_9x60_wvga/debug/_ext/231973969/legato_widget_progressbar_skin_classic.o
 .debug_str     0x00000000        0x9 build/lcdc_rgba888_mxt_9x60_wvga/debug/_ext/231973969/legato_widget_progressbar_skin_classic.o
 .comment       0x00000000       0x2c build/lcdc_rgba888_mxt_9x60_wvga/debug/_ext/231973969/legato_widget_progressbar_skin_classic.o
 .ARM.attributes
                0x00000000       0x32 build/lcdc_rgba888_mxt_9x60_wvga/debug/_ext/231973969/legato_widget_progressbar_skin_classic.o
 .text          0x00000000        0x0 build/lcdc_rgba888_mxt_9x60_wvga/debug/_ext/1643194869/legato_widget_radial_menu.o
 .data          0x00000000        0x0 build/lcdc_rgba888_mxt_9x60_wvga/debug/_ext/1643194869/legato_widget_radial_menu.o
 .bss           0x00000000        0x0 build/lcdc_rgba888_mxt_9x60_wvga/debug/_ext/1643194869/legato_widget_radial_menu.o
 .debug_info    0x00000000      0xcd7 build/lcdc_rgba888_mxt_9x60_wvga/debug/_ext/1643194869/legato_widget_radial_menu.o
 .debug_abbrev  0x00000000      0x17b build/lcdc_rgba888_mxt_9x60_wvga/debug/_ext/1643194869/legato_widget_radial_menu.o
 .debug_aranges
                0x00000000       0x18 build/lcdc_rgba888_mxt_9x60_wvga/debug/_ext/1643194869/legato_widget_radial_menu.o
 .debug_line    0x00000000      0x10d build/lcdc_rgba888_mxt_9x60_wvga/debug/_ext/1643194869/legato_widget_radial_menu.o
 .debug_str     0x00000000       0x8b build/lcdc_rgba888_mxt_9x60_wvga/debug/_ext/1643194869/legato_widget_radial_menu.o
 .comment       0x00000000       0x2c build/lcdc_rgba888_mxt_9x60_wvga/debug/_ext/1643194869/legato_widget_radial_menu.o
 .ARM.attributes
                0x00000000       0x32 build/lcdc_rgba888_mxt_9x60_wvga/debug/_ext/1643194869/legato_widget_radial_menu.o
 .text          0x00000000        0x0 build/lcdc_rgba888_mxt_9x60_wvga/debug/_ext/1643194869/legato_widget_radial_menu_state.o
 .data          0x00000000        0x0 build/lcdc_rgba888_mxt_9x60_wvga/debug/_ext/1643194869/legato_widget_radial_menu_state.o
 .bss           0x00000000        0x0 build/lcdc_rgba888_mxt_9x60_wvga/debug/_ext/1643194869/legato_widget_radial_menu_state.o
 .debug_info    0x00000000      0xcdd build/lcdc_rgba888_mxt_9x60_wvga/debug/_ext/1643194869/legato_widget_radial_menu_state.o
 .debug_abbrev  0x00000000      0x17b build/lcdc_rgba888_mxt_9x60_wvga/debug/_ext/1643194869/legato_widget_radial_menu_state.o
 .debug_aranges
                0x00000000       0x18 build/lcdc_rgba888_mxt_9x60_wvga/debug/_ext/1643194869/legato_widget_radial_menu_state.o
 .debug_line    0x00000000      0x10d build/lcdc_rgba888_mxt_9x60_wvga/debug/_ext/1643194869/legato_widget_radial_menu_state.o
 .debug_str     0x00000000       0x8b build/lcdc_rgba888_mxt_9x60_wvga/debug/_ext/1643194869/legato_widget_radial_menu_state.o
 .comment       0x00000000       0x2c build/lcdc_rgba888_mxt_9x60_wvga/debug/_ext/1643194869/legato_widget_radial_menu_state.o
 .ARM.attributes
                0x00000000       0x32 build/lcdc_rgba888_mxt_9x60_wvga/debug/_ext/1643194869/legato_widget_radial_menu_state.o
 .text          0x00000000        0x0 build/lcdc_rgba888_mxt_9x60_wvga/debug/_ext/1643194869/legato_widget_radial_menu_skin_classic.o
 .data          0x00000000        0x0 build/lcdc_rgba888_mxt_9x60_wvga/debug/_ext/1643194869/legato_widget_radial_menu_skin_classic.o
 .bss           0x00000000        0x0 build/lcdc_rgba888_mxt_9x60_wvga/debug/_ext/1643194869/legato_widget_radial_menu_skin_classic.o
 .debug_info    0x00000000      0xce4 build/lcdc_rgba888_mxt_9x60_wvga/debug/_ext/1643194869/legato_widget_radial_menu_skin_classic.o
 .debug_abbrev  0x00000000      0x17b build/lcdc_rgba888_mxt_9x60_wvga/debug/_ext/1643194869/legato_widget_radial_menu_skin_classic.o
 .debug_aranges
                0x00000000       0x18 build/lcdc_rgba888_mxt_9x60_wvga/debug/_ext/1643194869/legato_widget_radial_menu_skin_classic.o
 .debug_line    0x00000000      0x10d build/lcdc_rgba888_mxt_9x60_wvga/debug/_ext/1643194869/legato_widget_radial_menu_skin_classic.o
 .debug_str     0x00000000       0x8b build/lcdc_rgba888_mxt_9x60_wvga/debug/_ext/1643194869/legato_widget_radial_menu_skin_classic.o
 .comment       0x00000000       0x2c build/lcdc_rgba888_mxt_9x60_wvga/debug/_ext/1643194869/legato_widget_radial_menu_skin_classic.o
 .ARM.attributes
                0x00000000       0x32 build/lcdc_rgba888_mxt_9x60_wvga/debug/_ext/1643194869/legato_widget_radial_menu_skin_classic.o
 .text          0x00000000        0x0 build/lcdc_rgba888_mxt_9x60_wvga/debug/_ext/1338867754/legato_widget_radiobutton_skin_classic.o
 .data          0x00000000        0x0 build/lcdc_rgba888_mxt_9x60_wvga/debug/_ext/1338867754/legato_widget_radiobutton_skin_classic.o
 .bss           0x00000000        0x0 build/lcdc_rgba888_mxt_9x60_wvga/debug/_ext/1338867754/legato_widget_radiobutton_skin_classic.o
 .debug_info    0x00000000      0x455 build/lcdc_rgba888_mxt_9x60_wvga/debug/_ext/1338867754/legato_widget_radiobutton_skin_classic.o
 .debug_abbrev  0x00000000       0xb5 build/lcdc_rgba888_mxt_9x60_wvga/debug/_ext/1338867754/legato_widget_radiobutton_skin_classic.o
 .debug_aranges
                0x00000000       0x18 build/lcdc_rgba888_mxt_9x60_wvga/debug/_ext/1338867754/legato_widget_radiobutton_skin_classic.o
 .debug_line    0x00000000       0xb8 build/lcdc_rgba888_mxt_9x60_wvga/debug/_ext/1338867754/legato_widget_radiobutton_skin_classic.o
 .debug_str     0x00000000        0x9 build/lcdc_rgba888_mxt_9x60_wvga/debug/_ext/1338867754/legato_widget_radiobutton_skin_classic.o
 .comment       0x00000000       0x2c build/lcdc_rgba888_mxt_9x60_wvga/debug/_ext/1338867754/legato_widget_radiobutton_skin_classic.o
 .ARM.attributes
                0x00000000       0x32 build/lcdc_rgba888_mxt_9x60_wvga/debug/_ext/1338867754/legato_widget_radiobutton_skin_classic.o
 .text          0x00000000        0x0 build/lcdc_rgba888_mxt_9x60_wvga/debug/_ext/1338867754/legato_widget_radiobutton.o
 .data          0x00000000        0x0 build/lcdc_rgba888_mxt_9x60_wvga/debug/_ext/1338867754/legato_widget_radiobutton.o
 .bss           0x00000000        0x0 build/lcdc_rgba888_mxt_9x60_wvga/debug/_ext/1338867754/legato_widget_radiobutton.o
 .debug_info    0x00000000      0xcd8 build/lcdc_rgba888_mxt_9x60_wvga/debug/_ext/1338867754/legato_widget_radiobutton.o
 .debug_abbrev  0x00000000      0x17b build/lcdc_rgba888_mxt_9x60_wvga/debug/_ext/1338867754/legato_widget_radiobutton.o
 .debug_aranges
                0x00000000       0x18 build/lcdc_rgba888_mxt_9x60_wvga/debug/_ext/1338867754/legato_widget_radiobutton.o
 .debug_line    0x00000000      0x10d build/lcdc_rgba888_mxt_9x60_wvga/debug/_ext/1338867754/legato_widget_radiobutton.o
 .debug_str     0x00000000       0x8b build/lcdc_rgba888_mxt_9x60_wvga/debug/_ext/1338867754/legato_widget_radiobutton.o
 .comment       0x00000000       0x2c build/lcdc_rgba888_mxt_9x60_wvga/debug/_ext/1338867754/legato_widget_radiobutton.o
 .ARM.attributes
                0x00000000       0x32 build/lcdc_rgba888_mxt_9x60_wvga/debug/_ext/1338867754/legato_widget_radiobutton.o
 .text          0x00000000        0x0 build/lcdc_rgba888_mxt_9x60_wvga/debug/_ext/1338867754/legato_radiobutton_group.o
 .data          0x00000000        0x0 build/lcdc_rgba888_mxt_9x60_wvga/debug/_ext/1338867754/legato_radiobutton_group.o
 .bss           0x00000000        0x0 build/lcdc_rgba888_mxt_9x60_wvga/debug/_ext/1338867754/legato_radiobutton_group.o
 .debug_info    0x00000000      0x447 build/lcdc_rgba888_mxt_9x60_wvga/debug/_ext/1338867754/legato_radiobutton_group.o
 .debug_abbrev  0x00000000       0xb5 build/lcdc_rgba888_mxt_9x60_wvga/debug/_ext/1338867754/legato_radiobutton_group.o
 .debug_aranges
                0x00000000       0x18 build/lcdc_rgba888_mxt_9x60_wvga/debug/_ext/1338867754/legato_radiobutton_group.o
 .debug_line    0x00000000       0xb8 build/lcdc_rgba888_mxt_9x60_wvga/debug/_ext/1338867754/legato_radiobutton_group.o
 .debug_str     0x00000000        0x9 build/lcdc_rgba888_mxt_9x60_wvga/debug/_ext/1338867754/legato_radiobutton_group.o
 .comment       0x00000000       0x2c build/lcdc_rgba888_mxt_9x60_wvga/debug/_ext/1338867754/legato_radiobutton_group.o
 .ARM.attributes
                0x00000000       0x32 build/lcdc_rgba888_mxt_9x60_wvga/debug/_ext/1338867754/legato_radiobutton_group.o
 .text          0x00000000        0x0 build/lcdc_rgba888_mxt_9x60_wvga/debug/_ext/337100648/legato_widget_rectangle_skin_classic.o
 .data          0x00000000        0x0 build/lcdc_rgba888_mxt_9x60_wvga/debug/_ext/337100648/legato_widget_rectangle_skin_classic.o
 .bss           0x00000000        0x0 build/lcdc_rgba888_mxt_9x60_wvga/debug/_ext/337100648/legato_widget_rectangle_skin_classic.o
 .text          0x00000000        0x0 build/lcdc_rgba888_mxt_9x60_wvga/debug/_ext/337100648/legato_widget_rectangle.o
 .data          0x00000000        0x0 build/lcdc_rgba888_mxt_9x60_wvga/debug/_ext/337100648/legato_widget_rectangle.o
 .bss           0x00000000        0x0 build/lcdc_rgba888_mxt_9x60_wvga/debug/_ext/337100648/legato_widget_rectangle.o
 .text          0x00000000        0x0 build/lcdc_rgba888_mxt_9x60_wvga/debug/_ext/1040606897/legato_widget_scrollbar.o
 .data          0x00000000        0x0 build/lcdc_rgba888_mxt_9x60_wvga/debug/_ext/1040606897/legato_widget_scrollbar.o
 .bss           0x00000000        0x0 build/lcdc_rgba888_mxt_9x60_wvga/debug/_ext/1040606897/legato_widget_scrollbar.o
 .debug_info    0x00000000      0xcd4 build/lcdc_rgba888_mxt_9x60_wvga/debug/_ext/1040606897/legato_widget_scrollbar.o
 .debug_abbrev  0x00000000      0x17b build/lcdc_rgba888_mxt_9x60_wvga/debug/_ext/1040606897/legato_widget_scrollbar.o
 .debug_aranges
                0x00000000       0x18 build/lcdc_rgba888_mxt_9x60_wvga/debug/_ext/1040606897/legato_widget_scrollbar.o
 .debug_line    0x00000000      0x10d build/lcdc_rgba888_mxt_9x60_wvga/debug/_ext/1040606897/legato_widget_scrollbar.o
 .debug_str     0x00000000       0x8b build/lcdc_rgba888_mxt_9x60_wvga/debug/_ext/1040606897/legato_widget_scrollbar.o
 .comment       0x00000000       0x2c build/lcdc_rgba888_mxt_9x60_wvga/debug/_ext/1040606897/legato_widget_scrollbar.o
 .ARM.attributes
                0x00000000       0x32 build/lcdc_rgba888_mxt_9x60_wvga/debug/_ext/1040606897/legato_widget_scrollbar.o
 .text          0x00000000        0x0 build/lcdc_rgba888_mxt_9x60_wvga/debug/_ext/1040606897/legato_widget_scrollbar_skin_classic.o
 .data          0x00000000        0x0 build/lcdc_rgba888_mxt_9x60_wvga/debug/_ext/1040606897/legato_widget_scrollbar_skin_classic.o
 .bss           0x00000000        0x0 build/lcdc_rgba888_mxt_9x60_wvga/debug/_ext/1040606897/legato_widget_scrollbar_skin_classic.o
 .debug_info    0x00000000      0x451 build/lcdc_rgba888_mxt_9x60_wvga/debug/_ext/1040606897/legato_widget_scrollbar_skin_classic.o
 .debug_abbrev  0x00000000       0xb5 build/lcdc_rgba888_mxt_9x60_wvga/debug/_ext/1040606897/legato_widget_scrollbar_skin_classic.o
 .debug_aranges
                0x00000000       0x18 build/lcdc_rgba888_mxt_9x60_wvga/debug/_ext/1040606897/legato_widget_scrollbar_skin_classic.o
 .debug_line    0x00000000       0xb8 build/lcdc_rgba888_mxt_9x60_wvga/debug/_ext/1040606897/legato_widget_scrollbar_skin_classic.o
 .debug_str     0x00000000        0x9 build/lcdc_rgba888_mxt_9x60_wvga/debug/_ext/1040606897/legato_widget_scrollbar_skin_classic.o
 .comment       0x00000000       0x2c build/lcdc_rgba888_mxt_9x60_wvga/debug/_ext/1040606897/legato_widget_scrollbar_skin_classic.o
 .ARM.attributes
                0x00000000       0x32 build/lcdc_rgba888_mxt_9x60_wvga/debug/_ext/1040606897/legato_widget_scrollbar_skin_classic.o
 .text          0x00000000        0x0 build/lcdc_rgba888_mxt_9x60_wvga/debug/_ext/1817042520/legato_widget_slider.o
 .data          0x00000000        0x0 build/lcdc_rgba888_mxt_9x60_wvga/debug/_ext/1817042520/legato_widget_slider.o
 .bss           0x00000000        0x0 build/lcdc_rgba888_mxt_9x60_wvga/debug/_ext/1817042520/legato_widget_slider.o
 .debug_info    0x00000000      0xcce build/lcdc_rgba888_mxt_9x60_wvga/debug/_ext/1817042520/legato_widget_slider.o
 .debug_abbrev  0x00000000      0x17b build/lcdc_rgba888_mxt_9x60_wvga/debug/_ext/1817042520/legato_widget_slider.o
 .debug_aranges
                0x00000000       0x18 build/lcdc_rgba888_mxt_9x60_wvga/debug/_ext/1817042520/legato_widget_slider.o
 .debug_line    0x00000000      0x10d build/lcdc_rgba888_mxt_9x60_wvga/debug/_ext/1817042520/legato_widget_slider.o
 .debug_str     0x00000000       0x8b build/lcdc_rgba888_mxt_9x60_wvga/debug/_ext/1817042520/legato_widget_slider.o
 .comment       0x00000000       0x2c build/lcdc_rgba888_mxt_9x60_wvga/debug/_ext/1817042520/legato_widget_slider.o
 .ARM.attributes
                0x00000000       0x32 build/lcdc_rgba888_mxt_9x60_wvga/debug/_ext/1817042520/legato_widget_slider.o
 .text          0x00000000        0x0 build/lcdc_rgba888_mxt_9x60_wvga/debug/_ext/1817042520/legato_widget_slider_skin_classic.o
 .data          0x00000000        0x0 build/lcdc_rgba888_mxt_9x60_wvga/debug/_ext/1817042520/legato_widget_slider_skin_classic.o
 .bss           0x00000000        0x0 build/lcdc_rgba888_mxt_9x60_wvga/debug/_ext/1817042520/legato_widget_slider_skin_classic.o
 .debug_info    0x00000000      0x44b build/lcdc_rgba888_mxt_9x60_wvga/debug/_ext/1817042520/legato_widget_slider_skin_classic.o
 .debug_abbrev  0x00000000       0xb5 build/lcdc_rgba888_mxt_9x60_wvga/debug/_ext/1817042520/legato_widget_slider_skin_classic.o
 .debug_aranges
                0x00000000       0x18 build/lcdc_rgba888_mxt_9x60_wvga/debug/_ext/1817042520/legato_widget_slider_skin_classic.o
 .debug_line    0x00000000       0xb8 build/lcdc_rgba888_mxt_9x60_wvga/debug/_ext/1817042520/legato_widget_slider_skin_classic.o
 .debug_str     0x00000000        0x9 build/lcdc_rgba888_mxt_9x60_wvga/debug/_ext/1817042520/legato_widget_slider_skin_classic.o
 .comment       0x00000000       0x2c build/lcdc_rgba888_mxt_9x60_wvga/debug/_ext/1817042520/legato_widget_slider_skin_classic.o
 .ARM.attributes
                0x00000000       0x32 build/lcdc_rgba888_mxt_9x60_wvga/debug/_ext/1817042520/legato_widget_slider_skin_classic.o
 .text          0x00000000        0x0 build/lcdc_rgba888_mxt_9x60_wvga/debug/_ext/1805132566/legato_widget_textfield.o
 .data          0x00000000        0x0 build/lcdc_rgba888_mxt_9x60_wvga/debug/_ext/1805132566/legato_widget_textfield.o
 .bss           0x00000000        0x0 build/lcdc_rgba888_mxt_9x60_wvga/debug/_ext/1805132566/legato_widget_textfield.o
 .debug_info    0x00000000      0xcd4 build/lcdc_rgba888_mxt_9x60_wvga/debug/_ext/1805132566/legato_widget_textfield.o
 .debug_abbrev  0x00000000      0x17b build/lcdc_rgba888_mxt_9x60_wvga/debug/_ext/1805132566/legato_widget_textfield.o
 .debug_aranges
                0x00000000       0x18 build/lcdc_rgba888_mxt_9x60_wvga/debug/_ext/1805132566/legato_widget_textfield.o
 .debug_line    0x00000000      0x10d build/lcdc_rgba888_mxt_9x60_wvga/debug/_ext/1805132566/legato_widget_textfield.o
 .debug_str     0x00000000       0x8b build/lcdc_rgba888_mxt_9x60_wvga/debug/_ext/1805132566/legato_widget_textfield.o
 .comment       0x00000000       0x2c build/lcdc_rgba888_mxt_9x60_wvga/debug/_ext/1805132566/legato_widget_textfield.o
 .ARM.attributes
                0x00000000       0x32 build/lcdc_rgba888_mxt_9x60_wvga/debug/_ext/1805132566/legato_widget_textfield.o
 .text          0x00000000        0x0 build/lcdc_rgba888_mxt_9x60_wvga/debug/_ext/1805132566/legato_widget_textfield_skin_classic.o
 .data          0x00000000        0x0 build/lcdc_rgba888_mxt_9x60_wvga/debug/_ext/1805132566/legato_widget_textfield_skin_classic.o
 .bss           0x00000000        0x0 build/lcdc_rgba888_mxt_9x60_wvga/debug/_ext/1805132566/legato_widget_textfield_skin_classic.o
 .debug_info    0x00000000      0xce1 build/lcdc_rgba888_mxt_9x60_wvga/debug/_ext/1805132566/legato_widget_textfield_skin_classic.o
 .debug_abbrev  0x00000000      0x17b build/lcdc_rgba888_mxt_9x60_wvga/debug/_ext/1805132566/legato_widget_textfield_skin_classic.o
 .debug_aranges
                0x00000000       0x18 build/lcdc_rgba888_mxt_9x60_wvga/debug/_ext/1805132566/legato_widget_textfield_skin_classic.o
 .debug_line    0x00000000      0x10d build/lcdc_rgba888_mxt_9x60_wvga/debug/_ext/1805132566/legato_widget_textfield_skin_classic.o
 .debug_str     0x00000000       0x8b build/lcdc_rgba888_mxt_9x60_wvga/debug/_ext/1805132566/legato_widget_textfield_skin_classic.o
 .comment       0x00000000       0x2c build/lcdc_rgba888_mxt_9x60_wvga/debug/_ext/1805132566/legato_widget_textfield_skin_classic.o
 .ARM.attributes
                0x00000000       0x32 build/lcdc_rgba888_mxt_9x60_wvga/debug/_ext/1805132566/legato_widget_textfield_skin_classic.o
 .text          0x00000000        0x0 build/lcdc_rgba888_mxt_9x60_wvga/debug/_ext/1093664902/legato_widget_touchtest_skin_classic.o
 .data          0x00000000        0x0 build/lcdc_rgba888_mxt_9x60_wvga/debug/_ext/1093664902/legato_widget_touchtest_skin_classic.o
 .bss           0x00000000        0x0 build/lcdc_rgba888_mxt_9x60_wvga/debug/_ext/1093664902/legato_widget_touchtest_skin_classic.o
 .debug_info    0x00000000      0xce1 build/lcdc_rgba888_mxt_9x60_wvga/debug/_ext/1093664902/legato_widget_touchtest_skin_classic.o
 .debug_abbrev  0x00000000      0x17b build/lcdc_rgba888_mxt_9x60_wvga/debug/_ext/1093664902/legato_widget_touchtest_skin_classic.o
 .debug_aranges
                0x00000000       0x18 build/lcdc_rgba888_mxt_9x60_wvga/debug/_ext/1093664902/legato_widget_touchtest_skin_classic.o
 .debug_line    0x00000000      0x10d build/lcdc_rgba888_mxt_9x60_wvga/debug/_ext/1093664902/legato_widget_touchtest_skin_classic.o
 .debug_str     0x00000000       0x8b build/lcdc_rgba888_mxt_9x60_wvga/debug/_ext/1093664902/legato_widget_touchtest_skin_classic.o
 .comment       0x00000000       0x2c build/lcdc_rgba888_mxt_9x60_wvga/debug/_ext/1093664902/legato_widget_touchtest_skin_classic.o
 .ARM.attributes
                0x00000000       0x32 build/lcdc_rgba888_mxt_9x60_wvga/debug/_ext/1093664902/legato_widget_touchtest_skin_classic.o
 .text          0x00000000        0x0 build/lcdc_rgba888_mxt_9x60_wvga/debug/_ext/1093664902/legato_widget_touchtest.o
 .data          0x00000000        0x0 build/lcdc_rgba888_mxt_9x60_wvga/debug/_ext/1093664902/legato_widget_touchtest.o
 .bss           0x00000000        0x0 build/lcdc_rgba888_mxt_9x60_wvga/debug/_ext/1093664902/legato_widget_touchtest.o
 .debug_info    0x00000000      0x444 build/lcdc_rgba888_mxt_9x60_wvga/debug/_ext/1093664902/legato_widget_touchtest.o
 .debug_abbrev  0x00000000       0xb5 build/lcdc_rgba888_mxt_9x60_wvga/debug/_ext/1093664902/legato_widget_touchtest.o
 .debug_aranges
                0x00000000       0x18 build/lcdc_rgba888_mxt_9x60_wvga/debug/_ext/1093664902/legato_widget_touchtest.o
 .debug_line    0x00000000       0xb8 build/lcdc_rgba888_mxt_9x60_wvga/debug/_ext/1093664902/legato_widget_touchtest.o
 .debug_str     0x00000000        0x9 build/lcdc_rgba888_mxt_9x60_wvga/debug/_ext/1093664902/legato_widget_touchtest.o
 .comment       0x00000000       0x2c build/lcdc_rgba888_mxt_9x60_wvga/debug/_ext/1093664902/legato_widget_touchtest.o
 .ARM.attributes
                0x00000000       0x32 build/lcdc_rgba888_mxt_9x60_wvga/debug/_ext/1093664902/legato_widget_touchtest.o
 .text          0x00000000        0x0 build/lcdc_rgba888_mxt_9x60_wvga/debug/_ext/1928937831/legato_widget_window_skin_classic.o
 .data          0x00000000        0x0 build/lcdc_rgba888_mxt_9x60_wvga/debug/_ext/1928937831/legato_widget_window_skin_classic.o
 .bss           0x00000000        0x0 build/lcdc_rgba888_mxt_9x60_wvga/debug/_ext/1928937831/legato_widget_window_skin_classic.o
 .debug_info    0x00000000      0x44b build/lcdc_rgba888_mxt_9x60_wvga/debug/_ext/1928937831/legato_widget_window_skin_classic.o
 .debug_abbrev  0x00000000       0xb5 build/lcdc_rgba888_mxt_9x60_wvga/debug/_ext/1928937831/legato_widget_window_skin_classic.o
 .debug_aranges
                0x00000000       0x18 build/lcdc_rgba888_mxt_9x60_wvga/debug/_ext/1928937831/legato_widget_window_skin_classic.o
 .debug_line    0x00000000       0xb8 build/lcdc_rgba888_mxt_9x60_wvga/debug/_ext/1928937831/legato_widget_window_skin_classic.o
 .debug_str     0x00000000        0x9 build/lcdc_rgba888_mxt_9x60_wvga/debug/_ext/1928937831/legato_widget_window_skin_classic.o
 .comment       0x00000000       0x2c build/lcdc_rgba888_mxt_9x60_wvga/debug/_ext/1928937831/legato_widget_window_skin_classic.o
 .ARM.attributes
                0x00000000       0x32 build/lcdc_rgba888_mxt_9x60_wvga/debug/_ext/1928937831/legato_widget_window_skin_classic.o
 .text          0x00000000        0x0 build/lcdc_rgba888_mxt_9x60_wvga/debug/_ext/1928937831/legato_widget_window.o
 .data          0x00000000        0x0 build/lcdc_rgba888_mxt_9x60_wvga/debug/_ext/1928937831/legato_widget_window.o
 .bss           0x00000000        0x0 build/lcdc_rgba888_mxt_9x60_wvga/debug/_ext/1928937831/legato_widget_window.o
 .debug_info    0x00000000      0x43e build/lcdc_rgba888_mxt_9x60_wvga/debug/_ext/1928937831/legato_widget_window.o
 .debug_abbrev  0x00000000       0xb5 build/lcdc_rgba888_mxt_9x60_wvga/debug/_ext/1928937831/legato_widget_window.o
 .debug_aranges
                0x00000000       0x18 build/lcdc_rgba888_mxt_9x60_wvga/debug/_ext/1928937831/legato_widget_window.o
 .debug_line    0x00000000       0xb8 build/lcdc_rgba888_mxt_9x60_wvga/debug/_ext/1928937831/legato_widget_window.o
 .debug_str     0x00000000        0x9 build/lcdc_rgba888_mxt_9x60_wvga/debug/_ext/1928937831/legato_widget_window.o
 .comment       0x00000000       0x2c build/lcdc_rgba888_mxt_9x60_wvga/debug/_ext/1928937831/legato_widget_window.o
 .ARM.attributes
                0x00000000       0x32 build/lcdc_rgba888_mxt_9x60_wvga/debug/_ext/1928937831/legato_widget_window.o
 .text          0x00000000        0x0 build/lcdc_rgba888_mxt_9x60_wvga/debug/_ext/261620856/legato_widget_skin_classic.o
 .data          0x00000000        0x0 build/lcdc_rgba888_mxt_9x60_wvga/debug/_ext/261620856/legato_widget_skin_classic.o
 .bss           0x00000000        0x0 build/lcdc_rgba888_mxt_9x60_wvga/debug/_ext/261620856/legato_widget_skin_classic.o
 .text          0x00000000        0x0 build/lcdc_rgba888_mxt_9x60_wvga/debug/_ext/261620856/legato_widget.o
 .data          0x00000000        0x0 build/lcdc_rgba888_mxt_9x60_wvga/debug/_ext/261620856/legato_widget.o
 .bss           0x00000000        0x0 build/lcdc_rgba888_mxt_9x60_wvga/debug/_ext/261620856/legato_widget.o
 .text          0x00000000        0x0 build/lcdc_rgba888_mxt_9x60_wvga/debug/_ext/261620856/legato_widget_skin_classic_common.o
 .data          0x00000000        0x0 build/lcdc_rgba888_mxt_9x60_wvga/debug/_ext/261620856/legato_widget_skin_classic_common.o
 .bss           0x00000000        0x0 build/lcdc_rgba888_mxt_9x60_wvga/debug/_ext/261620856/legato_widget_skin_classic_common.o
 .text.leDraw_2x1BevelBorder
                0x00000000       0xfc build/lcdc_rgba888_mxt_9x60_wvga/debug/_ext/261620856/legato_widget_skin_classic_common.o
 .text.leDraw_1x2BevelBorder
                0x00000000      0x108 build/lcdc_rgba888_mxt_9x60_wvga/debug/_ext/261620856/legato_widget_skin_classic_common.o
 .text.leDraw_2x2BevelBorder
                0x00000000      0x154 build/lcdc_rgba888_mxt_9x60_wvga/debug/_ext/261620856/legato_widget_skin_classic_common.o
 .text.leWidget_SkinClassic_DrawStandardRoundCornerLineBorder
                0x00000000       0x48 build/lcdc_rgba888_mxt_9x60_wvga/debug/_ext/261620856/legato_widget_skin_classic_common.o
 .text          0x00000000        0x0 build/lcdc_rgba888_mxt_9x60_wvga/debug/_ext/261620856/legato_editwidget.o
 .data          0x00000000        0x0 build/lcdc_rgba888_mxt_9x60_wvga/debug/_ext/261620856/legato_editwidget.o
 .bss           0x00000000        0x0 build/lcdc_rgba888_mxt_9x60_wvga/debug/_ext/261620856/legato_editwidget.o
 .text._leEditWidget_EditStart
                0x00000000        0x8 build/lcdc_rgba888_mxt_9x60_wvga/debug/_ext/261620856/legato_editwidget.o
 .text._leEditWidget_EditEnd
                0x00000000        0x4 build/lcdc_rgba888_mxt_9x60_wvga/debug/_ext/261620856/legato_editwidget.o
 .text._leEditWidget_EditClear
                0x00000000        0x4 build/lcdc_rgba888_mxt_9x60_wvga/debug/_ext/261620856/legato_editwidget.o
 .text._leEditWidget_EditAccept
                0x00000000        0x4 build/lcdc_rgba888_mxt_9x60_wvga/debug/_ext/261620856/legato_editwidget.o
 .text._leEditWidget_EditSet
                0x00000000        0x4 build/lcdc_rgba888_mxt_9x60_wvga/debug/_ext/261620856/legato_editwidget.o
 .text._leEditWidget_EditAppend
                0x00000000        0x4 build/lcdc_rgba888_mxt_9x60_wvga/debug/_ext/261620856/legato_editwidget.o
 .text._leEditWidget_EditBackspace
                0x00000000        0x4 build/lcdc_rgba888_mxt_9x60_wvga/debug/_ext/261620856/legato_editwidget.o
 .text._leEditWidget_Destructor
                0x00000000        0xc build/lcdc_rgba888_mxt_9x60_wvga/debug/_ext/261620856/legato_editwidget.o
 .text.leEditWidget_Constructor
                0x00000000       0x20 build/lcdc_rgba888_mxt_9x60_wvga/debug/_ext/261620856/legato_editwidget.o
 .text._leEditWidget_Clear
                0x00000000       0x20 build/lcdc_rgba888_mxt_9x60_wvga/debug/_ext/261620856/legato_editwidget.o
 .text._leEditWidget_Accept
                0x00000000       0x20 build/lcdc_rgba888_mxt_9x60_wvga/debug/_ext/261620856/legato_editwidget.o
 .text._leEditWidget_Set
                0x00000000       0x28 build/lcdc_rgba888_mxt_9x60_wvga/debug/_ext/261620856/legato_editwidget.o
 .text._leEditWidget_Append
                0x00000000       0x28 build/lcdc_rgba888_mxt_9x60_wvga/debug/_ext/261620856/legato_editwidget.o
 .text._leEditWidget_Backspace
                0x00000000       0x20 build/lcdc_rgba888_mxt_9x60_wvga/debug/_ext/261620856/legato_editwidget.o
 .rodata.editWidgetVTable
                0x00000000      0x150 build/lcdc_rgba888_mxt_9x60_wvga/debug/_ext/261620856/legato_editwidget.o
 .debug_info    0x00000000     0x38a9 build/lcdc_rgba888_mxt_9x60_wvga/debug/_ext/261620856/legato_editwidget.o
 .debug_abbrev  0x00000000      0x348 build/lcdc_rgba888_mxt_9x60_wvga/debug/_ext/261620856/legato_editwidget.o
 .debug_loc     0x00000000      0x1f9 build/lcdc_rgba888_mxt_9x60_wvga/debug/_ext/261620856/legato_editwidget.o
 .debug_aranges
                0x00000000       0x88 build/lcdc_rgba888_mxt_9x60_wvga/debug/_ext/261620856/legato_editwidget.o
 .debug_ranges  0x00000000       0x78 build/lcdc_rgba888_mxt_9x60_wvga/debug/_ext/261620856/legato_editwidget.o
 .debug_line    0x00000000      0x4f4 build/lcdc_rgba888_mxt_9x60_wvga/debug/_ext/261620856/legato_editwidget.o
 .debug_str     0x00000000      0x625 build/lcdc_rgba888_mxt_9x60_wvga/debug/_ext/261620856/legato_editwidget.o
 .comment       0x00000000       0x2c build/lcdc_rgba888_mxt_9x60_wvga/debug/_ext/261620856/legato_editwidget.o
 .debug_frame   0x00000000      0x128 build/lcdc_rgba888_mxt_9x60_wvga/debug/_ext/261620856/legato_editwidget.o
 .ARM.attributes
                0x00000000       0x2c build/lcdc_rgba888_mxt_9x60_wvga/debug/_ext/261620856/legato_editwidget.o
 .text          0x00000000        0x0 build/lcdc_rgba888_mxt_9x60_wvga/debug/_ext/440801193/gfx_simulator.o
 .data          0x00000000        0x0 build/lcdc_rgba888_mxt_9x60_wvga/debug/_ext/440801193/gfx_simulator.o
 .bss           0x00000000        0x0 build/lcdc_rgba888_mxt_9x60_wvga/debug/_ext/440801193/gfx_simulator.o
 .text.GFX_SIM_Initialize
                0x00000000        0x4 build/lcdc_rgba888_mxt_9x60_wvga/debug/_ext/440801193/gfx_simulator.o
 .text.GFX_SIM_SetPalette
                0x00000000        0x8 build/lcdc_rgba888_mxt_9x60_wvga/debug/_ext/440801193/gfx_simulator.o
 .text          0x00000000        0x0 build/lcdc_rgba888_mxt_9x60_wvga/debug/_ext/4986847/plib_aic.o
 .data          0x00000000        0x0 build/lcdc_rgba888_mxt_9x60_wvga/debug/_ext/4986847/plib_aic.o
 .bss           0x00000000        0x0 build/lcdc_rgba888_mxt_9x60_wvga/debug/_ext/4986847/plib_aic.o
 .text.AIC_INT_IrqEnable
                0x00000000       0x10 build/lcdc_rgba888_mxt_9x60_wvga/debug/_ext/4986847/plib_aic.o
 .text          0x00000000        0x0 build/lcdc_rgba888_mxt_9x60_wvga/debug/_ext/4988870/plib_clk.o
 .data          0x00000000        0x0 build/lcdc_rgba888_mxt_9x60_wvga/debug/_ext/4988870/plib_clk.o
 .bss           0x00000000        0x0 build/lcdc_rgba888_mxt_9x60_wvga/debug/_ext/4988870/plib_clk.o
 .text          0x00000000        0x0 build/lcdc_rgba888_mxt_9x60_wvga/debug/_ext/4998521/plib_mmu.o
 .data          0x00000000        0x0 build/lcdc_rgba888_mxt_9x60_wvga/debug/_ext/4998521/plib_mmu.o
 .bss           0x00000000        0x0 build/lcdc_rgba888_mxt_9x60_wvga/debug/_ext/4998521/plib_mmu.o
 .text.icache_Disable
                0x00000000       0x20 build/lcdc_rgba888_mxt_9x60_wvga/debug/_ext/4998521/plib_mmu.o
 .text.dcache_CleanAll
                0x00000000       0x38 build/lcdc_rgba888_mxt_9x60_wvga/debug/_ext/4998521/plib_mmu.o
 .text.dcache_CleanInvalidateAll
                0x00000000       0x38 build/lcdc_rgba888_mxt_9x60_wvga/debug/_ext/4998521/plib_mmu.o
 .text.dcache_InvalidateByAddr
                0x00000000       0x4c build/lcdc_rgba888_mxt_9x60_wvga/debug/_ext/4998521/plib_mmu.o
 .text.dcache_CleanByAddr
                0x00000000       0x4c build/lcdc_rgba888_mxt_9x60_wvga/debug/_ext/4998521/plib_mmu.o
 .text.dcache_CleanInvalidateByAddr
                0x00000000       0x4c build/lcdc_rgba888_mxt_9x60_wvga/debug/_ext/4998521/plib_mmu.o
 .text.dcache_Disable
                0x00000000       0x24 build/lcdc_rgba888_mxt_9x60_wvga/debug/_ext/4998521/plib_mmu.o
 .text          0x00000000        0x0 build/lcdc_rgba888_mxt_9x60_wvga/debug/_ext/5001274/plib_pio.o
 .data          0x00000000        0x0 build/lcdc_rgba888_mxt_9x60_wvga/debug/_ext/5001274/plib_pio.o
 .bss           0x00000000        0x0 build/lcdc_rgba888_mxt_9x60_wvga/debug/_ext/5001274/plib_pio.o
 .text.PIO_PortRead
                0x00000000        0x8 build/lcdc_rgba888_mxt_9x60_wvga/debug/_ext/5001274/plib_pio.o
 .text.PIO_PortWrite
                0x00000000       0x18 build/lcdc_rgba888_mxt_9x60_wvga/debug/_ext/5001274/plib_pio.o
 .text.PIO_PortLatchRead
                0x00000000        0x8 build/lcdc_rgba888_mxt_9x60_wvga/debug/_ext/5001274/plib_pio.o
 .text.PIO_PortSet
                0x00000000        0x8 build/lcdc_rgba888_mxt_9x60_wvga/debug/_ext/5001274/plib_pio.o
 .text.PIO_PortClear
                0x00000000        0x8 build/lcdc_rgba888_mxt_9x60_wvga/debug/_ext/5001274/plib_pio.o
 .text.PIO_PortToggle
                0x00000000       0x10 build/lcdc_rgba888_mxt_9x60_wvga/debug/_ext/5001274/plib_pio.o
 .text.PIO_PortInputEnable
                0x00000000        0x8 build/lcdc_rgba888_mxt_9x60_wvga/debug/_ext/5001274/plib_pio.o
 .text.PIO_PortOutputEnable
                0x00000000        0x8 build/lcdc_rgba888_mxt_9x60_wvga/debug/_ext/5001274/plib_pio.o
 .text          0x00000000        0x0 build/lcdc_rgba888_mxt_9x60_wvga/debug/_ext/286729486/xc32_monitor.o
 .data          0x00000000        0x0 build/lcdc_rgba888_mxt_9x60_wvga/debug/_ext/286729486/xc32_monitor.o
 .bss           0x00000000        0x0 build/lcdc_rgba888_mxt_9x60_wvga/debug/_ext/286729486/xc32_monitor.o
 .text.read     0x00000000        0x8 build/lcdc_rgba888_mxt_9x60_wvga/debug/_ext/286729486/xc32_monitor.o
 .text          0x00000000        0x0 build/lcdc_rgba888_mxt_9x60_wvga/debug/_ext/1408246553/sys_cache.o
 .data          0x00000000        0x0 build/lcdc_rgba888_mxt_9x60_wvga/debug/_ext/1408246553/sys_cache.o
 .bss           0x00000000        0x0 build/lcdc_rgba888_mxt_9x60_wvga/debug/_ext/1408246553/sys_cache.o
 .text.SYS_CACHE_EnableCaches
                0x00000000       0x10 build/lcdc_rgba888_mxt_9x60_wvga/debug/_ext/1408246553/sys_cache.o
 .text.SYS_CACHE_DisableCaches
                0x00000000       0x10 build/lcdc_rgba888_mxt_9x60_wvga/debug/_ext/1408246553/sys_cache.o
 .text.SYS_CACHE_EnableICache
                0x00000000        0xc build/lcdc_rgba888_mxt_9x60_wvga/debug/_ext/1408246553/sys_cache.o
 .text.SYS_CACHE_DisableICache
                0x00000000        0xc build/lcdc_rgba888_mxt_9x60_wvga/debug/_ext/1408246553/sys_cache.o
 .text.SYS_CACHE_InvalidateICache
                0x00000000        0xc build/lcdc_rgba888_mxt_9x60_wvga/debug/_ext/1408246553/sys_cache.o
 .text.SYS_CACHE_EnableDCache
                0x00000000        0xc build/lcdc_rgba888_mxt_9x60_wvga/debug/_ext/1408246553/sys_cache.o
 .text.SYS_CACHE_DisableDCache
                0x00000000        0xc build/lcdc_rgba888_mxt_9x60_wvga/debug/_ext/1408246553/sys_cache.o
 .text.SYS_CACHE_InvalidateDCache
                0x00000000        0xc build/lcdc_rgba888_mxt_9x60_wvga/debug/_ext/1408246553/sys_cache.o
 .text.SYS_CACHE_CleanDCache
                0x00000000        0xc build/lcdc_rgba888_mxt_9x60_wvga/debug/_ext/1408246553/sys_cache.o
 .text.SYS_CACHE_CleanInvalidateDCache
                0x00000000        0xc build/lcdc_rgba888_mxt_9x60_wvga/debug/_ext/1408246553/sys_cache.o
 .text.SYS_CACHE_InvalidateDCache_by_Addr
                0x00000000        0xc build/lcdc_rgba888_mxt_9x60_wvga/debug/_ext/1408246553/sys_cache.o
 .text.SYS_CACHE_CleanDCache_by_Addr
                0x00000000        0xc build/lcdc_rgba888_mxt_9x60_wvga/debug/_ext/1408246553/sys_cache.o
 .text.SYS_CACHE_CleanInvalidateDCache_by_Addr
                0x00000000        0xc build/lcdc_rgba888_mxt_9x60_wvga/debug/_ext/1408246553/sys_cache.o
 .debug_info    0x00000000      0x741 build/lcdc_rgba888_mxt_9x60_wvga/debug/_ext/1408246553/sys_cache.o
 .debug_abbrev  0x00000000       0x9d build/lcdc_rgba888_mxt_9x60_wvga/debug/_ext/1408246553/sys_cache.o
 .debug_loc     0x00000000      0x27e build/lcdc_rgba888_mxt_9x60_wvga/debug/_ext/1408246553/sys_cache.o
 .debug_aranges
                0x00000000       0x80 build/lcdc_rgba888_mxt_9x60_wvga/debug/_ext/1408246553/sys_cache.o
 .debug_ranges  0x00000000       0x70 build/lcdc_rgba888_mxt_9x60_wvga/debug/_ext/1408246553/sys_cache.o
 .debug_line    0x00000000      0x244 build/lcdc_rgba888_mxt_9x60_wvga/debug/_ext/1408246553/sys_cache.o
 .debug_str     0x00000000       0xd6 build/lcdc_rgba888_mxt_9x60_wvga/debug/_ext/1408246553/sys_cache.o
 .comment       0x00000000       0x2c build/lcdc_rgba888_mxt_9x60_wvga/debug/_ext/1408246553/sys_cache.o
 .debug_frame   0x00000000      0x148 build/lcdc_rgba888_mxt_9x60_wvga/debug/_ext/1408246553/sys_cache.o
 .ARM.attributes
                0x00000000       0x2c build/lcdc_rgba888_mxt_9x60_wvga/debug/_ext/1408246553/sys_cache.o
 .text          0x00000000        0x0 build/lcdc_rgba888_mxt_9x60_wvga/debug/_ext/1414187873/sys_input.o
 .data          0x00000000        0x0 build/lcdc_rgba888_mxt_9x60_wvga/debug/_ext/1414187873/sys_input.o
 .bss           0x00000000        0x0 build/lcdc_rgba888_mxt_9x60_wvga/debug/_ext/1414187873/sys_input.o
 .text.SYS_INP_RemoveListener
                0x00000000       0x40 build/lcdc_rgba888_mxt_9x60_wvga/debug/_ext/1414187873/sys_input.o
 .text.SYS_INP_InjectKeyDown
                0x00000000       0x40 build/lcdc_rgba888_mxt_9x60_wvga/debug/_ext/1414187873/sys_input.o
 .text.SYS_INP_InjectKeyUp
                0x00000000       0x40 build/lcdc_rgba888_mxt_9x60_wvga/debug/_ext/1414187873/sys_input.o
 .text.SYS_INP_InjectMouseButtonDown
                0x00000000       0x40 build/lcdc_rgba888_mxt_9x60_wvga/debug/_ext/1414187873/sys_input.o
 .text.SYS_INP_InjectMouseButtonUp
                0x00000000       0x40 build/lcdc_rgba888_mxt_9x60_wvga/debug/_ext/1414187873/sys_input.o
 .text.SYS_INP_InjectMouseMove
                0x00000000       0x4c build/lcdc_rgba888_mxt_9x60_wvga/debug/_ext/1414187873/sys_input.o
 .text.SYS_INP_InjectTouchDown
                0x00000000       0x54 build/lcdc_rgba888_mxt_9x60_wvga/debug/_ext/1414187873/sys_input.o
 .text.SYS_INP_InjectTouchUp
                0x00000000       0x54 build/lcdc_rgba888_mxt_9x60_wvga/debug/_ext/1414187873/sys_input.o
 .text.SYS_INP_InjectTouchMove
                0x00000000       0x54 build/lcdc_rgba888_mxt_9x60_wvga/debug/_ext/1414187873/sys_input.o
 .text.SYS_INP_InjectFlickGesture
                0x00000000       0x58 build/lcdc_rgba888_mxt_9x60_wvga/debug/_ext/1414187873/sys_input.o
 .text.SYS_INP_InjectPinchGesture
                0x00000000       0x58 build/lcdc_rgba888_mxt_9x60_wvga/debug/_ext/1414187873/sys_input.o
 .text.SYS_INP_InjectStretchGesture
                0x00000000       0x58 build/lcdc_rgba888_mxt_9x60_wvga/debug/_ext/1414187873/sys_input.o
 .text.SYS_INP_InjectRotateGesture
                0x00000000       0x60 build/lcdc_rgba888_mxt_9x60_wvga/debug/_ext/1414187873/sys_input.o
 .text.SYS_INP_InjectGenericGesture
                0x00000000       0x58 build/lcdc_rgba888_mxt_9x60_wvga/debug/_ext/1414187873/sys_input.o
 .text          0x00000000        0x0 build/lcdc_rgba888_mxt_9x60_wvga/debug/_ext/1414187873/sys_input_listener.o
 .data          0x00000000        0x0 build/lcdc_rgba888_mxt_9x60_wvga/debug/_ext/1414187873/sys_input_listener.o
 .bss           0x00000000        0x0 build/lcdc_rgba888_mxt_9x60_wvga/debug/_ext/1414187873/sys_input_listener.o
 .text.defaultKeyDownHandler
                0x00000000        0x4 build/lcdc_rgba888_mxt_9x60_wvga/debug/_ext/1414187873/sys_input_listener.o
 .text.defaultKeyUpHandler
                0x00000000        0x4 build/lcdc_rgba888_mxt_9x60_wvga/debug/_ext/1414187873/sys_input_listener.o
 .text.defaultMouseMoveHandler
                0x00000000        0x4 build/lcdc_rgba888_mxt_9x60_wvga/debug/_ext/1414187873/sys_input_listener.o
 .text.defaultMouseButtonHandler
                0x00000000        0x4 build/lcdc_rgba888_mxt_9x60_wvga/debug/_ext/1414187873/sys_input_listener.o
 .text.defaultTouchStateHandler
                0x00000000        0x4 build/lcdc_rgba888_mxt_9x60_wvga/debug/_ext/1414187873/sys_input_listener.o
 .text.defaultTouchMoveHandler
                0x00000000        0x4 build/lcdc_rgba888_mxt_9x60_wvga/debug/_ext/1414187873/sys_input_listener.o
 .text.defaultFlickGestureHandler
                0x00000000        0x4 build/lcdc_rgba888_mxt_9x60_wvga/debug/_ext/1414187873/sys_input_listener.o
 .text.defaultPinchEventHandler
                0x00000000        0x4 build/lcdc_rgba888_mxt_9x60_wvga/debug/_ext/1414187873/sys_input_listener.o
 .text.defaultStretchEventHandler
                0x00000000        0x4 build/lcdc_rgba888_mxt_9x60_wvga/debug/_ext/1414187873/sys_input_listener.o
 .text.defaultRotateEventHandler
                0x00000000        0x4 build/lcdc_rgba888_mxt_9x60_wvga/debug/_ext/1414187873/sys_input_listener.o
 .text.SYS_INP_ListenerInit
                0x00000000       0x8c build/lcdc_rgba888_mxt_9x60_wvga/debug/_ext/1414187873/sys_input_listener.o
 .debug_info    0x00000000     0x17c9 build/lcdc_rgba888_mxt_9x60_wvga/debug/_ext/1414187873/sys_input_listener.o
 .debug_abbrev  0x00000000      0x105 build/lcdc_rgba888_mxt_9x60_wvga/debug/_ext/1414187873/sys_input_listener.o
 .debug_aranges
                0x00000000       0x70 build/lcdc_rgba888_mxt_9x60_wvga/debug/_ext/1414187873/sys_input_listener.o
 .debug_ranges  0x00000000       0x60 build/lcdc_rgba888_mxt_9x60_wvga/debug/_ext/1414187873/sys_input_listener.o
 .debug_line    0x00000000      0x295 build/lcdc_rgba888_mxt_9x60_wvga/debug/_ext/1414187873/sys_input_listener.o
 .debug_str     0x00000000        0x0 build/lcdc_rgba888_mxt_9x60_wvga/debug/_ext/1414187873/sys_input_listener.o
 .comment       0x00000000       0x2c build/lcdc_rgba888_mxt_9x60_wvga/debug/_ext/1414187873/sys_input_listener.o
 .debug_frame   0x00000000       0xc0 build/lcdc_rgba888_mxt_9x60_wvga/debug/_ext/1414187873/sys_input_listener.o
 .ARM.attributes
                0x00000000       0x2c build/lcdc_rgba888_mxt_9x60_wvga/debug/_ext/1414187873/sys_input_listener.o
 .text          0x00000000        0x0 build/lcdc_rgba888_mxt_9x60_wvga/debug/_ext/1826491803/sys_int.o
 .data          0x00000000        0x0 build/lcdc_rgba888_mxt_9x60_wvga/debug/_ext/1826491803/sys_int.o
 .bss           0x00000000        0x0 build/lcdc_rgba888_mxt_9x60_wvga/debug/_ext/1826491803/sys_int.o
 .text.SYS_INT_IsEnabled
                0x00000000       0x14 build/lcdc_rgba888_mxt_9x60_wvga/debug/_ext/1826491803/sys_int.o
 .text.SYS_INT_Enable
                0x00000000        0xc build/lcdc_rgba888_mxt_9x60_wvga/debug/_ext/1826491803/sys_int.o
 .text.SYS_INT_SourceEnable
                0x00000000       0x28 build/lcdc_rgba888_mxt_9x60_wvga/debug/_ext/1826491803/sys_int.o
 .text.SYS_INT_SourceStatusGet
                0x00000000       0x78 build/lcdc_rgba888_mxt_9x60_wvga/debug/_ext/1826491803/sys_int.o
 .text.SYS_INT_SourceStatusSet
                0x00000000       0x28 build/lcdc_rgba888_mxt_9x60_wvga/debug/_ext/1826491803/sys_int.o
 .text.SYS_INT_SourceStatusClear
                0x00000000       0x28 build/lcdc_rgba888_mxt_9x60_wvga/debug/_ext/1826491803/sys_int.o
 .text          0x00000000        0x0 build/lcdc_rgba888_mxt_9x60_wvga/debug/_ext/1812361045/sys_time.o
 .data          0x00000000        0x0 build/lcdc_rgba888_mxt_9x60_wvga/debug/_ext/1812361045/sys_time.o
 .bss           0x00000000        0x0 build/lcdc_rgba888_mxt_9x60_wvga/debug/_ext/1812361045/sys_time.o
 .text.SYS_TIME_Deinitialize
                0x00000000       0x4c build/lcdc_rgba888_mxt_9x60_wvga/debug/_ext/1812361045/sys_time.o
 .text.SYS_TIME_Status
                0x00000000       0x18 build/lcdc_rgba888_mxt_9x60_wvga/debug/_ext/1812361045/sys_time.o
 .text.SYS_TIME_FrequencyGet
                0x00000000       0x10 build/lcdc_rgba888_mxt_9x60_wvga/debug/_ext/1812361045/sys_time.o
 .text.SYS_TIME_Counter64Get
                0x00000000       0x48 build/lcdc_rgba888_mxt_9x60_wvga/debug/_ext/1812361045/sys_time.o
 .text.SYS_TIME_CounterGet
                0x00000000        0xc build/lcdc_rgba888_mxt_9x60_wvga/debug/_ext/1812361045/sys_time.o
 .text.SYS_TIME_CounterSet
                0x00000000       0x24 build/lcdc_rgba888_mxt_9x60_wvga/debug/_ext/1812361045/sys_time.o
 .text.SYS_TIME_CountToUS
                0x00000000       0x64 build/lcdc_rgba888_mxt_9x60_wvga/debug/_ext/1812361045/sys_time.o
 .text.SYS_TIME_CountToMS
                0x00000000       0x5c build/lcdc_rgba888_mxt_9x60_wvga/debug/_ext/1812361045/sys_time.o
 .text.SYS_TIME_USToCount
                0x00000000       0x30 build/lcdc_rgba888_mxt_9x60_wvga/debug/_ext/1812361045/sys_time.o
 .text.SYS_TIME_MSToCount
                0x00000000       0x2c build/lcdc_rgba888_mxt_9x60_wvga/debug/_ext/1812361045/sys_time.o
 .text.SYS_TIME_TimerCreate
                0x00000000       0x2c build/lcdc_rgba888_mxt_9x60_wvga/debug/_ext/1812361045/sys_time.o
 .text.SYS_TIME_TimerReload
                0x00000000       0xec build/lcdc_rgba888_mxt_9x60_wvga/debug/_ext/1812361045/sys_time.o
 .text.SYS_TIME_TimerCounterGet
                0x00000000       0xe8 build/lcdc_rgba888_mxt_9x60_wvga/debug/_ext/1812361045/sys_time.o
 .text.SYS_TIME_TimerPeriodHasExpired
                0x00000000       0x40 build/lcdc_rgba888_mxt_9x60_wvga/debug/_ext/1812361045/sys_time.o
 .text.SYS_TIME_DelayUS
                0x00000000       0x88 build/lcdc_rgba888_mxt_9x60_wvga/debug/_ext/1812361045/sys_time.o
 .text.SYS_TIME_DelayMS
                0x00000000       0x84 build/lcdc_rgba888_mxt_9x60_wvga/debug/_ext/1812361045/sys_time.o
 .text.SYS_TIME_DelayIsComplete
                0x00000000       0x28 build/lcdc_rgba888_mxt_9x60_wvga/debug/_ext/1812361045/sys_time.o
 .text.SYS_TIME_CallbackRegisterUS
                0x00000000       0xa0 build/lcdc_rgba888_mxt_9x60_wvga/debug/_ext/1812361045/sys_time.o
 .text          0x00000000        0x0 build/lcdc_rgba888_mxt_9x60_wvga/debug/_ext/2052985144/fault_handlers.o
 .data          0x00000000        0x0 build/lcdc_rgba888_mxt_9x60_wvga/debug/_ext/2052985144/fault_handlers.o
 .bss           0x00000000        0x0 build/lcdc_rgba888_mxt_9x60_wvga/debug/_ext/2052985144/fault_handlers.o
 .text          0x00000000        0x0 build/lcdc_rgba888_mxt_9x60_wvga/debug/_ext/2052985144/tasks.o
 .data          0x00000000        0x0 build/lcdc_rgba888_mxt_9x60_wvga/debug/_ext/2052985144/tasks.o
 .bss           0x00000000        0x0 build/lcdc_rgba888_mxt_9x60_wvga/debug/_ext/2052985144/tasks.o
 .text          0x00000000        0x0 build/lcdc_rgba888_mxt_9x60_wvga/debug/_ext/2052985144/initialization.o
 .data          0x00000000        0x0 build/lcdc_rgba888_mxt_9x60_wvga/debug/_ext/2052985144/initialization.o
 .bss           0x00000000        0x0 build/lcdc_rgba888_mxt_9x60_wvga/debug/_ext/2052985144/initialization.o
 .data          0x00000000        0x0 build/lcdc_rgba888_mxt_9x60_wvga/debug/_ext/2052985144/cstartup.o
 .bss           0x00000000        0x0 build/lcdc_rgba888_mxt_9x60_wvga/debug/_ext/2052985144/cstartup.o
 .text          0x00000000        0x0 build/lcdc_rgba888_mxt_9x60_wvga/debug/_ext/2052985144/interrupts.o
 .data          0x00000000        0x0 build/lcdc_rgba888_mxt_9x60_wvga/debug/_ext/2052985144/interrupts.o
 .bss           0x00000000        0x0 build/lcdc_rgba888_mxt_9x60_wvga/debug/_ext/2052985144/interrupts.o
 .text.SPURIOUS_INTERRUPT_Handler
                0x00000000       0x18 build/lcdc_rgba888_mxt_9x60_wvga/debug/_ext/2052985144/interrupts.o
 .bss.spuriousEventCount.11918
                0x00000000        0x4 build/lcdc_rgba888_mxt_9x60_wvga/debug/_ext/2052985144/interrupts.o
 .debug_info    0x00000000     0x1173 build/lcdc_rgba888_mxt_9x60_wvga/debug/_ext/2052985144/interrupts.o
 .debug_abbrev  0x00000000      0x1c2 build/lcdc_rgba888_mxt_9x60_wvga/debug/_ext/2052985144/interrupts.o
 .debug_aranges
                0x00000000       0x20 build/lcdc_rgba888_mxt_9x60_wvga/debug/_ext/2052985144/interrupts.o
 .debug_ranges  0x00000000       0x10 build/lcdc_rgba888_mxt_9x60_wvga/debug/_ext/2052985144/interrupts.o
 .debug_line    0x00000000      0x1aa build/lcdc_rgba888_mxt_9x60_wvga/debug/_ext/2052985144/interrupts.o
 .debug_str     0x00000000       0xd4 build/lcdc_rgba888_mxt_9x60_wvga/debug/_ext/2052985144/interrupts.o
 .comment       0x00000000       0x2c build/lcdc_rgba888_mxt_9x60_wvga/debug/_ext/2052985144/interrupts.o
 .debug_frame   0x00000000       0x20 build/lcdc_rgba888_mxt_9x60_wvga/debug/_ext/2052985144/interrupts.o
 .ARM.attributes
                0x00000000       0x2c build/lcdc_rgba888_mxt_9x60_wvga/debug/_ext/2052985144/interrupts.o
 .text          0x00000000        0x0 build/lcdc_rgba888_mxt_9x60_wvga/debug/_ext/1360937237/app.o
 .data          0x00000000        0x0 build/lcdc_rgba888_mxt_9x60_wvga/debug/_ext/1360937237/app.o
 .bss           0x00000000        0x0 build/lcdc_rgba888_mxt_9x60_wvga/debug/_ext/1360937237/app.o
 .text.getScreen
                0x00000000       0x10 build/lcdc_rgba888_mxt_9x60_wvga/debug/_ext/1360937237/app.o
 .text.setScreen
                0x00000000       0x10 build/lcdc_rgba888_mxt_9x60_wvga/debug/_ext/1360937237/app.o
 .text.get_rt   0x00000000       0x10 build/lcdc_rgba888_mxt_9x60_wvga/debug/_ext/1360937237/app.o
 .text          0x00000000        0x0 build/lcdc_rgba888_mxt_9x60_wvga/debug/_ext/1360937237/main.o
 .data          0x00000000        0x0 build/lcdc_rgba888_mxt_9x60_wvga/debug/_ext/1360937237/main.o
 .bss           0x00000000        0x0 build/lcdc_rgba888_mxt_9x60_wvga/debug/_ext/1360937237/main.o
 .data          0x00000000        0x0 c:/program files/microchip/xc32/v4.35/bin/bin/../../lib/gcc/pic32c/8.3.1/arm/v5te/nofp\libgcc.a(_udivsi3.o)
 .bss           0x00000000        0x0 c:/program files/microchip/xc32/v4.35/bin/bin/../../lib/gcc/pic32c/8.3.1/arm/v5te/nofp\libgcc.a(_udivsi3.o)
 .xc_stack_usage.hdr
                0x00000000        0xe c:/program files/microchip/xc32/v4.35/bin/bin/../../lib/gcc/pic32c/8.3.1/arm/v5te/nofp\libgcc.a(_udivsi3.o)
 .xc_stack_usage
                0x00000000       0x35 c:/program files/microchip/xc32/v4.35/bin/bin/../../lib/gcc/pic32c/8.3.1/arm/v5te/nofp\libgcc.a(_udivsi3.o)
 .data          0x00000000        0x0 c:/program files/microchip/xc32/v4.35/bin/bin/../../lib/gcc/pic32c/8.3.1/arm/v5te/nofp\libgcc.a(_divsi3.o)
 .bss           0x00000000        0x0 c:/program files/microchip/xc32/v4.35/bin/bin/../../lib/gcc/pic32c/8.3.1/arm/v5te/nofp\libgcc.a(_divsi3.o)
 .xc_stack_usage.hdr
                0x00000000        0xe c:/program files/microchip/xc32/v4.35/bin/bin/../../lib/gcc/pic32c/8.3.1/arm/v5te/nofp\libgcc.a(_divsi3.o)
 .xc_stack_usage
                0x00000000       0x33 c:/program files/microchip/xc32/v4.35/bin/bin/../../lib/gcc/pic32c/8.3.1/arm/v5te/nofp\libgcc.a(_divsi3.o)
 .data          0x00000000        0x0 c:/program files/microchip/xc32/v4.35/bin/bin/../../lib/gcc/pic32c/8.3.1/arm/v5te/nofp\libgcc.a(_dvmd_tls.o)
 .bss           0x00000000        0x0 c:/program files/microchip/xc32/v4.35/bin/bin/../../lib/gcc/pic32c/8.3.1/arm/v5te/nofp\libgcc.a(_dvmd_tls.o)
 .xc_stack_usage.hdr
                0x00000000        0xe c:/program files/microchip/xc32/v4.35/bin/bin/../../lib/gcc/pic32c/8.3.1/arm/v5te/nofp\libgcc.a(_dvmd_tls.o)
 .xc_stack_usage
                0x00000000       0x36 c:/program files/microchip/xc32/v4.35/bin/bin/../../lib/gcc/pic32c/8.3.1/arm/v5te/nofp\libgcc.a(_dvmd_tls.o)
 .data          0x00000000        0x0 c:/program files/microchip/xc32/v4.35/bin/bin/../../lib/gcc/pic32c/8.3.1/arm/v5te/nofp\libgcc.a(_arm_addsubdf3.o)
 .bss           0x00000000        0x0 c:/program files/microchip/xc32/v4.35/bin/bin/../../lib/gcc/pic32c/8.3.1/arm/v5te/nofp\libgcc.a(_arm_addsubdf3.o)
 .xc_stack_usage.hdr
                0x00000000        0xe c:/program files/microchip/xc32/v4.35/bin/bin/../../lib/gcc/pic32c/8.3.1/arm/v5te/nofp\libgcc.a(_arm_addsubdf3.o)
 .xc_stack_usage
                0x00000000       0xca c:/program files/microchip/xc32/v4.35/bin/bin/../../lib/gcc/pic32c/8.3.1/arm/v5te/nofp\libgcc.a(_arm_addsubdf3.o)
 .data          0x00000000        0x0 c:/program files/microchip/xc32/v4.35/bin/bin/../../lib/gcc/pic32c/8.3.1/arm/v5te/nofp\libgcc.a(_arm_muldivdf3.o)
 .bss           0x00000000        0x0 c:/program files/microchip/xc32/v4.35/bin/bin/../../lib/gcc/pic32c/8.3.1/arm/v5te/nofp\libgcc.a(_arm_muldivdf3.o)
 .xc_stack_usage.hdr
                0x00000000        0xe c:/program files/microchip/xc32/v4.35/bin/bin/../../lib/gcc/pic32c/8.3.1/arm/v5te/nofp\libgcc.a(_arm_muldivdf3.o)
 .xc_stack_usage
                0x00000000       0x2c c:/program files/microchip/xc32/v4.35/bin/bin/../../lib/gcc/pic32c/8.3.1/arm/v5te/nofp\libgcc.a(_arm_muldivdf3.o)
 .data          0x00000000        0x0 c:/program files/microchip/xc32/v4.35/bin/bin/../../lib/gcc/pic32c/8.3.1/arm/v5te/nofp\libgcc.a(_arm_fixunsdfsi.o)
 .bss           0x00000000        0x0 c:/program files/microchip/xc32/v4.35/bin/bin/../../lib/gcc/pic32c/8.3.1/arm/v5te/nofp\libgcc.a(_arm_fixunsdfsi.o)
 .xc_stack_usage.hdr
                0x00000000        0xe c:/program files/microchip/xc32/v4.35/bin/bin/../../lib/gcc/pic32c/8.3.1/arm/v5te/nofp\libgcc.a(_arm_fixunsdfsi.o)
 .xc_stack_usage
                0x00000000       0x1a c:/program files/microchip/xc32/v4.35/bin/bin/../../lib/gcc/pic32c/8.3.1/arm/v5te/nofp\libgcc.a(_arm_fixunsdfsi.o)
 .data          0x00000000        0x0 c:/program files/microchip/xc32/v4.35/bin/bin/../../lib/gcc/pic32c/8.3.1/arm/v5te/nofp\libgcc.a(_arm_addsubsf3.o)
 .bss           0x00000000        0x0 c:/program files/microchip/xc32/v4.35/bin/bin/../../lib/gcc/pic32c/8.3.1/arm/v5te/nofp\libgcc.a(_arm_addsubsf3.o)
 .xc_stack_usage.hdr
                0x00000000        0xe c:/program files/microchip/xc32/v4.35/bin/bin/../../lib/gcc/pic32c/8.3.1/arm/v5te/nofp\libgcc.a(_arm_addsubsf3.o)
 .xc_stack_usage
                0x00000000       0xaf c:/program files/microchip/xc32/v4.35/bin/bin/../../lib/gcc/pic32c/8.3.1/arm/v5te/nofp\libgcc.a(_arm_addsubsf3.o)
 .data          0x00000000        0x0 c:/program files/microchip/xc32/v4.35/bin/bin/../../lib/gcc/pic32c/8.3.1/arm/v5te/nofp\libgcc.a(_arm_muldivsf3.o)
 .bss           0x00000000        0x0 c:/program files/microchip/xc32/v4.35/bin/bin/../../lib/gcc/pic32c/8.3.1/arm/v5te/nofp\libgcc.a(_arm_muldivsf3.o)
 .xc_stack_usage.hdr
                0x00000000        0xe c:/program files/microchip/xc32/v4.35/bin/bin/../../lib/gcc/pic32c/8.3.1/arm/v5te/nofp\libgcc.a(_arm_muldivsf3.o)
 .xc_stack_usage
                0x00000000       0x2c c:/program files/microchip/xc32/v4.35/bin/bin/../../lib/gcc/pic32c/8.3.1/arm/v5te/nofp\libgcc.a(_arm_muldivsf3.o)
 .data          0x00000000        0x0 c:/program files/microchip/xc32/v4.35/bin/bin/../../lib/gcc/pic32c/8.3.1/arm/v5te/nofp\libgcc.a(_arm_cmpsf2.o)
 .bss           0x00000000        0x0 c:/program files/microchip/xc32/v4.35/bin/bin/../../lib/gcc/pic32c/8.3.1/arm/v5te/nofp\libgcc.a(_arm_cmpsf2.o)
 .xc_stack_usage.hdr
                0x00000000        0xe c:/program files/microchip/xc32/v4.35/bin/bin/../../lib/gcc/pic32c/8.3.1/arm/v5te/nofp\libgcc.a(_arm_cmpsf2.o)
 .xc_stack_usage
                0x00000000      0x107 c:/program files/microchip/xc32/v4.35/bin/bin/../../lib/gcc/pic32c/8.3.1/arm/v5te/nofp\libgcc.a(_arm_cmpsf2.o)
 .data          0x00000000        0x0 c:/program files/microchip/xc32/v4.35/bin/bin/../../lib/gcc/pic32c/8.3.1/arm/v5te/nofp\libgcc.a(_arm_fixsfsi.o)
 .bss           0x00000000        0x0 c:/program files/microchip/xc32/v4.35/bin/bin/../../lib/gcc/pic32c/8.3.1/arm/v5te/nofp\libgcc.a(_arm_fixsfsi.o)
 .xc_stack_usage.hdr
                0x00000000        0xe c:/program files/microchip/xc32/v4.35/bin/bin/../../lib/gcc/pic32c/8.3.1/arm/v5te/nofp\libgcc.a(_arm_fixsfsi.o)
 .xc_stack_usage
                0x00000000       0x17 c:/program files/microchip/xc32/v4.35/bin/bin/../../lib/gcc/pic32c/8.3.1/arm/v5te/nofp\libgcc.a(_arm_fixsfsi.o)
 .data          0x00000000        0x0 c:/program files/microchip/xc32/v4.35/bin/bin/../../lib/gcc/pic32c/8.3.1/arm/v5te/nofp\libgcc.a(_arm_fixunssfsi.o)
 .bss           0x00000000        0x0 c:/program files/microchip/xc32/v4.35/bin/bin/../../lib/gcc/pic32c/8.3.1/arm/v5te/nofp\libgcc.a(_arm_fixunssfsi.o)
 .xc_stack_usage.hdr
                0x00000000        0xe c:/program files/microchip/xc32/v4.35/bin/bin/../../lib/gcc/pic32c/8.3.1/arm/v5te/nofp\libgcc.a(_arm_fixunssfsi.o)
 .xc_stack_usage
                0x00000000       0x1a c:/program files/microchip/xc32/v4.35/bin/bin/../../lib/gcc/pic32c/8.3.1/arm/v5te/nofp\libgcc.a(_arm_fixunssfsi.o)
 .data          0x00000000        0x0 c:/program files/microchip/xc32/v4.35/bin/bin/../../lib/gcc/pic32c/8.3.1/arm/v5te/nofp\libgcc.a(_aeabi_uldivmod.o)
 .bss           0x00000000        0x0 c:/program files/microchip/xc32/v4.35/bin/bin/../../lib/gcc/pic32c/8.3.1/arm/v5te/nofp\libgcc.a(_aeabi_uldivmod.o)
 .xc_stack_usage.hdr
                0x00000000        0xe c:/program files/microchip/xc32/v4.35/bin/bin/../../lib/gcc/pic32c/8.3.1/arm/v5te/nofp\libgcc.a(_aeabi_uldivmod.o)
 .xc_stack_usage
                0x00000000       0x1e c:/program files/microchip/xc32/v4.35/bin/bin/../../lib/gcc/pic32c/8.3.1/arm/v5te/nofp\libgcc.a(_aeabi_uldivmod.o)
 .data          0x00000000        0x0 c:/program files/microchip/xc32/v4.35/bin/bin/../../lib/gcc/pic32c/8.3.1/arm/v5te/nofp\libgcc.a(_udivmoddi4.o)
 .bss           0x00000000        0x0 c:/program files/microchip/xc32/v4.35/bin/bin/../../lib/gcc/pic32c/8.3.1/arm/v5te/nofp\libgcc.a(_udivmoddi4.o)
 .xc_stack_usage
                0x00000000       0x1a c:/program files/microchip/xc32/v4.35/bin/bin/../../lib/gcc/pic32c/8.3.1/arm/v5te/nofp\libgcc.a(_udivmoddi4.o)
 .ARM.extab     0x00000000        0x0 c:/program files/microchip/xc32/v4.35/bin/bin/../../lib/gcc/pic32c/8.3.1/arm/v5te/nofp\libgcc.a(_udivmoddi4.o)
 .xc_stack_usage.hdr
                0x00000000        0xe c:/program files/microchip/xc32/v4.35/bin/bin/../../lib/gcc/pic32c/8.3.1/arm/v5te/nofp\libgcc.a(_udivmoddi4.o)
 .text          0x00000000        0x0 c:/program files/microchip/xc32/v4.35/bin/bin/../../lib/gcc/pic32c/8.3.1/../../../../pic32c/lib/arm/v5te/nofp\libm-musl.a(atan.o)
 .data          0x00000000        0x0 c:/program files/microchip/xc32/v4.35/bin/bin/../../lib/gcc/pic32c/8.3.1/../../../../pic32c/lib/arm/v5te/nofp\libm-musl.a(atan.o)
 .bss           0x00000000        0x0 c:/program files/microchip/xc32/v4.35/bin/bin/../../lib/gcc/pic32c/8.3.1/../../../../pic32c/lib/arm/v5te/nofp\libm-musl.a(atan.o)
 .xc_stack_usage
                0x00000000       0x12 c:/program files/microchip/xc32/v4.35/bin/bin/../../lib/gcc/pic32c/8.3.1/../../../../pic32c/lib/arm/v5te/nofp\libm-musl.a(atan.o)
 .text.atan     0x00000000      0x438 c:/program files/microchip/xc32/v4.35/bin/bin/../../lib/gcc/pic32c/8.3.1/../../../../pic32c/lib/arm/v5te/nofp\libm-musl.a(atan.o)
 .rodata        0x00000000       0x40 c:/program files/microchip/xc32/v4.35/bin/bin/../../lib/gcc/pic32c/8.3.1/../../../../pic32c/lib/arm/v5te/nofp\libm-musl.a(atan.o)
 .xc_stack_usage.hdr
                0x00000000        0xe c:/program files/microchip/xc32/v4.35/bin/bin/../../lib/gcc/pic32c/8.3.1/../../../../pic32c/lib/arm/v5te/nofp\libm-musl.a(atan.o)
 .debug_info    0x00000000      0x599 c:/program files/microchip/xc32/v4.35/bin/bin/../../lib/gcc/pic32c/8.3.1/../../../../pic32c/lib/arm/v5te/nofp\libm-musl.a(atan.o)
 .debug_abbrev  0x00000000      0x178 c:/program files/microchip/xc32/v4.35/bin/bin/../../lib/gcc/pic32c/8.3.1/../../../../pic32c/lib/arm/v5te/nofp\libm-musl.a(atan.o)
 .debug_loc     0x00000000      0x2db c:/program files/microchip/xc32/v4.35/bin/bin/../../lib/gcc/pic32c/8.3.1/../../../../pic32c/lib/arm/v5te/nofp\libm-musl.a(atan.o)
 .debug_aranges
                0x00000000       0x20 c:/program files/microchip/xc32/v4.35/bin/bin/../../lib/gcc/pic32c/8.3.1/../../../../pic32c/lib/arm/v5te/nofp\libm-musl.a(atan.o)
 .debug_ranges  0x00000000       0x10 c:/program files/microchip/xc32/v4.35/bin/bin/../../lib/gcc/pic32c/8.3.1/../../../../pic32c/lib/arm/v5te/nofp\libm-musl.a(atan.o)
 .debug_line    0x00000000      0x2e5 c:/program files/microchip/xc32/v4.35/bin/bin/../../lib/gcc/pic32c/8.3.1/../../../../pic32c/lib/arm/v5te/nofp\libm-musl.a(atan.o)
 .debug_str     0x00000000        0x0 c:/program files/microchip/xc32/v4.35/bin/bin/../../lib/gcc/pic32c/8.3.1/../../../../pic32c/lib/arm/v5te/nofp\libm-musl.a(atan.o)
 .comment       0x00000000       0x2c c:/program files/microchip/xc32/v4.35/bin/bin/../../lib/gcc/pic32c/8.3.1/../../../../pic32c/lib/arm/v5te/nofp\libm-musl.a(atan.o)
 .note.GNU-stack
                0x00000000        0x0 c:/program files/microchip/xc32/v4.35/bin/bin/../../lib/gcc/pic32c/8.3.1/../../../../pic32c/lib/arm/v5te/nofp\libm-musl.a(atan.o)
 .debug_frame   0x00000000       0x3c c:/program files/microchip/xc32/v4.35/bin/bin/../../lib/gcc/pic32c/8.3.1/../../../../pic32c/lib/arm/v5te/nofp\libm-musl.a(atan.o)
 .ARM.attributes
                0x00000000       0x2d c:/program files/microchip/xc32/v4.35/bin/bin/../../lib/gcc/pic32c/8.3.1/../../../../pic32c/lib/arm/v5te/nofp\libm-musl.a(atan.o)
 .text          0x00000000        0x0 c:/program files/microchip/xc32/v4.35/bin/bin/../../lib/gcc/pic32c/8.3.1/../../../../pic32c/lib/arm/v5te/nofp\libm-musl.a(fabs.o)
 .data          0x00000000        0x0 c:/program files/microchip/xc32/v4.35/bin/bin/../../lib/gcc/pic32c/8.3.1/../../../../pic32c/lib/arm/v5te/nofp\libm-musl.a(fabs.o)
 .bss           0x00000000        0x0 c:/program files/microchip/xc32/v4.35/bin/bin/../../lib/gcc/pic32c/8.3.1/../../../../pic32c/lib/arm/v5te/nofp\libm-musl.a(fabs.o)
 .xc_stack_usage
                0x00000000       0x12 c:/program files/microchip/xc32/v4.35/bin/bin/../../lib/gcc/pic32c/8.3.1/../../../../pic32c/lib/arm/v5te/nofp\libm-musl.a(fabs.o)
 .text.fabs     0x00000000        0xc c:/program files/microchip/xc32/v4.35/bin/bin/../../lib/gcc/pic32c/8.3.1/../../../../pic32c/lib/arm/v5te/nofp\libm-musl.a(fabs.o)
 .xc_stack_usage.hdr
                0x00000000        0xe c:/program files/microchip/xc32/v4.35/bin/bin/../../lib/gcc/pic32c/8.3.1/../../../../pic32c/lib/arm/v5te/nofp\libm-musl.a(fabs.o)
 .debug_info    0x00000000      0x320 c:/program files/microchip/xc32/v4.35/bin/bin/../../lib/gcc/pic32c/8.3.1/../../../../pic32c/lib/arm/v5te/nofp\libm-musl.a(fabs.o)
 .debug_abbrev  0x00000000       0x8a c:/program files/microchip/xc32/v4.35/bin/bin/../../lib/gcc/pic32c/8.3.1/../../../../pic32c/lib/arm/v5te/nofp\libm-musl.a(fabs.o)
 .debug_aranges
                0x00000000       0x20 c:/program files/microchip/xc32/v4.35/bin/bin/../../lib/gcc/pic32c/8.3.1/../../../../pic32c/lib/arm/v5te/nofp\libm-musl.a(fabs.o)
 .debug_ranges  0x00000000       0x10 c:/program files/microchip/xc32/v4.35/bin/bin/../../lib/gcc/pic32c/8.3.1/../../../../pic32c/lib/arm/v5te/nofp\libm-musl.a(fabs.o)
 .debug_line    0x00000000       0xd2 c:/program files/microchip/xc32/v4.35/bin/bin/../../lib/gcc/pic32c/8.3.1/../../../../pic32c/lib/arm/v5te/nofp\libm-musl.a(fabs.o)
 .debug_str     0x00000000        0x0 c:/program files/microchip/xc32/v4.35/bin/bin/../../lib/gcc/pic32c/8.3.1/../../../../pic32c/lib/arm/v5te/nofp\libm-musl.a(fabs.o)
 .comment       0x00000000       0x2c c:/program files/microchip/xc32/v4.35/bin/bin/../../lib/gcc/pic32c/8.3.1/../../../../pic32c/lib/arm/v5te/nofp\libm-musl.a(fabs.o)
 .note.GNU-stack
                0x00000000        0x0 c:/program files/microchip/xc32/v4.35/bin/bin/../../lib/gcc/pic32c/8.3.1/../../../../pic32c/lib/arm/v5te/nofp\libm-musl.a(fabs.o)
 .debug_frame   0x00000000       0x20 c:/program files/microchip/xc32/v4.35/bin/bin/../../lib/gcc/pic32c/8.3.1/../../../../pic32c/lib/arm/v5te/nofp\libm-musl.a(fabs.o)
 .ARM.attributes
                0x00000000       0x2d c:/program files/microchip/xc32/v4.35/bin/bin/../../lib/gcc/pic32c/8.3.1/../../../../pic32c/lib/arm/v5te/nofp\libm-musl.a(fabs.o)
 .text          0x00000000        0x0 c:/program files/microchip/xc32/v4.35/bin/bin/../../lib/gcc/pic32c/8.3.1/../../../../pic32c/lib/arm/v5te/nofp\libg-musl.a(__libc_start_main.o)
 .data          0x00000000        0x0 c:/program files/microchip/xc32/v4.35/bin/bin/../../lib/gcc/pic32c/8.3.1/../../../../pic32c/lib/arm/v5te/nofp\libg-musl.a(__libc_start_main.o)
 .bss           0x00000000        0x0 c:/program files/microchip/xc32/v4.35/bin/bin/../../lib/gcc/pic32c/8.3.1/../../../../pic32c/lib/arm/v5te/nofp\libg-musl.a(__libc_start_main.o)
 .xc_stack_usage
                0x00000000       0x34 c:/program files/microchip/xc32/v4.35/bin/bin/../../lib/gcc/pic32c/8.3.1/../../../../pic32c/lib/arm/v5te/nofp\libg-musl.a(__libc_start_main.o)
 .xc_stack_usage.hdr
                0x00000000        0xe c:/program files/microchip/xc32/v4.35/bin/bin/../../lib/gcc/pic32c/8.3.1/../../../../pic32c/lib/arm/v5te/nofp\libg-musl.a(__libc_start_main.o)
 .text          0x00000000        0x0 c:/program files/microchip/xc32/v4.35/bin/bin/../../lib/gcc/pic32c/8.3.1/../../../../pic32c/lib/arm/v5te/nofp\libg-musl.a(libc.o)
 .data          0x00000000        0x0 c:/program files/microchip/xc32/v4.35/bin/bin/../../lib/gcc/pic32c/8.3.1/../../../../pic32c/lib/arm/v5te/nofp\libg-musl.a(libc.o)
 .xc_stack_usage.hdr
                0x00000000        0xe c:/program files/microchip/xc32/v4.35/bin/bin/../../lib/gcc/pic32c/8.3.1/../../../../pic32c/lib/arm/v5te/nofp\libg-musl.a(libc.o)
 .text          0x00000000        0x0 c:/program files/microchip/xc32/v4.35/bin/bin/../../lib/gcc/pic32c/8.3.1/../../../../pic32c/lib/arm/v5te/nofp\libg-musl.a(malloc.o)
 .data          0x00000000        0x0 c:/program files/microchip/xc32/v4.35/bin/bin/../../lib/gcc/pic32c/8.3.1/../../../../pic32c/lib/arm/v5te/nofp\libg-musl.a(malloc.o)
 .xc_stack_usage
                0x00000000       0xeb c:/program files/microchip/xc32/v4.35/bin/bin/../../lib/gcc/pic32c/8.3.1/../../../../pic32c/lib/arm/v5te/nofp\libg-musl.a(malloc.o)
 .text.__malloc0
                0x00000000       0x40 c:/program files/microchip/xc32/v4.35/bin/bin/../../lib/gcc/pic32c/8.3.1/../../../../pic32c/lib/arm/v5te/nofp\libg-musl.a(malloc.o)
 .text.realloc  0x00000000       0xe0 c:/program files/microchip/xc32/v4.35/bin/bin/../../lib/gcc/pic32c/8.3.1/../../../../pic32c/lib/arm/v5te/nofp\libg-musl.a(malloc.o)
 .xc_stack_usage.hdr
                0x00000000        0xe c:/program files/microchip/xc32/v4.35/bin/bin/../../lib/gcc/pic32c/8.3.1/../../../../pic32c/lib/arm/v5te/nofp\libg-musl.a(malloc.o)
 .text          0x00000000        0x0 c:/program files/microchip/xc32/v4.35/bin/bin/../../lib/gcc/pic32c/8.3.1/../../../../pic32c/lib/arm/v5te/nofp\libg-musl.a(expand_heap.o)
 .data          0x00000000        0x0 c:/program files/microchip/xc32/v4.35/bin/bin/../../lib/gcc/pic32c/8.3.1/../../../../pic32c/lib/arm/v5te/nofp\libg-musl.a(expand_heap.o)
 .bss           0x00000000        0x0 c:/program files/microchip/xc32/v4.35/bin/bin/../../lib/gcc/pic32c/8.3.1/../../../../pic32c/lib/arm/v5te/nofp\libg-musl.a(expand_heap.o)
 .xc_stack_usage
                0x00000000       0x1b c:/program files/microchip/xc32/v4.35/bin/bin/../../lib/gcc/pic32c/8.3.1/../../../../pic32c/lib/arm/v5te/nofp\libg-musl.a(expand_heap.o)
 .xc_stack_usage.hdr
                0x00000000        0xe c:/program files/microchip/xc32/v4.35/bin/bin/../../lib/gcc/pic32c/8.3.1/../../../../pic32c/lib/arm/v5te/nofp\libg-musl.a(expand_heap.o)
 .text          0x00000000        0x0 c:/program files/microchip/xc32/v4.35/bin/bin/../../lib/gcc/pic32c/8.3.1/../../../../pic32c/lib/arm/v5te/nofp\libg-musl.a(__sio_printf_dnpuxX.o)
 .data          0x00000000        0x0 c:/program files/microchip/xc32/v4.35/bin/bin/../../lib/gcc/pic32c/8.3.1/../../../../pic32c/lib/arm/v5te/nofp\libg-musl.a(__sio_printf_dnpuxX.o)
 .bss           0x00000000        0x0 c:/program files/microchip/xc32/v4.35/bin/bin/../../lib/gcc/pic32c/8.3.1/../../../../pic32c/lib/arm/v5te/nofp\libg-musl.a(__sio_printf_dnpuxX.o)
 .xc_stack_usage
                0x00000000       0x3c c:/program files/microchip/xc32/v4.35/bin/bin/../../lib/gcc/pic32c/8.3.1/../../../../pic32c/lib/arm/v5te/nofp\libg-musl.a(__sio_printf_dnpuxX.o)
 .text.__wrap_printf
                0x00000000       0x38 c:/program files/microchip/xc32/v4.35/bin/bin/../../lib/gcc/pic32c/8.3.1/../../../../pic32c/lib/arm/v5te/nofp\libg-musl.a(__sio_printf_dnpuxX.o)
 .text.__sio_printf_dnpuxX
                0x00000000       0x1c c:/program files/microchip/xc32/v4.35/bin/bin/../../lib/gcc/pic32c/8.3.1/../../../../pic32c/lib/arm/v5te/nofp\libg-musl.a(__sio_printf_dnpuxX.o)
 .xc_stack_usage.hdr
                0x00000000        0xe c:/program files/microchip/xc32/v4.35/bin/bin/../../lib/gcc/pic32c/8.3.1/../../../../pic32c/lib/arm/v5te/nofp\libg-musl.a(__sio_printf_dnpuxX.o)
 .debug_info    0x00000000      0x45d c:/program files/microchip/xc32/v4.35/bin/bin/../../lib/gcc/pic32c/8.3.1/../../../../pic32c/lib/arm/v5te/nofp\libg-musl.a(__sio_printf_dnpuxX.o)
 .debug_abbrev  0x00000000      0x145 c:/program files/microchip/xc32/v4.35/bin/bin/../../lib/gcc/pic32c/8.3.1/../../../../pic32c/lib/arm/v5te/nofp\libg-musl.a(__sio_printf_dnpuxX.o)
 .debug_loc     0x00000000       0x91 c:/program files/microchip/xc32/v4.35/bin/bin/../../lib/gcc/pic32c/8.3.1/../../../../pic32c/lib/arm/v5te/nofp\libg-musl.a(__sio_printf_dnpuxX.o)
 .debug_aranges
                0x00000000       0x28 c:/program files/microchip/xc32/v4.35/bin/bin/../../lib/gcc/pic32c/8.3.1/../../../../pic32c/lib/arm/v5te/nofp\libg-musl.a(__sio_printf_dnpuxX.o)
 .debug_ranges  0x00000000       0x18 c:/program files/microchip/xc32/v4.35/bin/bin/../../lib/gcc/pic32c/8.3.1/../../../../pic32c/lib/arm/v5te/nofp\libg-musl.a(__sio_printf_dnpuxX.o)
 .debug_line    0x00000000      0x1be c:/program files/microchip/xc32/v4.35/bin/bin/../../lib/gcc/pic32c/8.3.1/../../../../pic32c/lib/arm/v5te/nofp\libg-musl.a(__sio_printf_dnpuxX.o)
 .debug_str     0x00000000       0x5a c:/program files/microchip/xc32/v4.35/bin/bin/../../lib/gcc/pic32c/8.3.1/../../../../pic32c/lib/arm/v5te/nofp\libg-musl.a(__sio_printf_dnpuxX.o)
 .comment       0x00000000       0x2c c:/program files/microchip/xc32/v4.35/bin/bin/../../lib/gcc/pic32c/8.3.1/../../../../pic32c/lib/arm/v5te/nofp\libg-musl.a(__sio_printf_dnpuxX.o)
 .note.GNU-stack
                0x00000000        0x0 c:/program files/microchip/xc32/v4.35/bin/bin/../../lib/gcc/pic32c/8.3.1/../../../../pic32c/lib/arm/v5te/nofp\libg-musl.a(__sio_printf_dnpuxX.o)
 .debug_frame   0x00000000       0x5c c:/program files/microchip/xc32/v4.35/bin/bin/../../lib/gcc/pic32c/8.3.1/../../../../pic32c/lib/arm/v5te/nofp\libg-musl.a(__sio_printf_dnpuxX.o)
 .ARM.attributes
                0x00000000       0x2d c:/program files/microchip/xc32/v4.35/bin/bin/../../lib/gcc/pic32c/8.3.1/../../../../pic32c/lib/arm/v5te/nofp\libg-musl.a(__sio_printf_dnpuxX.o)
 .text          0x00000000        0x0 c:/program files/microchip/xc32/v4.35/bin/bin/../../lib/gcc/pic32c/8.3.1/../../../../pic32c/lib/arm/v5te/nofp\libg-musl.a(__sio_sprintf_dnpuxX.o)
 .data          0x00000000        0x0 c:/program files/microchip/xc32/v4.35/bin/bin/../../lib/gcc/pic32c/8.3.1/../../../../pic32c/lib/arm/v5te/nofp\libg-musl.a(__sio_sprintf_dnpuxX.o)
 .bss           0x00000000        0x0 c:/program files/microchip/xc32/v4.35/bin/bin/../../lib/gcc/pic32c/8.3.1/../../../../pic32c/lib/arm/v5te/nofp\libg-musl.a(__sio_sprintf_dnpuxX.o)
 .xc_stack_usage
                0x00000000       0x3e c:/program files/microchip/xc32/v4.35/bin/bin/../../lib/gcc/pic32c/8.3.1/../../../../pic32c/lib/arm/v5te/nofp\libg-musl.a(__sio_sprintf_dnpuxX.o)
 .text.__sio_sprintf_dnpuxX
                0x00000000       0x1c c:/program files/microchip/xc32/v4.35/bin/bin/../../lib/gcc/pic32c/8.3.1/../../../../pic32c/lib/arm/v5te/nofp\libg-musl.a(__sio_sprintf_dnpuxX.o)
 .xc_stack_usage.hdr
                0x00000000        0xe c:/program files/microchip/xc32/v4.35/bin/bin/../../lib/gcc/pic32c/8.3.1/../../../../pic32c/lib/arm/v5te/nofp\libg-musl.a(__sio_sprintf_dnpuxX.o)
 .text          0x00000000        0x0 c:/program files/microchip/xc32/v4.35/bin/bin/../../lib/gcc/pic32c/8.3.1/../../../../pic32c/lib/arm/v5te/nofp\libg-musl.a(__fmt_d.o)
 .data          0x00000000        0x0 c:/program files/microchip/xc32/v4.35/bin/bin/../../lib/gcc/pic32c/8.3.1/../../../../pic32c/lib/arm/v5te/nofp\libg-musl.a(__fmt_d.o)
 .bss           0x00000000        0x0 c:/program files/microchip/xc32/v4.35/bin/bin/../../lib/gcc/pic32c/8.3.1/../../../../pic32c/lib/arm/v5te/nofp\libg-musl.a(__fmt_d.o)
 .xc_stack_usage
                0x00000000       0x15 c:/program files/microchip/xc32/v4.35/bin/bin/../../lib/gcc/pic32c/8.3.1/../../../../pic32c/lib/arm/v5te/nofp\libg-musl.a(__fmt_d.o)
 .xc_stack_usage.hdr
                0x00000000        0xe c:/program files/microchip/xc32/v4.35/bin/bin/../../lib/gcc/pic32c/8.3.1/../../../../pic32c/lib/arm/v5te/nofp\libg-musl.a(__fmt_d.o)
 .text          0x00000000        0x0 c:/program files/microchip/xc32/v4.35/bin/bin/../../lib/gcc/pic32c/8.3.1/../../../../pic32c/lib/arm/v5te/nofp\libg-musl.a(__fmt_u.o)
 .data          0x00000000        0x0 c:/program files/microchip/xc32/v4.35/bin/bin/../../lib/gcc/pic32c/8.3.1/../../../../pic32c/lib/arm/v5te/nofp\libg-musl.a(__fmt_u.o)
 .bss           0x00000000        0x0 c:/program files/microchip/xc32/v4.35/bin/bin/../../lib/gcc/pic32c/8.3.1/../../../../pic32c/lib/arm/v5te/nofp\libg-musl.a(__fmt_u.o)
 .xc_stack_usage
                0x00000000       0x15 c:/program files/microchip/xc32/v4.35/bin/bin/../../lib/gcc/pic32c/8.3.1/../../../../pic32c/lib/arm/v5te/nofp\libg-musl.a(__fmt_u.o)
 .xc_stack_usage.hdr
                0x00000000        0xe c:/program files/microchip/xc32/v4.35/bin/bin/../../lib/gcc/pic32c/8.3.1/../../../../pic32c/lib/arm/v5te/nofp\libg-musl.a(__fmt_u.o)
 .text          0x00000000        0x0 c:/program files/microchip/xc32/v4.35/bin/bin/../../lib/gcc/pic32c/8.3.1/../../../../pic32c/lib/arm/v5te/nofp\libg-musl.a(__fmt_x.o)
 .data          0x00000000        0x0 c:/program files/microchip/xc32/v4.35/bin/bin/../../lib/gcc/pic32c/8.3.1/../../../../pic32c/lib/arm/v5te/nofp\libg-musl.a(__fmt_x.o)
 .bss           0x00000000        0x0 c:/program files/microchip/xc32/v4.35/bin/bin/../../lib/gcc/pic32c/8.3.1/../../../../pic32c/lib/arm/v5te/nofp\libg-musl.a(__fmt_x.o)
 .xc_stack_usage
                0x00000000       0x15 c:/program files/microchip/xc32/v4.35/bin/bin/../../lib/gcc/pic32c/8.3.1/../../../../pic32c/lib/arm/v5te/nofp\libg-musl.a(__fmt_x.o)
 .xc_stack_usage.hdr
                0x00000000        0xe c:/program files/microchip/xc32/v4.35/bin/bin/../../lib/gcc/pic32c/8.3.1/../../../../pic32c/lib/arm/v5te/nofp\libg-musl.a(__fmt_x.o)
 .text          0x00000000        0x0 c:/program files/microchip/xc32/v4.35/bin/bin/../../lib/gcc/pic32c/8.3.1/../../../../pic32c/lib/arm/v5te/nofp\libg-musl.a(__pop_int.o)
 .data          0x00000000        0x0 c:/program files/microchip/xc32/v4.35/bin/bin/../../lib/gcc/pic32c/8.3.1/../../../../pic32c/lib/arm/v5te/nofp\libg-musl.a(__pop_int.o)
 .bss           0x00000000        0x0 c:/program files/microchip/xc32/v4.35/bin/bin/../../lib/gcc/pic32c/8.3.1/../../../../pic32c/lib/arm/v5te/nofp\libg-musl.a(__pop_int.o)
 .xc_stack_usage
                0x00000000       0x17 c:/program files/microchip/xc32/v4.35/bin/bin/../../lib/gcc/pic32c/8.3.1/../../../../pic32c/lib/arm/v5te/nofp\libg-musl.a(__pop_int.o)
 .xc_stack_usage.hdr
                0x00000000        0xe c:/program files/microchip/xc32/v4.35/bin/bin/../../lib/gcc/pic32c/8.3.1/../../../../pic32c/lib/arm/v5te/nofp\libg-musl.a(__pop_int.o)
 .text          0x00000000        0x0 c:/program files/microchip/xc32/v4.35/bin/bin/../../lib/gcc/pic32c/8.3.1/../../../../pic32c/lib/arm/v5te/nofp\libg-musl.a(__pop_ptr.o)
 .data          0x00000000        0x0 c:/program files/microchip/xc32/v4.35/bin/bin/../../lib/gcc/pic32c/8.3.1/../../../../pic32c/lib/arm/v5te/nofp\libg-musl.a(__pop_ptr.o)
 .bss           0x00000000        0x0 c:/program files/microchip/xc32/v4.35/bin/bin/../../lib/gcc/pic32c/8.3.1/../../../../pic32c/lib/arm/v5te/nofp\libg-musl.a(__pop_ptr.o)
 .xc_stack_usage
                0x00000000       0x17 c:/program files/microchip/xc32/v4.35/bin/bin/../../lib/gcc/pic32c/8.3.1/../../../../pic32c/lib/arm/v5te/nofp\libg-musl.a(__pop_ptr.o)
 .xc_stack_usage.hdr
                0x00000000        0xe c:/program files/microchip/xc32/v4.35/bin/bin/../../lib/gcc/pic32c/8.3.1/../../../../pic32c/lib/arm/v5te/nofp\libg-musl.a(__pop_ptr.o)
 .text          0x00000000        0x0 c:/program files/microchip/xc32/v4.35/bin/bin/../../lib/gcc/pic32c/8.3.1/../../../../pic32c/lib/arm/v5te/nofp\libg-musl.a(__printf_core.o)
 .data          0x00000000        0x0 c:/program files/microchip/xc32/v4.35/bin/bin/../../lib/gcc/pic32c/8.3.1/../../../../pic32c/lib/arm/v5te/nofp\libg-musl.a(__printf_core.o)
 .bss           0x00000000        0x0 c:/program files/microchip/xc32/v4.35/bin/bin/../../lib/gcc/pic32c/8.3.1/../../../../pic32c/lib/arm/v5te/nofp\libg-musl.a(__printf_core.o)
 .xc_stack_usage
                0x00000000       0xaf c:/program files/microchip/xc32/v4.35/bin/bin/../../lib/gcc/pic32c/8.3.1/../../../../pic32c/lib/arm/v5te/nofp\libg-musl.a(__printf_core.o)
 .text.__string_out
                0x00000000       0x44 c:/program files/microchip/xc32/v4.35/bin/bin/../../lib/gcc/pic32c/8.3.1/../../../../pic32c/lib/arm/v5te/nofp\libg-musl.a(__printf_core.o)
 .xc_stack_usage.hdr
                0x00000000        0xe c:/program files/microchip/xc32/v4.35/bin/bin/../../lib/gcc/pic32c/8.3.1/../../../../pic32c/lib/arm/v5te/nofp\libg-musl.a(__printf_core.o)
 .text          0x00000000        0x0 c:/program files/microchip/xc32/v4.35/bin/bin/../../lib/gcc/pic32c/8.3.1/../../../../pic32c/lib/arm/v5te/nofp\libg-musl.a(stdout.o)
 .xc_stack_usage
                0x00000000       0x51 c:/program files/microchip/xc32/v4.35/bin/bin/../../lib/gcc/pic32c/8.3.1/../../../../pic32c/lib/arm/v5te/nofp\libg-musl.a(stdout.o)
 .xc_stack_usage.hdr
                0x00000000        0xe c:/program files/microchip/xc32/v4.35/bin/bin/../../lib/gcc/pic32c/8.3.1/../../../../pic32c/lib/arm/v5te/nofp\libg-musl.a(stdout.o)
 .text          0x00000000        0x0 c:/program files/microchip/xc32/v4.35/bin/bin/../../lib/gcc/pic32c/8.3.1/../../../../pic32c/lib/arm/v5te/nofp\libg-musl.a(putchar.o)
 .data          0x00000000        0x0 c:/program files/microchip/xc32/v4.35/bin/bin/../../lib/gcc/pic32c/8.3.1/../../../../pic32c/lib/arm/v5te/nofp\libg-musl.a(putchar.o)
 .bss           0x00000000        0x0 c:/program files/microchip/xc32/v4.35/bin/bin/../../lib/gcc/pic32c/8.3.1/../../../../pic32c/lib/arm/v5te/nofp\libg-musl.a(putchar.o)
 .xc_stack_usage
                0x00000000       0x15 c:/program files/microchip/xc32/v4.35/bin/bin/../../lib/gcc/pic32c/8.3.1/../../../../pic32c/lib/arm/v5te/nofp\libg-musl.a(putchar.o)
 .text.putchar  0x00000000       0x14 c:/program files/microchip/xc32/v4.35/bin/bin/../../lib/gcc/pic32c/8.3.1/../../../../pic32c/lib/arm/v5te/nofp\libg-musl.a(putchar.o)
 .xc_stack_usage.hdr
                0x00000000        0xe c:/program files/microchip/xc32/v4.35/bin/bin/../../lib/gcc/pic32c/8.3.1/../../../../pic32c/lib/arm/v5te/nofp\libg-musl.a(putchar.o)
 .debug_info    0x00000000      0x2c7 c:/program files/microchip/xc32/v4.35/bin/bin/../../lib/gcc/pic32c/8.3.1/../../../../pic32c/lib/arm/v5te/nofp\libg-musl.a(putchar.o)
 .debug_abbrev  0x00000000       0xbc c:/program files/microchip/xc32/v4.35/bin/bin/../../lib/gcc/pic32c/8.3.1/../../../../pic32c/lib/arm/v5te/nofp\libg-musl.a(putchar.o)
 .debug_loc     0x00000000       0x25 c:/program files/microchip/xc32/v4.35/bin/bin/../../lib/gcc/pic32c/8.3.1/../../../../pic32c/lib/arm/v5te/nofp\libg-musl.a(putchar.o)
 .debug_aranges
                0x00000000       0x20 c:/program files/microchip/xc32/v4.35/bin/bin/../../lib/gcc/pic32c/8.3.1/../../../../pic32c/lib/arm/v5te/nofp\libg-musl.a(putchar.o)
 .debug_ranges  0x00000000       0x10 c:/program files/microchip/xc32/v4.35/bin/bin/../../lib/gcc/pic32c/8.3.1/../../../../pic32c/lib/arm/v5te/nofp\libg-musl.a(putchar.o)
 .debug_line    0x00000000      0x135 c:/program files/microchip/xc32/v4.35/bin/bin/../../lib/gcc/pic32c/8.3.1/../../../../pic32c/lib/arm/v5te/nofp\libg-musl.a(putchar.o)
 .debug_str     0x00000000        0x0 c:/program files/microchip/xc32/v4.35/bin/bin/../../lib/gcc/pic32c/8.3.1/../../../../pic32c/lib/arm/v5te/nofp\libg-musl.a(putchar.o)
 .comment       0x00000000       0x2c c:/program files/microchip/xc32/v4.35/bin/bin/../../lib/gcc/pic32c/8.3.1/../../../../pic32c/lib/arm/v5te/nofp\libg-musl.a(putchar.o)
 .note.GNU-stack
                0x00000000        0x0 c:/program files/microchip/xc32/v4.35/bin/bin/../../lib/gcc/pic32c/8.3.1/../../../../pic32c/lib/arm/v5te/nofp\libg-musl.a(putchar.o)
 .debug_frame   0x00000000       0x20 c:/program files/microchip/xc32/v4.35/bin/bin/../../lib/gcc/pic32c/8.3.1/../../../../pic32c/lib/arm/v5te/nofp\libg-musl.a(putchar.o)
 .ARM.attributes
                0x00000000       0x2d c:/program files/microchip/xc32/v4.35/bin/bin/../../lib/gcc/pic32c/8.3.1/../../../../pic32c/lib/arm/v5te/nofp\libg-musl.a(putchar.o)
 .text          0x00000000        0x0 c:/program files/microchip/xc32/v4.35/bin/bin/../../lib/gcc/pic32c/8.3.1/../../../../pic32c/lib/arm/v5te/nofp\libg-musl.a(puts.o)
 .data          0x00000000        0x0 c:/program files/microchip/xc32/v4.35/bin/bin/../../lib/gcc/pic32c/8.3.1/../../../../pic32c/lib/arm/v5te/nofp\libg-musl.a(puts.o)
 .bss           0x00000000        0x0 c:/program files/microchip/xc32/v4.35/bin/bin/../../lib/gcc/pic32c/8.3.1/../../../../pic32c/lib/arm/v5te/nofp\libg-musl.a(puts.o)
 .xc_stack_usage
                0x00000000       0x12 c:/program files/microchip/xc32/v4.35/bin/bin/../../lib/gcc/pic32c/8.3.1/../../../../pic32c/lib/arm/v5te/nofp\libg-musl.a(puts.o)
 .text.puts     0x00000000       0x40 c:/program files/microchip/xc32/v4.35/bin/bin/../../lib/gcc/pic32c/8.3.1/../../../../pic32c/lib/arm/v5te/nofp\libg-musl.a(puts.o)
 .xc_stack_usage.hdr
                0x00000000        0xe c:/program files/microchip/xc32/v4.35/bin/bin/../../lib/gcc/pic32c/8.3.1/../../../../pic32c/lib/arm/v5te/nofp\libg-musl.a(puts.o)
 .debug_info    0x00000000      0x634 c:/program files/microchip/xc32/v4.35/bin/bin/../../lib/gcc/pic32c/8.3.1/../../../../pic32c/lib/arm/v5te/nofp\libg-musl.a(puts.o)
 .debug_abbrev  0x00000000      0x151 c:/program files/microchip/xc32/v4.35/bin/bin/../../lib/gcc/pic32c/8.3.1/../../../../pic32c/lib/arm/v5te/nofp\libg-musl.a(puts.o)
 .debug_loc     0x00000000       0x6a c:/program files/microchip/xc32/v4.35/bin/bin/../../lib/gcc/pic32c/8.3.1/../../../../pic32c/lib/arm/v5te/nofp\libg-musl.a(puts.o)
 .debug_aranges
                0x00000000       0x20 c:/program files/microchip/xc32/v4.35/bin/bin/../../lib/gcc/pic32c/8.3.1/../../../../pic32c/lib/arm/v5te/nofp\libg-musl.a(puts.o)
 .debug_ranges  0x00000000       0x10 c:/program files/microchip/xc32/v4.35/bin/bin/../../lib/gcc/pic32c/8.3.1/../../../../pic32c/lib/arm/v5te/nofp\libg-musl.a(puts.o)
 .debug_line    0x00000000      0x1cd c:/program files/microchip/xc32/v4.35/bin/bin/../../lib/gcc/pic32c/8.3.1/../../../../pic32c/lib/arm/v5te/nofp\libg-musl.a(puts.o)
 .debug_str     0x00000000        0xe c:/program files/microchip/xc32/v4.35/bin/bin/../../lib/gcc/pic32c/8.3.1/../../../../pic32c/lib/arm/v5te/nofp\libg-musl.a(puts.o)
 .comment       0x00000000       0x2c c:/program files/microchip/xc32/v4.35/bin/bin/../../lib/gcc/pic32c/8.3.1/../../../../pic32c/lib/arm/v5te/nofp\libg-musl.a(puts.o)
 .note.GNU-stack
                0x00000000        0x0 c:/program files/microchip/xc32/v4.35/bin/bin/../../lib/gcc/pic32c/8.3.1/../../../../pic32c/lib/arm/v5te/nofp\libg-musl.a(puts.o)
 .debug_frame   0x00000000       0x28 c:/program files/microchip/xc32/v4.35/bin/bin/../../lib/gcc/pic32c/8.3.1/../../../../pic32c/lib/arm/v5te/nofp\libg-musl.a(puts.o)
 .ARM.attributes
                0x00000000       0x2d c:/program files/microchip/xc32/v4.35/bin/bin/../../lib/gcc/pic32c/8.3.1/../../../../pic32c/lib/arm/v5te/nofp\libg-musl.a(puts.o)
 .text          0x00000000        0x0 c:/program files/microchip/xc32/v4.35/bin/bin/../../lib/gcc/pic32c/8.3.1/../../../../pic32c/lib/arm/v5te/nofp\libg-musl.a(atoi.o)
 .data          0x00000000        0x0 c:/program files/microchip/xc32/v4.35/bin/bin/../../lib/gcc/pic32c/8.3.1/../../../../pic32c/lib/arm/v5te/nofp\libg-musl.a(atoi.o)
 .bss           0x00000000        0x0 c:/program files/microchip/xc32/v4.35/bin/bin/../../lib/gcc/pic32c/8.3.1/../../../../pic32c/lib/arm/v5te/nofp\libg-musl.a(atoi.o)
 .xc_stack_usage
                0x00000000       0x12 c:/program files/microchip/xc32/v4.35/bin/bin/../../lib/gcc/pic32c/8.3.1/../../../../pic32c/lib/arm/v5te/nofp\libg-musl.a(atoi.o)
 .xc_stack_usage.hdr
                0x00000000        0xe c:/program files/microchip/xc32/v4.35/bin/bin/../../lib/gcc/pic32c/8.3.1/../../../../pic32c/lib/arm/v5te/nofp\libg-musl.a(atoi.o)
 .text          0x00000000        0x0 c:/program files/microchip/xc32/v4.35/bin/bin/../../lib/gcc/pic32c/8.3.1/../../../../pic32c/lib/arm/v5te/nofp\libg-musl.a(memcpy.o)
 .data          0x00000000        0x0 c:/program files/microchip/xc32/v4.35/bin/bin/../../lib/gcc/pic32c/8.3.1/../../../../pic32c/lib/arm/v5te/nofp\libg-musl.a(memcpy.o)
 .bss           0x00000000        0x0 c:/program files/microchip/xc32/v4.35/bin/bin/../../lib/gcc/pic32c/8.3.1/../../../../pic32c/lib/arm/v5te/nofp\libg-musl.a(memcpy.o)
 .xc_stack_usage
                0x00000000       0x14 c:/program files/microchip/xc32/v4.35/bin/bin/../../lib/gcc/pic32c/8.3.1/../../../../pic32c/lib/arm/v5te/nofp\libg-musl.a(memcpy.o)
 .xc_stack_usage.hdr
                0x00000000        0xe c:/program files/microchip/xc32/v4.35/bin/bin/../../lib/gcc/pic32c/8.3.1/../../../../pic32c/lib/arm/v5te/nofp\libg-musl.a(memcpy.o)
 .text          0x00000000        0x0 c:/program files/microchip/xc32/v4.35/bin/bin/../../lib/gcc/pic32c/8.3.1/../../../../pic32c/lib/arm/v5te/nofp\libg-musl.a(memset.o)
 .data          0x00000000        0x0 c:/program files/microchip/xc32/v4.35/bin/bin/../../lib/gcc/pic32c/8.3.1/../../../../pic32c/lib/arm/v5te/nofp\libg-musl.a(memset.o)
 .bss           0x00000000        0x0 c:/program files/microchip/xc32/v4.35/bin/bin/../../lib/gcc/pic32c/8.3.1/../../../../pic32c/lib/arm/v5te/nofp\libg-musl.a(memset.o)
 .xc_stack_usage
                0x00000000       0x14 c:/program files/microchip/xc32/v4.35/bin/bin/../../lib/gcc/pic32c/8.3.1/../../../../pic32c/lib/arm/v5te/nofp\libg-musl.a(memset.o)
 .xc_stack_usage.hdr
                0x00000000        0xe c:/program files/microchip/xc32/v4.35/bin/bin/../../lib/gcc/pic32c/8.3.1/../../../../pic32c/lib/arm/v5te/nofp\libg-musl.a(memset.o)
 .text          0x00000000        0x0 c:/program files/microchip/xc32/v4.35/bin/bin/../../lib/gcc/pic32c/8.3.1/../../../../pic32c/lib/arm/v5te/nofp\libg-musl.a(strlen.o)
 .data          0x00000000        0x0 c:/program files/microchip/xc32/v4.35/bin/bin/../../lib/gcc/pic32c/8.3.1/../../../../pic32c/lib/arm/v5te/nofp\libg-musl.a(strlen.o)
 .bss           0x00000000        0x0 c:/program files/microchip/xc32/v4.35/bin/bin/../../lib/gcc/pic32c/8.3.1/../../../../pic32c/lib/arm/v5te/nofp\libg-musl.a(strlen.o)
 .xc_stack_usage
                0x00000000       0x14 c:/program files/microchip/xc32/v4.35/bin/bin/../../lib/gcc/pic32c/8.3.1/../../../../pic32c/lib/arm/v5te/nofp\libg-musl.a(strlen.o)
 .xc_stack_usage.hdr
                0x00000000        0xe c:/program files/microchip/xc32/v4.35/bin/bin/../../lib/gcc/pic32c/8.3.1/../../../../pic32c/lib/arm/v5te/nofp\libg-musl.a(strlen.o)
 .text          0x00000000        0x0 c:/program files/microchip/xc32/v4.35/bin/bin/../../lib/gcc/pic32c/8.3.1/../../../../pic32c/lib/arm/v5te/nofp\libg-musl.a(tolower.o)
 .data          0x00000000        0x0 c:/program files/microchip/xc32/v4.35/bin/bin/../../lib/gcc/pic32c/8.3.1/../../../../pic32c/lib/arm/v5te/nofp\libg-musl.a(tolower.o)
 .bss           0x00000000        0x0 c:/program files/microchip/xc32/v4.35/bin/bin/../../lib/gcc/pic32c/8.3.1/../../../../pic32c/lib/arm/v5te/nofp\libg-musl.a(tolower.o)
 .xc_stack_usage
                0x00000000       0x2e c:/program files/microchip/xc32/v4.35/bin/bin/../../lib/gcc/pic32c/8.3.1/../../../../pic32c/lib/arm/v5te/nofp\libg-musl.a(tolower.o)
 .text.__tolower_l
                0x00000000        0x4 c:/program files/microchip/xc32/v4.35/bin/bin/../../lib/gcc/pic32c/8.3.1/../../../../pic32c/lib/arm/v5te/nofp\libg-musl.a(tolower.o)
 .xc_stack_usage.hdr
                0x00000000        0xe c:/program files/microchip/xc32/v4.35/bin/bin/../../lib/gcc/pic32c/8.3.1/../../../../pic32c/lib/arm/v5te/nofp\libg-musl.a(tolower.o)
 .text          0x00000000        0x0 c:/program files/microchip/xc32/v4.35/bin/bin/../../lib/gcc/pic32c/8.3.1/../../../../pic32c/lib/arm/v5te/nofp\libg-musl.a(toupper.o)
 .data          0x00000000        0x0 c:/program files/microchip/xc32/v4.35/bin/bin/../../lib/gcc/pic32c/8.3.1/../../../../pic32c/lib/arm/v5te/nofp\libg-musl.a(toupper.o)
 .bss           0x00000000        0x0 c:/program files/microchip/xc32/v4.35/bin/bin/../../lib/gcc/pic32c/8.3.1/../../../../pic32c/lib/arm/v5te/nofp\libg-musl.a(toupper.o)
 .xc_stack_usage
                0x00000000       0x2e c:/program files/microchip/xc32/v4.35/bin/bin/../../lib/gcc/pic32c/8.3.1/../../../../pic32c/lib/arm/v5te/nofp\libg-musl.a(toupper.o)
 .text.__toupper_l
                0x00000000        0x4 c:/program files/microchip/xc32/v4.35/bin/bin/../../lib/gcc/pic32c/8.3.1/../../../../pic32c/lib/arm/v5te/nofp\libg-musl.a(toupper.o)
 .xc_stack_usage.hdr
                0x00000000        0xe c:/program files/microchip/xc32/v4.35/bin/bin/../../lib/gcc/pic32c/8.3.1/../../../../pic32c/lib/arm/v5te/nofp\libg-musl.a(toupper.o)
 .text          0x00000000        0x0 c:/program files/microchip/xc32/v4.35/bin/bin/../../lib/gcc/pic32c/8.3.1/../../../../pic32c/lib/arm/v5te/nofp\libg-musl.a(__environ.o)
 .data          0x00000000        0x0 c:/program files/microchip/xc32/v4.35/bin/bin/../../lib/gcc/pic32c/8.3.1/../../../../pic32c/lib/arm/v5te/nofp\libg-musl.a(__environ.o)
 .xc_stack_usage.hdr
                0x00000000        0xe c:/program files/microchip/xc32/v4.35/bin/bin/../../lib/gcc/pic32c/8.3.1/../../../../pic32c/lib/arm/v5te/nofp\libg-musl.a(__environ.o)
 .text          0x00000000        0x0 c:/program files/microchip/xc32/v4.35/bin/bin/../../lib/gcc/pic32c/8.3.1/../../../../pic32c/lib/arm/v5te/nofp\libg-musl.a(__errno_location.o)
 .data          0x00000000        0x0 c:/program files/microchip/xc32/v4.35/bin/bin/../../lib/gcc/pic32c/8.3.1/../../../../pic32c/lib/arm/v5te/nofp\libg-musl.a(__errno_location.o)
 .xc_stack_usage.hdr
                0x00000000        0xe c:/program files/microchip/xc32/v4.35/bin/bin/../../lib/gcc/pic32c/8.3.1/../../../../pic32c/lib/arm/v5te/nofp\libg-musl.a(__errno_location.o)
 .text          0x00000000        0x0 c:/program files/microchip/xc32/v4.35/bin/bin/../../lib/gcc/pic32c/8.3.1/../../../../pic32c/lib/arm/v5te/nofp\libg-musl.a(__int_vfprintf.o)
 .data          0x00000000        0x0 c:/program files/microchip/xc32/v4.35/bin/bin/../../lib/gcc/pic32c/8.3.1/../../../../pic32c/lib/arm/v5te/nofp\libg-musl.a(__int_vfprintf.o)
 .bss           0x00000000        0x0 c:/program files/microchip/xc32/v4.35/bin/bin/../../lib/gcc/pic32c/8.3.1/../../../../pic32c/lib/arm/v5te/nofp\libg-musl.a(__int_vfprintf.o)
 .xc_stack_usage
                0x00000000       0x18 c:/program files/microchip/xc32/v4.35/bin/bin/../../lib/gcc/pic32c/8.3.1/../../../../pic32c/lib/arm/v5te/nofp\libg-musl.a(__int_vfprintf.o)
 .xc_stack_usage.hdr
                0x00000000        0xe c:/program files/microchip/xc32/v4.35/bin/bin/../../lib/gcc/pic32c/8.3.1/../../../../pic32c/lib/arm/v5te/nofp\libg-musl.a(__int_vfprintf.o)
 .text          0x00000000        0x0 c:/program files/microchip/xc32/v4.35/bin/bin/../../lib/gcc/pic32c/8.3.1/../../../../pic32c/lib/arm/v5te/nofp\libg-musl.a(__int_vsprintf.o)
 .data          0x00000000        0x0 c:/program files/microchip/xc32/v4.35/bin/bin/../../lib/gcc/pic32c/8.3.1/../../../../pic32c/lib/arm/v5te/nofp\libg-musl.a(__int_vsprintf.o)
 .bss           0x00000000        0x0 c:/program files/microchip/xc32/v4.35/bin/bin/../../lib/gcc/pic32c/8.3.1/../../../../pic32c/lib/arm/v5te/nofp\libg-musl.a(__int_vsprintf.o)
 .xc_stack_usage
                0x00000000       0x18 c:/program files/microchip/xc32/v4.35/bin/bin/../../lib/gcc/pic32c/8.3.1/../../../../pic32c/lib/arm/v5te/nofp\libg-musl.a(__int_vsprintf.o)
 .xc_stack_usage.hdr
                0x00000000        0xe c:/program files/microchip/xc32/v4.35/bin/bin/../../lib/gcc/pic32c/8.3.1/../../../../pic32c/lib/arm/v5te/nofp\libg-musl.a(__int_vsprintf.o)
 .text          0x00000000        0x0 c:/program files/microchip/xc32/v4.35/bin/bin/../../lib/gcc/pic32c/8.3.1/../../../../pic32c/lib/arm/v5te/nofp\libg-musl.a(fputs.o)
 .data          0x00000000        0x0 c:/program files/microchip/xc32/v4.35/bin/bin/../../lib/gcc/pic32c/8.3.1/../../../../pic32c/lib/arm/v5te/nofp\libg-musl.a(fputs.o)
 .bss           0x00000000        0x0 c:/program files/microchip/xc32/v4.35/bin/bin/../../lib/gcc/pic32c/8.3.1/../../../../pic32c/lib/arm/v5te/nofp\libg-musl.a(fputs.o)
 .xc_stack_usage
                0x00000000       0x13 c:/program files/microchip/xc32/v4.35/bin/bin/../../lib/gcc/pic32c/8.3.1/../../../../pic32c/lib/arm/v5te/nofp\libg-musl.a(fputs.o)
 .text.fputs    0x00000000       0x34 c:/program files/microchip/xc32/v4.35/bin/bin/../../lib/gcc/pic32c/8.3.1/../../../../pic32c/lib/arm/v5te/nofp\libg-musl.a(fputs.o)
 .xc_stack_usage.hdr
                0x00000000        0xe c:/program files/microchip/xc32/v4.35/bin/bin/../../lib/gcc/pic32c/8.3.1/../../../../pic32c/lib/arm/v5te/nofp\libg-musl.a(fputs.o)
 .debug_info    0x00000000      0x644 c:/program files/microchip/xc32/v4.35/bin/bin/../../lib/gcc/pic32c/8.3.1/../../../../pic32c/lib/arm/v5te/nofp\libg-musl.a(fputs.o)
 .debug_abbrev  0x00000000      0x12a c:/program files/microchip/xc32/v4.35/bin/bin/../../lib/gcc/pic32c/8.3.1/../../../../pic32c/lib/arm/v5te/nofp\libg-musl.a(fputs.o)
 .debug_loc     0x00000000       0x93 c:/program files/microchip/xc32/v4.35/bin/bin/../../lib/gcc/pic32c/8.3.1/../../../../pic32c/lib/arm/v5te/nofp\libg-musl.a(fputs.o)
 .debug_aranges
                0x00000000       0x20 c:/program files/microchip/xc32/v4.35/bin/bin/../../lib/gcc/pic32c/8.3.1/../../../../pic32c/lib/arm/v5te/nofp\libg-musl.a(fputs.o)
 .debug_ranges  0x00000000       0x10 c:/program files/microchip/xc32/v4.35/bin/bin/../../lib/gcc/pic32c/8.3.1/../../../../pic32c/lib/arm/v5te/nofp\libg-musl.a(fputs.o)
 .debug_line    0x00000000      0x239 c:/program files/microchip/xc32/v4.35/bin/bin/../../lib/gcc/pic32c/8.3.1/../../../../pic32c/lib/arm/v5te/nofp\libg-musl.a(fputs.o)
 .debug_str     0x00000000        0x0 c:/program files/microchip/xc32/v4.35/bin/bin/../../lib/gcc/pic32c/8.3.1/../../../../pic32c/lib/arm/v5te/nofp\libg-musl.a(fputs.o)
 .comment       0x00000000       0x2c c:/program files/microchip/xc32/v4.35/bin/bin/../../lib/gcc/pic32c/8.3.1/../../../../pic32c/lib/arm/v5te/nofp\libg-musl.a(fputs.o)
 .note.GNU-stack
                0x00000000        0x0 c:/program files/microchip/xc32/v4.35/bin/bin/../../lib/gcc/pic32c/8.3.1/../../../../pic32c/lib/arm/v5te/nofp\libg-musl.a(fputs.o)
 .debug_frame   0x00000000       0x2c c:/program files/microchip/xc32/v4.35/bin/bin/../../lib/gcc/pic32c/8.3.1/../../../../pic32c/lib/arm/v5te/nofp\libg-musl.a(fputs.o)
 .ARM.attributes
                0x00000000       0x2d c:/program files/microchip/xc32/v4.35/bin/bin/../../lib/gcc/pic32c/8.3.1/../../../../pic32c/lib/arm/v5te/nofp\libg-musl.a(fputs.o)
 .text          0x00000000        0x0 c:/program files/microchip/xc32/v4.35/bin/bin/../../lib/gcc/pic32c/8.3.1/../../../../pic32c/lib/arm/v5te/nofp\libg-musl.a(__cvt_u.o)
 .data          0x00000000        0x0 c:/program files/microchip/xc32/v4.35/bin/bin/../../lib/gcc/pic32c/8.3.1/../../../../pic32c/lib/arm/v5te/nofp\libg-musl.a(__cvt_u.o)
 .bss           0x00000000        0x0 c:/program files/microchip/xc32/v4.35/bin/bin/../../lib/gcc/pic32c/8.3.1/../../../../pic32c/lib/arm/v5te/nofp\libg-musl.a(__cvt_u.o)
 .xc_stack_usage
                0x00000000       0x15 c:/program files/microchip/xc32/v4.35/bin/bin/../../lib/gcc/pic32c/8.3.1/../../../../pic32c/lib/arm/v5te/nofp\libg-musl.a(__cvt_u.o)
 .xc_stack_usage.hdr
                0x00000000        0xe c:/program files/microchip/xc32/v4.35/bin/bin/../../lib/gcc/pic32c/8.3.1/../../../../pic32c/lib/arm/v5te/nofp\libg-musl.a(__cvt_u.o)
 .text          0x00000000        0x0 c:/program files/microchip/xc32/v4.35/bin/bin/../../lib/gcc/pic32c/8.3.1/../../../../pic32c/lib/arm/v5te/nofp\libg-musl.a(__io_init_needed.o)
 .data          0x00000000        0x0 c:/program files/microchip/xc32/v4.35/bin/bin/../../lib/gcc/pic32c/8.3.1/../../../../pic32c/lib/arm/v5te/nofp\libg-musl.a(__io_init_needed.o)
 .bss           0x00000000        0x0 c:/program files/microchip/xc32/v4.35/bin/bin/../../lib/gcc/pic32c/8.3.1/../../../../pic32c/lib/arm/v5te/nofp\libg-musl.a(__io_init_needed.o)
 .xc_stack_usage
                0x00000000       0x40 c:/program files/microchip/xc32/v4.35/bin/bin/../../lib/gcc/pic32c/8.3.1/../../../../pic32c/lib/arm/v5te/nofp\libg-musl.a(__io_init_needed.o)
 .xc_stack_usage.hdr
                0x00000000        0xe c:/program files/microchip/xc32/v4.35/bin/bin/../../lib/gcc/pic32c/8.3.1/../../../../pic32c/lib/arm/v5te/nofp\libg-musl.a(__io_init_needed.o)
 .debug_info    0x00000000      0x355 c:/program files/microchip/xc32/v4.35/bin/bin/../../lib/gcc/pic32c/8.3.1/../../../../pic32c/lib/arm/v5te/nofp\libg-musl.a(__io_init_needed.o)
 .debug_abbrev  0x00000000       0x79 c:/program files/microchip/xc32/v4.35/bin/bin/../../lib/gcc/pic32c/8.3.1/../../../../pic32c/lib/arm/v5te/nofp\libg-musl.a(__io_init_needed.o)
 .debug_aranges
                0x00000000       0x28 c:/program files/microchip/xc32/v4.35/bin/bin/../../lib/gcc/pic32c/8.3.1/../../../../pic32c/lib/arm/v5te/nofp\libg-musl.a(__io_init_needed.o)
 .debug_ranges  0x00000000       0x18 c:/program files/microchip/xc32/v4.35/bin/bin/../../lib/gcc/pic32c/8.3.1/../../../../pic32c/lib/arm/v5te/nofp\libg-musl.a(__io_init_needed.o)
 .debug_line    0x00000000      0x12a c:/program files/microchip/xc32/v4.35/bin/bin/../../lib/gcc/pic32c/8.3.1/../../../../pic32c/lib/arm/v5te/nofp\libg-musl.a(__io_init_needed.o)
 .debug_str     0x00000000       0x25 c:/program files/microchip/xc32/v4.35/bin/bin/../../lib/gcc/pic32c/8.3.1/../../../../pic32c/lib/arm/v5te/nofp\libg-musl.a(__io_init_needed.o)
 .comment       0x00000000       0x2c c:/program files/microchip/xc32/v4.35/bin/bin/../../lib/gcc/pic32c/8.3.1/../../../../pic32c/lib/arm/v5te/nofp\libg-musl.a(__io_init_needed.o)
 .note.GNU-stack
                0x00000000        0x0 c:/program files/microchip/xc32/v4.35/bin/bin/../../lib/gcc/pic32c/8.3.1/../../../../pic32c/lib/arm/v5te/nofp\libg-musl.a(__io_init_needed.o)
 .debug_frame   0x00000000       0x30 c:/program files/microchip/xc32/v4.35/bin/bin/../../lib/gcc/pic32c/8.3.1/../../../../pic32c/lib/arm/v5te/nofp\libg-musl.a(__io_init_needed.o)
 .ARM.attributes
                0x00000000       0x2d c:/program files/microchip/xc32/v4.35/bin/bin/../../lib/gcc/pic32c/8.3.1/../../../../pic32c/lib/arm/v5te/nofp\libg-musl.a(__io_init_needed.o)
 .text          0x00000000        0x0 c:/program files/microchip/xc32/v4.35/bin/bin/../../lib/gcc/pic32c/8.3.1/../../../../pic32c/lib/arm/v5te/nofp\libg-musl.a(__pop_float.o)
 .data          0x00000000        0x0 c:/program files/microchip/xc32/v4.35/bin/bin/../../lib/gcc/pic32c/8.3.1/../../../../pic32c/lib/arm/v5te/nofp\libg-musl.a(__pop_float.o)
 .bss           0x00000000        0x0 c:/program files/microchip/xc32/v4.35/bin/bin/../../lib/gcc/pic32c/8.3.1/../../../../pic32c/lib/arm/v5te/nofp\libg-musl.a(__pop_float.o)
 .xc_stack_usage
                0x00000000       0x19 c:/program files/microchip/xc32/v4.35/bin/bin/../../lib/gcc/pic32c/8.3.1/../../../../pic32c/lib/arm/v5te/nofp\libg-musl.a(__pop_float.o)
 .xc_stack_usage.hdr
                0x00000000        0xe c:/program files/microchip/xc32/v4.35/bin/bin/../../lib/gcc/pic32c/8.3.1/../../../../pic32c/lib/arm/v5te/nofp\libg-musl.a(__pop_float.o)
 .text          0x00000000        0x0 c:/program files/microchip/xc32/v4.35/bin/bin/../../lib/gcc/pic32c/8.3.1/../../../../pic32c/lib/arm/v5te/nofp\libg-musl.a(fwrite.o)
 .data          0x00000000        0x0 c:/program files/microchip/xc32/v4.35/bin/bin/../../lib/gcc/pic32c/8.3.1/../../../../pic32c/lib/arm/v5te/nofp\libg-musl.a(fwrite.o)
 .bss           0x00000000        0x0 c:/program files/microchip/xc32/v4.35/bin/bin/../../lib/gcc/pic32c/8.3.1/../../../../pic32c/lib/arm/v5te/nofp\libg-musl.a(fwrite.o)
 .xc_stack_usage
                0x00000000       0x2e c:/program files/microchip/xc32/v4.35/bin/bin/../../lib/gcc/pic32c/8.3.1/../../../../pic32c/lib/arm/v5te/nofp\libg-musl.a(fwrite.o)
 .text.fwrite   0x00000000       0x48 c:/program files/microchip/xc32/v4.35/bin/bin/../../lib/gcc/pic32c/8.3.1/../../../../pic32c/lib/arm/v5te/nofp\libg-musl.a(fwrite.o)
 .xc_stack_usage.hdr
                0x00000000        0xe c:/program files/microchip/xc32/v4.35/bin/bin/../../lib/gcc/pic32c/8.3.1/../../../../pic32c/lib/arm/v5te/nofp\libg-musl.a(fwrite.o)
 .text          0x00000000        0x0 c:/program files/microchip/xc32/v4.35/bin/bin/../../lib/gcc/pic32c/8.3.1/../../../../pic32c/lib/arm/v5te/nofp\libg-musl.a(putc.o)
 .data          0x00000000        0x0 c:/program files/microchip/xc32/v4.35/bin/bin/../../lib/gcc/pic32c/8.3.1/../../../../pic32c/lib/arm/v5te/nofp\libg-musl.a(putc.o)
 .bss           0x00000000        0x0 c:/program files/microchip/xc32/v4.35/bin/bin/../../lib/gcc/pic32c/8.3.1/../../../../pic32c/lib/arm/v5te/nofp\libg-musl.a(putc.o)
 .xc_stack_usage
                0x00000000       0x4f c:/program files/microchip/xc32/v4.35/bin/bin/../../lib/gcc/pic32c/8.3.1/../../../../pic32c/lib/arm/v5te/nofp\libg-musl.a(putc.o)
 .text.__putc_unbuffered
                0x00000000       0x50 c:/program files/microchip/xc32/v4.35/bin/bin/../../lib/gcc/pic32c/8.3.1/../../../../pic32c/lib/arm/v5te/nofp\libg-musl.a(putc.o)
 .text.putc     0x00000000        0xc c:/program files/microchip/xc32/v4.35/bin/bin/../../lib/gcc/pic32c/8.3.1/../../../../pic32c/lib/arm/v5te/nofp\libg-musl.a(putc.o)
 __xc_reference_data
                0x00000000        0xc c:/program files/microchip/xc32/v4.35/bin/bin/../../lib/gcc/pic32c/8.3.1/../../../../pic32c/lib/arm/v5te/nofp\libg-musl.a(putc.o)
 .xc_stack_usage.hdr
                0x00000000        0xe c:/program files/microchip/xc32/v4.35/bin/bin/../../lib/gcc/pic32c/8.3.1/../../../../pic32c/lib/arm/v5te/nofp\libg-musl.a(putc.o)
 .debug_info    0x00000000      0x494 c:/program files/microchip/xc32/v4.35/bin/bin/../../lib/gcc/pic32c/8.3.1/../../../../pic32c/lib/arm/v5te/nofp\libg-musl.a(putc.o)
 .debug_abbrev  0x00000000      0x109 c:/program files/microchip/xc32/v4.35/bin/bin/../../lib/gcc/pic32c/8.3.1/../../../../pic32c/lib/arm/v5te/nofp\libg-musl.a(putc.o)
 .debug_loc     0x00000000      0x116 c:/program files/microchip/xc32/v4.35/bin/bin/../../lib/gcc/pic32c/8.3.1/../../../../pic32c/lib/arm/v5te/nofp\libg-musl.a(putc.o)
 .debug_aranges
                0x00000000       0x30 c:/program files/microchip/xc32/v4.35/bin/bin/../../lib/gcc/pic32c/8.3.1/../../../../pic32c/lib/arm/v5te/nofp\libg-musl.a(putc.o)
 .debug_ranges  0x00000000       0x20 c:/program files/microchip/xc32/v4.35/bin/bin/../../lib/gcc/pic32c/8.3.1/../../../../pic32c/lib/arm/v5te/nofp\libg-musl.a(putc.o)
 .debug_line    0x00000000      0x19d c:/program files/microchip/xc32/v4.35/bin/bin/../../lib/gcc/pic32c/8.3.1/../../../../pic32c/lib/arm/v5te/nofp\libg-musl.a(putc.o)
 .debug_str     0x00000000       0x16 c:/program files/microchip/xc32/v4.35/bin/bin/../../lib/gcc/pic32c/8.3.1/../../../../pic32c/lib/arm/v5te/nofp\libg-musl.a(putc.o)
 .comment       0x00000000       0x2c c:/program files/microchip/xc32/v4.35/bin/bin/../../lib/gcc/pic32c/8.3.1/../../../../pic32c/lib/arm/v5te/nofp\libg-musl.a(putc.o)
 .note.GNU-stack
                0x00000000        0x0 c:/program files/microchip/xc32/v4.35/bin/bin/../../lib/gcc/pic32c/8.3.1/../../../../pic32c/lib/arm/v5te/nofp\libg-musl.a(putc.o)
 .debug_frame   0x00000000       0x54 c:/program files/microchip/xc32/v4.35/bin/bin/../../lib/gcc/pic32c/8.3.1/../../../../pic32c/lib/arm/v5te/nofp\libg-musl.a(putc.o)
 .ARM.attributes
                0x00000000       0x2d c:/program files/microchip/xc32/v4.35/bin/bin/../../lib/gcc/pic32c/8.3.1/../../../../pic32c/lib/arm/v5te/nofp\libg-musl.a(putc.o)
 .text          0x00000000        0x0 c:/program files/microchip/xc32/v4.35/bin/bin/../../lib/gcc/pic32c/8.3.1/../../../../pic32c/lib/arm/v5te/nofp\libg-musl.a(__int_vsnprintf.o)
 .data          0x00000000        0x0 c:/program files/microchip/xc32/v4.35/bin/bin/../../lib/gcc/pic32c/8.3.1/../../../../pic32c/lib/arm/v5te/nofp\libg-musl.a(__int_vsnprintf.o)
 .bss           0x00000000        0x0 c:/program files/microchip/xc32/v4.35/bin/bin/../../lib/gcc/pic32c/8.3.1/../../../../pic32c/lib/arm/v5te/nofp\libg-musl.a(__int_vsnprintf.o)
 .xc_stack_usage
                0x00000000       0x19 c:/program files/microchip/xc32/v4.35/bin/bin/../../lib/gcc/pic32c/8.3.1/../../../../pic32c/lib/arm/v5te/nofp\libg-musl.a(__int_vsnprintf.o)
 .xc_stack_usage.hdr
                0x00000000        0xe c:/program files/microchip/xc32/v4.35/bin/bin/../../lib/gcc/pic32c/8.3.1/../../../../pic32c/lib/arm/v5te/nofp\libg-musl.a(__int_vsnprintf.o)
 .text          0x00000000        0x0 c:/program files/microchip/xc32/v4.35/bin/bin/../../lib/gcc/pic32c/8.3.1/../../../../pic32c/lib/arm/v5te/nofp\libg-musl.a(__init_stdio.o)
 .data          0x00000000        0x0 c:/program files/microchip/xc32/v4.35/bin/bin/../../lib/gcc/pic32c/8.3.1/../../../../pic32c/lib/arm/v5te/nofp\libg-musl.a(__init_stdio.o)
 .bss           0x00000000        0x0 c:/program files/microchip/xc32/v4.35/bin/bin/../../lib/gcc/pic32c/8.3.1/../../../../pic32c/lib/arm/v5te/nofp\libg-musl.a(__init_stdio.o)
 .xc_stack_usage
                0x00000000       0x2f c:/program files/microchip/xc32/v4.35/bin/bin/../../lib/gcc/pic32c/8.3.1/../../../../pic32c/lib/arm/v5te/nofp\libg-musl.a(__init_stdio.o)
 .xc_stack_usage.hdr
                0x00000000        0xe c:/program files/microchip/xc32/v4.35/bin/bin/../../lib/gcc/pic32c/8.3.1/../../../../pic32c/lib/arm/v5te/nofp\libg-musl.a(__init_stdio.o)
 .text          0x00000000        0x0 c:/program files/microchip/xc32/v4.35/bin/bin/../../lib/gcc/pic32c/8.3.1/../../../../pic32c/lib/arm/v5te/nofp\libg-musl.a(__io_file_needed.o)
 .data          0x00000000        0x0 c:/program files/microchip/xc32/v4.35/bin/bin/../../lib/gcc/pic32c/8.3.1/../../../../pic32c/lib/arm/v5te/nofp\libg-musl.a(__io_file_needed.o)
 .bss           0x00000000        0x0 c:/program files/microchip/xc32/v4.35/bin/bin/../../lib/gcc/pic32c/8.3.1/../../../../pic32c/lib/arm/v5te/nofp\libg-musl.a(__io_file_needed.o)
 .xc_stack_usage
                0x00000000       0x1e c:/program files/microchip/xc32/v4.35/bin/bin/../../lib/gcc/pic32c/8.3.1/../../../../pic32c/lib/arm/v5te/nofp\libg-musl.a(__io_file_needed.o)
 .xc_stack_usage.hdr
                0x00000000        0xe c:/program files/microchip/xc32/v4.35/bin/bin/../../lib/gcc/pic32c/8.3.1/../../../../pic32c/lib/arm/v5te/nofp\libg-musl.a(__io_file_needed.o)
 .debug_info    0x00000000      0x312 c:/program files/microchip/xc32/v4.35/bin/bin/../../lib/gcc/pic32c/8.3.1/../../../../pic32c/lib/arm/v5te/nofp\libg-musl.a(__io_file_needed.o)
 .debug_abbrev  0x00000000       0x5f c:/program files/microchip/xc32/v4.35/bin/bin/../../lib/gcc/pic32c/8.3.1/../../../../pic32c/lib/arm/v5te/nofp\libg-musl.a(__io_file_needed.o)
 .debug_aranges
                0x00000000       0x20 c:/program files/microchip/xc32/v4.35/bin/bin/../../lib/gcc/pic32c/8.3.1/../../../../pic32c/lib/arm/v5te/nofp\libg-musl.a(__io_file_needed.o)
 .debug_ranges  0x00000000       0x10 c:/program files/microchip/xc32/v4.35/bin/bin/../../lib/gcc/pic32c/8.3.1/../../../../pic32c/lib/arm/v5te/nofp\libg-musl.a(__io_file_needed.o)
 .debug_line    0x00000000       0xaf c:/program files/microchip/xc32/v4.35/bin/bin/../../lib/gcc/pic32c/8.3.1/../../../../pic32c/lib/arm/v5te/nofp\libg-musl.a(__io_file_needed.o)
 .debug_str     0x00000000        0xd c:/program files/microchip/xc32/v4.35/bin/bin/../../lib/gcc/pic32c/8.3.1/../../../../pic32c/lib/arm/v5te/nofp\libg-musl.a(__io_file_needed.o)
 .comment       0x00000000       0x2c c:/program files/microchip/xc32/v4.35/bin/bin/../../lib/gcc/pic32c/8.3.1/../../../../pic32c/lib/arm/v5te/nofp\libg-musl.a(__io_file_needed.o)
 .note.GNU-stack
                0x00000000        0x0 c:/program files/microchip/xc32/v4.35/bin/bin/../../lib/gcc/pic32c/8.3.1/../../../../pic32c/lib/arm/v5te/nofp\libg-musl.a(__io_file_needed.o)
 .debug_frame   0x00000000       0x20 c:/program files/microchip/xc32/v4.35/bin/bin/../../lib/gcc/pic32c/8.3.1/../../../../pic32c/lib/arm/v5te/nofp\libg-musl.a(__io_file_needed.o)
 .ARM.attributes
                0x00000000       0x2d c:/program files/microchip/xc32/v4.35/bin/bin/../../lib/gcc/pic32c/8.3.1/../../../../pic32c/lib/arm/v5te/nofp\libg-musl.a(__io_file_needed.o)
 .text          0x00000000        0x0 c:/program files/microchip/xc32/v4.35/bin/bin/../../lib/gcc/pic32c/8.3.1/../../../../pic32c/lib/arm/v5te/nofp\libg-musl.a(__out.o)
 .data          0x00000000        0x0 c:/program files/microchip/xc32/v4.35/bin/bin/../../lib/gcc/pic32c/8.3.1/../../../../pic32c/lib/arm/v5te/nofp\libg-musl.a(__out.o)
 .bss           0x00000000        0x0 c:/program files/microchip/xc32/v4.35/bin/bin/../../lib/gcc/pic32c/8.3.1/../../../../pic32c/lib/arm/v5te/nofp\libg-musl.a(__out.o)
 .xc_stack_usage
                0x00000000       0x2d c:/program files/microchip/xc32/v4.35/bin/bin/../../lib/gcc/pic32c/8.3.1/../../../../pic32c/lib/arm/v5te/nofp\libg-musl.a(__out.o)
 .text.__fwrite_min
                0x00000000        0x8 c:/program files/microchip/xc32/v4.35/bin/bin/../../lib/gcc/pic32c/8.3.1/../../../../pic32c/lib/arm/v5te/nofp\libg-musl.a(__out.o)
 .xc_stack_usage.hdr
                0x00000000        0xe c:/program files/microchip/xc32/v4.35/bin/bin/../../lib/gcc/pic32c/8.3.1/../../../../pic32c/lib/arm/v5te/nofp\libg-musl.a(__out.o)
 .text          0x00000000        0x0 c:/program files/microchip/xc32/v4.35/bin/bin/../../lib/gcc/pic32c/8.3.1/../../../../pic32c/lib/arm/v5te/nofp\libpic32c.a(sbrk.o)
 .data          0x00000000        0x0 c:/program files/microchip/xc32/v4.35/bin/bin/../../lib/gcc/pic32c/8.3.1/../../../../pic32c/lib/arm/v5te/nofp\libpic32c.a(sbrk.o)
 .xc_stack_usage
                0x00000000       0x13 c:/program files/microchip/xc32/v4.35/bin/bin/../../lib/gcc/pic32c/8.3.1/../../../../pic32c/lib/arm/v5te/nofp\libpic32c.a(sbrk.o)
 .xc_stack_usage.hdr
                0x00000000        0xe c:/program files/microchip/xc32/v4.35/bin/bin/../../lib/gcc/pic32c/8.3.1/../../../../pic32c/lib/arm/v5te/nofp\libpic32c.a(sbrk.o)
 .text          0x00000000       0xa0 c:/program files/microchip/xc32/v4.35/bin/bin/../../lib/gcc/pic32c/8.3.1/arm/v5te/nofp\libgcc.a(_arm_truncdfsf2.o)
 .data          0x00000000        0x0 c:/program files/microchip/xc32/v4.35/bin/bin/../../lib/gcc/pic32c/8.3.1/arm/v5te/nofp\libgcc.a(_arm_truncdfsf2.o)
 .bss           0x00000000        0x0 c:/program files/microchip/xc32/v4.35/bin/bin/../../lib/gcc/pic32c/8.3.1/arm/v5te/nofp\libgcc.a(_arm_truncdfsf2.o)
 .xc_stack_usage.hdr
                0x00000000        0xe c:/program files/microchip/xc32/v4.35/bin/bin/../../lib/gcc/pic32c/8.3.1/arm/v5te/nofp\libgcc.a(_arm_truncdfsf2.o)
 .xc_stack_usage
                0x00000000       0x1a c:/program files/microchip/xc32/v4.35/bin/bin/../../lib/gcc/pic32c/8.3.1/arm/v5te/nofp\libgcc.a(_arm_truncdfsf2.o)
 .debug_line    0x00000000       0xbc c:/program files/microchip/xc32/v4.35/bin/bin/../../lib/gcc/pic32c/8.3.1/arm/v5te/nofp\libgcc.a(_arm_truncdfsf2.o)
 .debug_info    0x00000000       0x26 c:/program files/microchip/xc32/v4.35/bin/bin/../../lib/gcc/pic32c/8.3.1/arm/v5te/nofp\libgcc.a(_arm_truncdfsf2.o)
 .debug_abbrev  0x00000000       0x14 c:/program files/microchip/xc32/v4.35/bin/bin/../../lib/gcc/pic32c/8.3.1/arm/v5te/nofp\libgcc.a(_arm_truncdfsf2.o)
 .debug_aranges
                0x00000000       0x20 c:/program files/microchip/xc32/v4.35/bin/bin/../../lib/gcc/pic32c/8.3.1/arm/v5te/nofp\libgcc.a(_arm_truncdfsf2.o)
 .debug_str     0x00000000       0xe7 c:/program files/microchip/xc32/v4.35/bin/bin/../../lib/gcc/pic32c/8.3.1/arm/v5te/nofp\libgcc.a(_arm_truncdfsf2.o)
 .debug_frame   0x00000000       0x24 c:/program files/microchip/xc32/v4.35/bin/bin/../../lib/gcc/pic32c/8.3.1/arm/v5te/nofp\libgcc.a(_arm_truncdfsf2.o)
 .ARM.attributes
                0x00000000       0x1d c:/program files/microchip/xc32/v4.35/bin/bin/../../lib/gcc/pic32c/8.3.1/arm/v5te/nofp\libgcc.a(_arm_truncdfsf2.o)
 .text          0x00000000        0x0 c:/program files/microchip/xc32/v4.35/bin/bin/../../lib/gcc/pic32c/8.3.1/arm/v5te/nofp/crtend.o
 .data          0x00000000        0x0 c:/program files/microchip/xc32/v4.35/bin/bin/../../lib/gcc/pic32c/8.3.1/arm/v5te/nofp/crtend.o
 .bss           0x00000000        0x0 c:/program files/microchip/xc32/v4.35/bin/bin/../../lib/gcc/pic32c/8.3.1/arm/v5te/nofp/crtend.o
 .eh_frame      0x00000000        0x4 c:/program files/microchip/xc32/v4.35/bin/bin/../../lib/gcc/pic32c/8.3.1/arm/v5te/nofp/crtend.o
 .xc_stack_usage.hdr
                0x00000000        0xe c:/program files/microchip/xc32/v4.35/bin/bin/../../lib/gcc/pic32c/8.3.1/arm/v5te/nofp/crtend.o
 .comment       0x00000000       0x2c c:/program files/microchip/xc32/v4.35/bin/bin/../../lib/gcc/pic32c/8.3.1/arm/v5te/nofp/crtend.o
 .ARM.attributes
                0x00000000       0x2b c:/program files/microchip/xc32/v4.35/bin/bin/../../lib/gcc/pic32c/8.3.1/arm/v5te/nofp/crtend.o
 .text          0x00000000        0x0 c:/program files/microchip/xc32/v4.35/bin/bin/../../lib/gcc/pic32c/8.3.1/arm/v5te/nofp/crtn.o
 .data          0x00000000        0x0 c:/program files/microchip/xc32/v4.35/bin/bin/../../lib/gcc/pic32c/8.3.1/arm/v5te/nofp/crtn.o
 .bss           0x00000000        0x0 c:/program files/microchip/xc32/v4.35/bin/bin/../../lib/gcc/pic32c/8.3.1/arm/v5te/nofp/crtn.o
 .xc_stack_usage.hdr
                0x00000000        0xe c:/program files/microchip/xc32/v4.35/bin/bin/../../lib/gcc/pic32c/8.3.1/arm/v5te/nofp/crtn.o

Memory Configuration

Name             Origin             Length             Attributes
sram             0x00300000         0x00010000         xw
ram              0x21000000         0x07000000         xwl !r
ram_nocache      0x20000000         0x01000000         !xrw
rom              0x00000000         0x00000000         xrl
*default*        0x00000000         0xffffffff

Linker script and memory map

LOAD c:/program files/microchip/xc32/v4.35/bin/bin/../../lib/gcc/pic32c/8.3.1/arm/v5te/nofp/crti.o
LOAD c:/program files/microchip/xc32/v4.35/bin/bin/../../lib/gcc/pic32c/8.3.1/arm/v5te/nofp/crtbegin.o
LOAD build/lcdc_rgba888_mxt_9x60_wvga/debug/_ext/1121151461/gfx_canvas_api.o
LOAD build/lcdc_rgba888_mxt_9x60_wvga/debug/_ext/1121151461/gfx_canvas.o
LOAD build/lcdc_rgba888_mxt_9x60_wvga/debug/_ext/1165331637/gfx_driver.o
LOAD build/lcdc_rgba888_mxt_9x60_wvga/debug/_ext/305146849/legato_pixelbuffer.o
LOAD build/lcdc_rgba888_mxt_9x60_wvga/debug/_ext/305146849/legato_color_value.o
LOAD build/lcdc_rgba888_mxt_9x60_wvga/debug/_ext/305146849/legato_utils.o
LOAD build/lcdc_rgba888_mxt_9x60_wvga/debug/_ext/305146849/legato_color_convert.o
LOAD build/lcdc_rgba888_mxt_9x60_wvga/debug/_ext/305146849/legato_rect.o
LOAD build/lcdc_rgba888_mxt_9x60_wvga/debug/_ext/305146849/legato_color_lerp.o
LOAD build/lcdc_rgba888_mxt_9x60_wvga/debug/_ext/305146849/legato_math.o
LOAD build/lcdc_rgba888_mxt_9x60_wvga/debug/_ext/305146849/legato_color_blend.o
LOAD build/lcdc_rgba888_mxt_9x60_wvga/debug/_ext/305146849/legato_error.o
LOAD build/lcdc_rgba888_mxt_9x60_wvga/debug/_ext/305146849/legato_color.o
LOAD build/lcdc_rgba888_mxt_9x60_wvga/debug/_ext/1618192685/legato_stream.o
LOAD build/lcdc_rgba888_mxt_9x60_wvga/debug/_ext/1618192685/legato_scheme.o
LOAD build/lcdc_rgba888_mxt_9x60_wvga/debug/_ext/1618192685/legato_input.o
LOAD build/lcdc_rgba888_mxt_9x60_wvga/debug/_ext/1618192685/legato_event.o
LOAD build/lcdc_rgba888_mxt_9x60_wvga/debug/_ext/1618192685/legato_state.o
LOAD build/lcdc_rgba888_mxt_9x60_wvga/debug/_ext/109670485/legato_list.o
LOAD build/lcdc_rgba888_mxt_9x60_wvga/debug/_ext/109670485/legato_rectarray.o
LOAD build/lcdc_rgba888_mxt_9x60_wvga/debug/_ext/109670485/legato_array.o
LOAD build/lcdc_rgba888_mxt_9x60_wvga/debug/_ext/1618103421/legato_font.o
LOAD build/lcdc_rgba888_mxt_9x60_wvga/debug/_ext/1618103421/legato_rasterfont_liberationmono8.o
LOAD build/lcdc_rgba888_mxt_9x60_wvga/debug/_ext/1618103421/legato_rasterfont_stream.o
LOAD build/lcdc_rgba888_mxt_9x60_wvga/debug/_ext/1618103421/legato_rasterfont_liberationmono1.o
LOAD build/lcdc_rgba888_mxt_9x60_wvga/debug/_ext/644506877/le_gen_fonts.o
LOAD build/lcdc_rgba888_mxt_9x60_wvga/debug/_ext/1497821479/le_gen_images.o
LOAD build/lcdc_rgba888_mxt_9x60_wvga/debug/_ext/534613472/le_gen_screen_Screen0.o
LOAD build/lcdc_rgba888_mxt_9x60_wvga/debug/_ext/706129189/le_gen_stringtable.o
LOAD build/lcdc_rgba888_mxt_9x60_wvga/debug/_ext/706129189/le_gen_init.o
LOAD build/lcdc_rgba888_mxt_9x60_wvga/debug/_ext/706129189/le_gen_harmony.o
LOAD build/lcdc_rgba888_mxt_9x60_wvga/debug/_ext/706129189/le_gen_globalpalette.o
LOAD build/lcdc_rgba888_mxt_9x60_wvga/debug/_ext/706129189/le_gen_scheme.o
LOAD build/lcdc_rgba888_mxt_9x60_wvga/debug/_ext/2086705360/legato_imagedecoder_jpeg.o
LOAD build/lcdc_rgba888_mxt_9x60_wvga/debug/_ext/2086705360/legato_imagedecoder_jpeg_common.o
LOAD build/lcdc_rgba888_mxt_9x60_wvga/debug/_ext/2086705360/jidctint.o
LOAD build/lcdc_rgba888_mxt_9x60_wvga/debug/_ext/2086794059/legato_imagedecoder_mono_read_internal.o
LOAD build/lcdc_rgba888_mxt_9x60_wvga/debug/_ext/2086794059/legato_imagedecoder_mono_read_stream.o
LOAD build/lcdc_rgba888_mxt_9x60_wvga/debug/_ext/2086794059/legato_imagedecoder_mono.o
LOAD build/lcdc_rgba888_mxt_9x60_wvga/debug/_ext/1872343871/lodepng.o
LOAD build/lcdc_rgba888_mxt_9x60_wvga/debug/_ext/1872343871/legato_imagedecoder_png.o
LOAD build/lcdc_rgba888_mxt_9x60_wvga/debug/_ext/1872342336/legato_imagedecoder_raw_read_stream_rlecolor.o
LOAD build/lcdc_rgba888_mxt_9x60_wvga/debug/_ext/1872342336/legato_imagedecoder_raw_read_internal.o
LOAD build/lcdc_rgba888_mxt_9x60_wvga/debug/_ext/1872342336/legato_imagedecoder_raw_read_stream_color.o
LOAD build/lcdc_rgba888_mxt_9x60_wvga/debug/_ext/1872342336/legato_imagedecoder_raw_scale.o
LOAD build/lcdc_rgba888_mxt_9x60_wvga/debug/_ext/1872342336/legato_imagedecoder_raw_read_stream_rleindex.o
LOAD build/lcdc_rgba888_mxt_9x60_wvga/debug/_ext/1872342336/legato_imagedecoder_raw.o
LOAD build/lcdc_rgba888_mxt_9x60_wvga/debug/_ext/1872342336/legato_imagedecoder_raw_rotate.o
LOAD build/lcdc_rgba888_mxt_9x60_wvga/debug/_ext/1872342336/legato_imagedecoder_raw_mask.o
LOAD build/lcdc_rgba888_mxt_9x60_wvga/debug/_ext/1872342336/legato_imagedecoder_raw_write.o
LOAD build/lcdc_rgba888_mxt_9x60_wvga/debug/_ext/1872342336/legato_imagedecoder_raw_palette_stream.o
LOAD build/lcdc_rgba888_mxt_9x60_wvga/debug/_ext/1872342336/legato_imagedecoder_raw_palette_internal.o
LOAD build/lcdc_rgba888_mxt_9x60_wvga/debug/_ext/1872342336/legato_imagedecoder_raw_setup.o
LOAD build/lcdc_rgba888_mxt_9x60_wvga/debug/_ext/1872342336/legato_imagedecoder_raw_blend.o
LOAD build/lcdc_rgba888_mxt_9x60_wvga/debug/_ext/1872342336/legato_imagedecoder_raw_read_stream_index.o
LOAD build/lcdc_rgba888_mxt_9x60_wvga/debug/_ext/1872342336/legato_imagedecoder_raw_convert.o
LOAD build/lcdc_rgba888_mxt_9x60_wvga/debug/_ext/1381099687/legato_image.o
LOAD build/lcdc_rgba888_mxt_9x60_wvga/debug/_ext/1381099687/legato_image_utils.o
LOAD build/lcdc_rgba888_mxt_9x60_wvga/debug/_ext/1381099687/legato_palette.o
LOAD build/lcdc_rgba888_mxt_9x60_wvga/debug/_ext/28088523/legato_fixedheap.o
LOAD build/lcdc_rgba888_mxt_9x60_wvga/debug/_ext/28088523/legato_memory.o
LOAD build/lcdc_rgba888_mxt_9x60_wvga/debug/_ext/28088523/legato_variableheap.o
LOAD build/lcdc_rgba888_mxt_9x60_wvga/debug/_ext/1081070089/legato_draw_rect.o
LOAD build/lcdc_rgba888_mxt_9x60_wvga/debug/_ext/1081070089/legato_draw_line.o
LOAD build/lcdc_rgba888_mxt_9x60_wvga/debug/_ext/1081070089/legato_draw_arc.o
LOAD build/lcdc_rgba888_mxt_9x60_wvga/debug/_ext/1081070089/legato_renderer.o
LOAD build/lcdc_rgba888_mxt_9x60_wvga/debug/_ext/1081070089/legato_draw.o
LOAD build/lcdc_rgba888_mxt_9x60_wvga/debug/_ext/1081070089/legato_gpu.o
LOAD build/lcdc_rgba888_mxt_9x60_wvga/debug/_ext/157682245/legato_stringutils.o
LOAD build/lcdc_rgba888_mxt_9x60_wvga/debug/_ext/157682245/legato_string.o
LOAD build/lcdc_rgba888_mxt_9x60_wvga/debug/_ext/157682245/legato_string_renderer_stream.o
LOAD build/lcdc_rgba888_mxt_9x60_wvga/debug/_ext/157682245/legato_dynamicstring.o
LOAD build/lcdc_rgba888_mxt_9x60_wvga/debug/_ext/157682245/legato_tablestring.o
LOAD build/lcdc_rgba888_mxt_9x60_wvga/debug/_ext/157682245/legato_stringtable.o
LOAD build/lcdc_rgba888_mxt_9x60_wvga/debug/_ext/157682245/legato_string_renderer.o
LOAD build/lcdc_rgba888_mxt_9x60_wvga/debug/_ext/157682245/legato_fixedstring.o
LOAD build/lcdc_rgba888_mxt_9x60_wvga/debug/_ext/1029185477/legato_widget_arc.o
LOAD build/lcdc_rgba888_mxt_9x60_wvga/debug/_ext/1029185477/legato_widget_arc_skin_classic.o
LOAD build/lcdc_rgba888_mxt_9x60_wvga/debug/_ext/1946336466/legato_widget_bar_graph_skin_classic.o
LOAD build/lcdc_rgba888_mxt_9x60_wvga/debug/_ext/1946336466/legato_widget_bar_graph.o
LOAD build/lcdc_rgba888_mxt_9x60_wvga/debug/_ext/1339002025/legato_widget_button.o
LOAD build/lcdc_rgba888_mxt_9x60_wvga/debug/_ext/1339002025/legato_widget_button_skin_classic.o
LOAD build/lcdc_rgba888_mxt_9x60_wvga/debug/_ext/935657338/legato_widget_checkbox.o
LOAD build/lcdc_rgba888_mxt_9x60_wvga/debug/_ext/935657338/legato_widget_checkbox_skin_classic.o
LOAD build/lcdc_rgba888_mxt_9x60_wvga/debug/_ext/1356472903/legato_widget_circle.o
LOAD build/lcdc_rgba888_mxt_9x60_wvga/debug/_ext/1356472903/legato_widget_circle_skin_classic.o
LOAD build/lcdc_rgba888_mxt_9x60_wvga/debug/_ext/2122148963/legato_widget_circular_gauge_skin_classic.o
LOAD build/lcdc_rgba888_mxt_9x60_wvga/debug/_ext/2122148963/legato_widget_circular_gauge.o
LOAD build/lcdc_rgba888_mxt_9x60_wvga/debug/_ext/1715456695/legato_widget_circular_slider_skin_classic.o
LOAD build/lcdc_rgba888_mxt_9x60_wvga/debug/_ext/1715456695/legato_widget_circular_slider.o
LOAD build/lcdc_rgba888_mxt_9x60_wvga/debug/_ext/1444382766/legato_widget_drawsurface.o
LOAD build/lcdc_rgba888_mxt_9x60_wvga/debug/_ext/1444382766/legato_widget_drawsurface_skin_classic.o
LOAD build/lcdc_rgba888_mxt_9x60_wvga/debug/_ext/511583513/legato_widget_gradient_skin_classic.o
LOAD build/lcdc_rgba888_mxt_9x60_wvga/debug/_ext/511583513/legato_widget_gradient.o
LOAD build/lcdc_rgba888_mxt_9x60_wvga/debug/_ext/94869853/legato_widget_groupbox_skin_classic.o
LOAD build/lcdc_rgba888_mxt_9x60_wvga/debug/_ext/94869853/legato_widget_groupbox.o
LOAD build/lcdc_rgba888_mxt_9x60_wvga/debug/_ext/1197524732/legato_widget_image_skin_classic.o
LOAD build/lcdc_rgba888_mxt_9x60_wvga/debug/_ext/1197524732/legato_widget_image.o
LOAD build/lcdc_rgba888_mxt_9x60_wvga/debug/_ext/1694778207/legato_widget_imagerotate_skin_classic.o
LOAD build/lcdc_rgba888_mxt_9x60_wvga/debug/_ext/1694778207/legato_widget_imagerotate.o
LOAD build/lcdc_rgba888_mxt_9x60_wvga/debug/_ext/609407686/legato_widget_imagescale.o
LOAD build/lcdc_rgba888_mxt_9x60_wvga/debug/_ext/609407686/legato_widget_imagescale_skin_classic.o
LOAD build/lcdc_rgba888_mxt_9x60_wvga/debug/_ext/2015859515/legato_widget_imagesequence.o
LOAD build/lcdc_rgba888_mxt_9x60_wvga/debug/_ext/2015859515/legato_widget_imagesequence_skin_classic.o
LOAD build/lcdc_rgba888_mxt_9x60_wvga/debug/_ext/1582032715/legato_widget_keypad_skin_classic.o
LOAD build/lcdc_rgba888_mxt_9x60_wvga/debug/_ext/1582032715/legato_widget_keypad.o
LOAD build/lcdc_rgba888_mxt_9x60_wvga/debug/_ext/1195110755/legato_widget_label_skin_classic.o
LOAD build/lcdc_rgba888_mxt_9x60_wvga/debug/_ext/1195110755/legato_widget_label.o
LOAD build/lcdc_rgba888_mxt_9x60_wvga/debug/_ext/1839659221/legato_widget_line_skin_classic.o
LOAD build/lcdc_rgba888_mxt_9x60_wvga/debug/_ext/1839659221/legato_widget_line.o
LOAD build/lcdc_rgba888_mxt_9x60_wvga/debug/_ext/1047821571/legato_widget_line_graph_skin_classic.o
LOAD build/lcdc_rgba888_mxt_9x60_wvga/debug/_ext/1047821571/legato_widget_line_graph.o
LOAD build/lcdc_rgba888_mxt_9x60_wvga/debug/_ext/1839659051/legato_widget_list.o
LOAD build/lcdc_rgba888_mxt_9x60_wvga/debug/_ext/1839659051/legato_widget_list_skin_classic.o
LOAD build/lcdc_rgba888_mxt_9x60_wvga/debug/_ext/1634291878/legato_widget_listwheel.o
LOAD build/lcdc_rgba888_mxt_9x60_wvga/debug/_ext/1634291878/legato_widget_listwheel_skin_classic.o
LOAD build/lcdc_rgba888_mxt_9x60_wvga/debug/_ext/1290198647/legato_widget_pie_chart_skin_classic.o
LOAD build/lcdc_rgba888_mxt_9x60_wvga/debug/_ext/1290198647/legato_widget_pie_chart.o
LOAD build/lcdc_rgba888_mxt_9x60_wvga/debug/_ext/231973969/legato_widget_progressbar.o
LOAD build/lcdc_rgba888_mxt_9x60_wvga/debug/_ext/231973969/legato_widget_progressbar_skin_classic.o
LOAD build/lcdc_rgba888_mxt_9x60_wvga/debug/_ext/1643194869/legato_widget_radial_menu.o
LOAD build/lcdc_rgba888_mxt_9x60_wvga/debug/_ext/1643194869/legato_widget_radial_menu_state.o
LOAD build/lcdc_rgba888_mxt_9x60_wvga/debug/_ext/1643194869/legato_widget_radial_menu_skin_classic.o
LOAD build/lcdc_rgba888_mxt_9x60_wvga/debug/_ext/1338867754/legato_widget_radiobutton_skin_classic.o
LOAD build/lcdc_rgba888_mxt_9x60_wvga/debug/_ext/1338867754/legato_widget_radiobutton.o
LOAD build/lcdc_rgba888_mxt_9x60_wvga/debug/_ext/1338867754/legato_radiobutton_group.o
LOAD build/lcdc_rgba888_mxt_9x60_wvga/debug/_ext/337100648/legato_widget_rectangle_skin_classic.o
LOAD build/lcdc_rgba888_mxt_9x60_wvga/debug/_ext/337100648/legato_widget_rectangle.o
LOAD build/lcdc_rgba888_mxt_9x60_wvga/debug/_ext/1040606897/legato_widget_scrollbar.o
LOAD build/lcdc_rgba888_mxt_9x60_wvga/debug/_ext/1040606897/legato_widget_scrollbar_skin_classic.o
LOAD build/lcdc_rgba888_mxt_9x60_wvga/debug/_ext/1817042520/legato_widget_slider.o
LOAD build/lcdc_rgba888_mxt_9x60_wvga/debug/_ext/1817042520/legato_widget_slider_skin_classic.o
LOAD build/lcdc_rgba888_mxt_9x60_wvga/debug/_ext/1805132566/legato_widget_textfield.o
LOAD build/lcdc_rgba888_mxt_9x60_wvga/debug/_ext/1805132566/legato_widget_textfield_skin_classic.o
LOAD build/lcdc_rgba888_mxt_9x60_wvga/debug/_ext/1093664902/legato_widget_touchtest_skin_classic.o
LOAD build/lcdc_rgba888_mxt_9x60_wvga/debug/_ext/1093664902/legato_widget_touchtest.o
LOAD build/lcdc_rgba888_mxt_9x60_wvga/debug/_ext/1928937831/legato_widget_window_skin_classic.o
LOAD build/lcdc_rgba888_mxt_9x60_wvga/debug/_ext/1928937831/legato_widget_window.o
LOAD build/lcdc_rgba888_mxt_9x60_wvga/debug/_ext/261620856/legato_widget_skin_classic.o
LOAD build/lcdc_rgba888_mxt_9x60_wvga/debug/_ext/261620856/legato_widget.o
LOAD build/lcdc_rgba888_mxt_9x60_wvga/debug/_ext/261620856/legato_widget_skin_classic_common.o
LOAD build/lcdc_rgba888_mxt_9x60_wvga/debug/_ext/261620856/legato_editwidget.o
LOAD build/lcdc_rgba888_mxt_9x60_wvga/debug/_ext/440801193/gfx_simulator.o
LOAD build/lcdc_rgba888_mxt_9x60_wvga/debug/_ext/4986847/plib_aic.o
LOAD build/lcdc_rgba888_mxt_9x60_wvga/debug/_ext/4988870/plib_clk.o
LOAD build/lcdc_rgba888_mxt_9x60_wvga/debug/_ext/4998521/plib_mmu.o
LOAD build/lcdc_rgba888_mxt_9x60_wvga/debug/_ext/5001274/plib_pio.o
LOAD build/lcdc_rgba888_mxt_9x60_wvga/debug/_ext/286729486/xc32_monitor.o
LOAD build/lcdc_rgba888_mxt_9x60_wvga/debug/_ext/1408246553/sys_cache.o
LOAD build/lcdc_rgba888_mxt_9x60_wvga/debug/_ext/1414187873/sys_input.o
LOAD build/lcdc_rgba888_mxt_9x60_wvga/debug/_ext/1414187873/sys_input_listener.o
LOAD build/lcdc_rgba888_mxt_9x60_wvga/debug/_ext/1826491803/sys_int.o
LOAD build/lcdc_rgba888_mxt_9x60_wvga/debug/_ext/1812361045/sys_time.o
LOAD build/lcdc_rgba888_mxt_9x60_wvga/debug/_ext/2052985144/fault_handlers.o
LOAD build/lcdc_rgba888_mxt_9x60_wvga/debug/_ext/2052985144/tasks.o
LOAD build/lcdc_rgba888_mxt_9x60_wvga/debug/_ext/2052985144/initialization.o
LOAD build/lcdc_rgba888_mxt_9x60_wvga/debug/_ext/2052985144/cstartup.o
LOAD build/lcdc_rgba888_mxt_9x60_wvga/debug/_ext/2052985144/interrupts.o
LOAD build/lcdc_rgba888_mxt_9x60_wvga/debug/_ext/1360937237/app.o
LOAD build/lcdc_rgba888_mxt_9x60_wvga/debug/_ext/1360937237/main.o
                0x00000001                __MPLAB_BUILD = 0x1
                0x00001000                C_STACK_SIZE = 0x1000
                0x00000060                IRQ_STACK_SIZE = 0x60
                0x00000060                FIQ_STACK_SIZE = 0x60
                0x00001000                SVC_STACK_SIZE = 0x1000
                0x00000040                ABT_STACK_SIZE = 0x40
                0x00000040                UND_STACK_SIZE = 0x40

.text           0x23f00000   0x567100
                0x23f00000                . = ALIGN (0x4)
                [!provide]                PROVIDE (_sfixed = .)
 *(.textEntry)
 .textEntry     0x23f00000      0x10c build/lcdc_rgba888_mxt_9x60_wvga/debug/_ext/2052985144/cstartup.o
                0x23f00000                entry
 *(.text .text.* .gnu.linkonce.t.*)
 .text          0x23f0010c       0x70 c:/program files/microchip/xc32/v4.35/bin/bin/../../lib/gcc/pic32c/8.3.1/arm/v5te/nofp/crtbegin.o
 .text.gfxcCreate
                0x23f0017c       0x80 build/lcdc_rgba888_mxt_9x60_wvga/debug/_ext/1121151461/gfx_canvas_api.o
                0x23f0017c                gfxcCreate
 .text.gfxcSetPixelBuffer
                0x23f001fc       0x78 build/lcdc_rgba888_mxt_9x60_wvga/debug/_ext/1121151461/gfx_canvas_api.o
                0x23f001fc                gfxcSetPixelBuffer
 .text.gfxcSetLayer
                0x23f00274       0x50 build/lcdc_rgba888_mxt_9x60_wvga/debug/_ext/1121151461/gfx_canvas_api.o
                0x23f00274                gfxcSetLayer
 .text.gfxcSetWindowPosition
                0x23f002c4       0x3c build/lcdc_rgba888_mxt_9x60_wvga/debug/_ext/1121151461/gfx_canvas_api.o
                0x23f002c4                gfxcSetWindowPosition
 .text.gfxcSetWindowSize
                0x23f00300       0x3c build/lcdc_rgba888_mxt_9x60_wvga/debug/_ext/1121151461/gfx_canvas_api.o
                0x23f00300                gfxcSetWindowSize
 .text.gfxcShowCanvas
                0x23f0033c       0x2c build/lcdc_rgba888_mxt_9x60_wvga/debug/_ext/1121151461/gfx_canvas_api.o
                0x23f0033c                gfxcShowCanvas
 .text.gfxcHideCanvas
                0x23f00368       0x28 build/lcdc_rgba888_mxt_9x60_wvga/debug/_ext/1121151461/gfx_canvas_api.o
                0x23f00368                gfxcHideCanvas
 .text.gfxcCanvasUpdate
                0x23f00390       0x20 build/lcdc_rgba888_mxt_9x60_wvga/debug/_ext/1121151461/gfx_canvas_api.o
                0x23f00390                gfxcCanvasUpdate
 .text.effectsTimerCallback
                0x23f003b0       0x18 build/lcdc_rgba888_mxt_9x60_wvga/debug/_ext/1121151461/gfx_canvas.o
 .text.GFXC_Update
                0x23f003c8        0x4 build/lcdc_rgba888_mxt_9x60_wvga/debug/_ext/1121151461/gfx_canvas.o
 .text.GFX_CANVAS_IOCTL
                0x23f003cc      0x2b4 build/lcdc_rgba888_mxt_9x60_wvga/debug/_ext/1121151461/gfx_canvas.o
 .text.GFXC_BlitBuffer
                0x23f00680       0xe4 build/lcdc_rgba888_mxt_9x60_wvga/debug/_ext/1121151461/gfx_canvas.o
 .text.GFX_CANVAS_Initialize
                0x23f00764      0x134 build/lcdc_rgba888_mxt_9x60_wvga/debug/_ext/1121151461/gfx_canvas.o
                0x23f00764                GFX_CANVAS_Initialize
 .text._gfxcCanvasUpdate
                0x23f00898      0x2f8 build/lcdc_rgba888_mxt_9x60_wvga/debug/_ext/1121151461/gfx_canvas.o
                0x23f00898                _gfxcCanvasUpdate
 .text.GFX_CANVAS_Task
                0x23f00b90      0x3f4 build/lcdc_rgba888_mxt_9x60_wvga/debug/_ext/1121151461/gfx_canvas.o
                0x23f00b90                GFX_CANVAS_Task
 .text.gfxPixelBufferCreate
                0x23f00f84       0xd8 build/lcdc_rgba888_mxt_9x60_wvga/debug/_ext/1165331637/gfx_driver.o
                0x23f00f84                gfxPixelBufferCreate
 .text.gfxPixelBufferOffsetGet
                0x23f0105c       0x4c build/lcdc_rgba888_mxt_9x60_wvga/debug/_ext/1165331637/gfx_driver.o
                0x23f0105c                gfxPixelBufferOffsetGet
 .text.gfxPixelBuffer_IsLocked
                0x23f010a8       0x14 build/lcdc_rgba888_mxt_9x60_wvga/debug/_ext/1165331637/gfx_driver.o
                0x23f010a8                gfxPixelBuffer_IsLocked
 .text.indexGet1bpp
                0x23f010bc       0x20 build/lcdc_rgba888_mxt_9x60_wvga/debug/_ext/305146849/legato_pixelbuffer.o
 .text.indexGet4bpp
                0x23f010dc       0x18 build/lcdc_rgba888_mxt_9x60_wvga/debug/_ext/305146849/legato_pixelbuffer.o
 .text.indexGet
                0x23f010f4       0x64 build/lcdc_rgba888_mxt_9x60_wvga/debug/_ext/305146849/legato_pixelbuffer.o
 .text.get1byte
                0x23f01158        0x8 build/lcdc_rgba888_mxt_9x60_wvga/debug/_ext/305146849/legato_pixelbuffer.o
 .text.get2byte
                0x23f01160        0x8 build/lcdc_rgba888_mxt_9x60_wvga/debug/_ext/305146849/legato_pixelbuffer.o
 .text.get3byte
                0x23f01168       0x1c build/lcdc_rgba888_mxt_9x60_wvga/debug/_ext/305146849/legato_pixelbuffer.o
 .text.get4byte
                0x23f01184        0x8 build/lcdc_rgba888_mxt_9x60_wvga/debug/_ext/305146849/legato_pixelbuffer.o
 .text.set1byte
                0x23f0118c        0xc build/lcdc_rgba888_mxt_9x60_wvga/debug/_ext/305146849/legato_pixelbuffer.o
 .text.set2byte
                0x23f01198        0xc build/lcdc_rgba888_mxt_9x60_wvga/debug/_ext/305146849/legato_pixelbuffer.o
 .text.set3byte
                0x23f011a4       0x1c build/lcdc_rgba888_mxt_9x60_wvga/debug/_ext/305146849/legato_pixelbuffer.o
 .text.set4byte
                0x23f011c0        0xc build/lcdc_rgba888_mxt_9x60_wvga/debug/_ext/305146849/legato_pixelbuffer.o
 .text.lePixelBufferCreate
                0x23f011cc       0xd0 build/lcdc_rgba888_mxt_9x60_wvga/debug/_ext/305146849/legato_pixelbuffer.o
                0x23f011cc                lePixelBufferCreate
 .text.lePixelBufferOffsetGet
                0x23f0129c       0x5c build/lcdc_rgba888_mxt_9x60_wvga/debug/_ext/305146849/legato_pixelbuffer.o
                0x23f0129c                lePixelBufferOffsetGet
 .text.lePixelBufferOffsetGet_Unsafe
                0x23f012f8       0x44 build/lcdc_rgba888_mxt_9x60_wvga/debug/_ext/305146849/legato_pixelbuffer.o
                0x23f012f8                lePixelBufferOffsetGet_Unsafe
 .text.lePixelBufferGet_Unsafe
                0x23f0133c       0x64 build/lcdc_rgba888_mxt_9x60_wvga/debug/_ext/305146849/legato_pixelbuffer.o
                0x23f0133c                lePixelBufferGet_Unsafe
 .text.lePixelBufferGet
                0x23f013a0       0x34 build/lcdc_rgba888_mxt_9x60_wvga/debug/_ext/305146849/legato_pixelbuffer.o
                0x23f013a0                lePixelBufferGet
 .text.lePixelBufferClipRect
                0x23f013d4       0x84 build/lcdc_rgba888_mxt_9x60_wvga/debug/_ext/305146849/legato_pixelbuffer.o
                0x23f013d4                lePixelBufferClipRect
 .text.lePixelBufferGetIndex_Unsafe
                0x23f01458       0x2c build/lcdc_rgba888_mxt_9x60_wvga/debug/_ext/305146849/legato_pixelbuffer.o
                0x23f01458                lePixelBufferGetIndex_Unsafe
 .text.lePixelBufferSet_Unsafe
                0x23f01484       0x7c build/lcdc_rgba888_mxt_9x60_wvga/debug/_ext/305146849/legato_pixelbuffer.o
                0x23f01484                lePixelBufferSet_Unsafe
 .text.lePixelBufferSet
                0x23f01500       0x28 build/lcdc_rgba888_mxt_9x60_wvga/debug/_ext/305146849/legato_pixelbuffer.o
                0x23f01500                lePixelBufferSet
 .text.lePixelBufferAreaFill_Unsafe
                0x23f01528      0x118 build/lcdc_rgba888_mxt_9x60_wvga/debug/_ext/305146849/legato_pixelbuffer.o
                0x23f01528                lePixelBufferAreaFill_Unsafe
 .text.lePixelBufferAreaFill
                0x23f01640       0x70 build/lcdc_rgba888_mxt_9x60_wvga/debug/_ext/305146849/legato_pixelbuffer.o
                0x23f01640                lePixelBufferAreaFill
 .text.lePixelBufferCopy
                0x23f016b0       0xd8 build/lcdc_rgba888_mxt_9x60_wvga/debug/_ext/305146849/legato_pixelbuffer.o
                0x23f016b0                lePixelBufferCopy
 .text.leUtils_PickFromWidget
                0x23f01788       0xe0 build/lcdc_rgba888_mxt_9x60_wvga/debug/_ext/305146849/legato_utils.o
                0x23f01788                leUtils_PickFromWidget
 .text.leUtils_ClipRectToParent
                0x23f01868       0x84 build/lcdc_rgba888_mxt_9x60_wvga/debug/_ext/305146849/legato_utils.o
                0x23f01868                leUtils_ClipRectToParent
 .text.leUtils_RectToScreenSpace
                0x23f018ec       0x44 build/lcdc_rgba888_mxt_9x60_wvga/debug/_ext/305146849/legato_utils.o
                0x23f018ec                leUtils_RectToScreenSpace
 .text.leUtils_ClipRectToAncestors
                0x23f01930       0x94 build/lcdc_rgba888_mxt_9x60_wvga/debug/_ext/305146849/legato_utils.o
                0x23f01930                leUtils_ClipRectToAncestors
 .text.leUtils_ArrangeRectangle
                0x23f019c4      0x280 build/lcdc_rgba888_mxt_9x60_wvga/debug/_ext/305146849/legato_utils.o
                0x23f019c4                leUtils_ArrangeRectangle
 .text.leUtils_ArrangeRectangleRelative
                0x23f01c44      0x2b0 build/lcdc_rgba888_mxt_9x60_wvga/debug/_ext/305146849/legato_utils.o
                0x23f01c44                leUtils_ArrangeRectangleRelative
 .text.leUtils_GetSchemeLookupTable
                0x23f01ef4       0x64 build/lcdc_rgba888_mxt_9x60_wvga/debug/_ext/305146849/legato_utils.o
                0x23f01ef4                leUtils_GetSchemeLookupTable
 .text.no_conv  0x23f01f58        0x4 build/lcdc_rgba888_mxt_9x60_wvga/debug/_ext/305146849/legato_color_convert.o
 .text.gs8_rgb332
                0x23f01f5c       0x10 build/lcdc_rgba888_mxt_9x60_wvga/debug/_ext/305146849/legato_color_convert.o
 .text.gs8_rgb565
                0x23f01f6c       0x20 build/lcdc_rgba888_mxt_9x60_wvga/debug/_ext/305146849/legato_color_convert.o
 .text.gs8_rgba5551
                0x23f01f8c       0x28 build/lcdc_rgba888_mxt_9x60_wvga/debug/_ext/305146849/legato_color_convert.o
 .text.gs8_rgb888
                0x23f01fb4       0x10 build/lcdc_rgba888_mxt_9x60_wvga/debug/_ext/305146849/legato_color_convert.o
 .text.gs8_rgba8888
                0x23f01fc4       0x14 build/lcdc_rgba888_mxt_9x60_wvga/debug/_ext/305146849/legato_color_convert.o
 .text.gs8_argb8888
                0x23f01fd8       0x14 build/lcdc_rgba888_mxt_9x60_wvga/debug/_ext/305146849/legato_color_convert.o
 .text.gs8_mono
                0x23f01fec       0x10 build/lcdc_rgba888_mxt_9x60_wvga/debug/_ext/305146849/legato_color_convert.o
 .text.rgb332_rgb565
                0x23f01ffc       0x2c build/lcdc_rgba888_mxt_9x60_wvga/debug/_ext/305146849/legato_color_convert.o
 .text.rgb332_rgba5551
                0x23f02028       0x2c build/lcdc_rgba888_mxt_9x60_wvga/debug/_ext/305146849/legato_color_convert.o
 .text.rgb332_rgb888
                0x23f02054       0x30 build/lcdc_rgba888_mxt_9x60_wvga/debug/_ext/305146849/legato_color_convert.o
 .text.rgb332_rgba8888
                0x23f02084       0x2c build/lcdc_rgba888_mxt_9x60_wvga/debug/_ext/305146849/legato_color_convert.o
 .text.rgb332_argb8888
                0x23f020b0       0x30 build/lcdc_rgba888_mxt_9x60_wvga/debug/_ext/305146849/legato_color_convert.o
 .text.rgb565_rgb332
                0x23f020e0       0x20 build/lcdc_rgba888_mxt_9x60_wvga/debug/_ext/305146849/legato_color_convert.o
 .text.rgb565_rgba5551
                0x23f02100       0x20 build/lcdc_rgba888_mxt_9x60_wvga/debug/_ext/305146849/legato_color_convert.o
 .text.rgb565_rgb888
                0x23f02120       0x24 build/lcdc_rgba888_mxt_9x60_wvga/debug/_ext/305146849/legato_color_convert.o
 .text.rgb565_rgba8888
                0x23f02144       0x24 build/lcdc_rgba888_mxt_9x60_wvga/debug/_ext/305146849/legato_color_convert.o
 .text.rgb565_argb8888
                0x23f02168       0x28 build/lcdc_rgba888_mxt_9x60_wvga/debug/_ext/305146849/legato_color_convert.o
 .text.rgba5551_gs8
                0x23f02190        0x4 build/lcdc_rgba888_mxt_9x60_wvga/debug/_ext/305146849/legato_color_convert.o
 .text.rgba5551_rgb332
                0x23f02194       0x20 build/lcdc_rgba888_mxt_9x60_wvga/debug/_ext/305146849/legato_color_convert.o
 .text.rgba5551_rgb565
                0x23f021b4       0x1c build/lcdc_rgba888_mxt_9x60_wvga/debug/_ext/305146849/legato_color_convert.o
 .text.rgba5551_rgb888
                0x23f021d0       0x30 build/lcdc_rgba888_mxt_9x60_wvga/debug/_ext/305146849/legato_color_convert.o
 .text.rgba5551_rgba8888
                0x23f02200       0x40 build/lcdc_rgba888_mxt_9x60_wvga/debug/_ext/305146849/legato_color_convert.o
 .text.rgba5551_argb8888
                0x23f02240       0x40 build/lcdc_rgba888_mxt_9x60_wvga/debug/_ext/305146849/legato_color_convert.o
 .text.rgb888_gs8
                0x23f02280        0x4 build/lcdc_rgba888_mxt_9x60_wvga/debug/_ext/305146849/legato_color_convert.o
 .text.rgb888_rgb332
                0x23f02284       0x24 build/lcdc_rgba888_mxt_9x60_wvga/debug/_ext/305146849/legato_color_convert.o
 .text.rgb888_rgb565
                0x23f022a8       0x20 build/lcdc_rgba888_mxt_9x60_wvga/debug/_ext/305146849/legato_color_convert.o
 .text.rgb888_rgba5551
                0x23f022c8       0x28 build/lcdc_rgba888_mxt_9x60_wvga/debug/_ext/305146849/legato_color_convert.o
 .text.rgb888_rgba8888
                0x23f022f0        0xc build/lcdc_rgba888_mxt_9x60_wvga/debug/_ext/305146849/legato_color_convert.o
 .text.rgb888_argb8888
                0x23f022fc        0x8 build/lcdc_rgba888_mxt_9x60_wvga/debug/_ext/305146849/legato_color_convert.o
 .text.rgba8888_gs8
                0x23f02304        0x4 build/lcdc_rgba888_mxt_9x60_wvga/debug/_ext/305146849/legato_color_convert.o
 .text.rgba8888_rgb332
                0x23f02308       0x20 build/lcdc_rgba888_mxt_9x60_wvga/debug/_ext/305146849/legato_color_convert.o
 .text.rgba8888_rgb565
                0x23f02328       0x20 build/lcdc_rgba888_mxt_9x60_wvga/debug/_ext/305146849/legato_color_convert.o
 .text.rgba8888_rgba5551
                0x23f02348       0x34 build/lcdc_rgba888_mxt_9x60_wvga/debug/_ext/305146849/legato_color_convert.o
 .text.rgba8888_rgb888
                0x23f0237c        0x8 build/lcdc_rgba888_mxt_9x60_wvga/debug/_ext/305146849/legato_color_convert.o
 .text.rgba8888_argb8888
                0x23f02384        0x8 build/lcdc_rgba888_mxt_9x60_wvga/debug/_ext/305146849/legato_color_convert.o
 .text.argb8888_rgba5551
                0x23f0238c       0x34 build/lcdc_rgba888_mxt_9x60_wvga/debug/_ext/305146849/legato_color_convert.o
 .text.argb8888_rgb888
                0x23f023c0        0x8 build/lcdc_rgba888_mxt_9x60_wvga/debug/_ext/305146849/legato_color_convert.o
 .text.argb8888_rgba8888
                0x23f023c8        0x8 build/lcdc_rgba888_mxt_9x60_wvga/debug/_ext/305146849/legato_color_convert.o
 .text.rgb565_gs8
                0x23f023d0       0x54 build/lcdc_rgba888_mxt_9x60_wvga/debug/_ext/305146849/legato_color_convert.o
 .text.rgb332_gs8
                0x23f02424       0x54 build/lcdc_rgba888_mxt_9x60_wvga/debug/_ext/305146849/legato_color_convert.o
 .text.leColorConvert
                0x23f02478       0x28 build/lcdc_rgba888_mxt_9x60_wvga/debug/_ext/305146849/legato_color_convert.o
                0x23f02478                leColorConvert
 .text.leRectContainsPoint
                0x23f024a0       0x60 build/lcdc_rgba888_mxt_9x60_wvga/debug/_ext/305146849/legato_rect.o
                0x23f024a0                leRectContainsPoint
 .text.leRectContainsRect
                0x23f02500       0x70 build/lcdc_rgba888_mxt_9x60_wvga/debug/_ext/305146849/legato_rect.o
                0x23f02500                leRectContainsRect
 .text.leRectIntersects
                0x23f02570       0x70 build/lcdc_rgba888_mxt_9x60_wvga/debug/_ext/305146849/legato_rect.o
                0x23f02570                leRectIntersects
 .text.leRectCombine
                0x23f025e0       0x88 build/lcdc_rgba888_mxt_9x60_wvga/debug/_ext/305146849/legato_rect.o
                0x23f025e0                leRectCombine
 .text.leRectClipAdj
                0x23f02668      0x180 build/lcdc_rgba888_mxt_9x60_wvga/debug/_ext/305146849/legato_rect.o
                0x23f02668                leRectClipAdj
 .text.leRectClip
                0x23f027e8       0xa0 build/lcdc_rgba888_mxt_9x60_wvga/debug/_ext/305146849/legato_rect.o
                0x23f027e8                leRectClip
 .text.leRectCompare
                0x23f02888       0x60 build/lcdc_rgba888_mxt_9x60_wvga/debug/_ext/305146849/legato_rect.o
                0x23f02888                leRectCompare
 .text.leRectsAreSimilar
                0x23f028e8       0xcc build/lcdc_rgba888_mxt_9x60_wvga/debug/_ext/305146849/legato_rect.o
                0x23f028e8                leRectsAreSimilar
 .text.lerp_argb8888
                0x23f029b4       0x78 build/lcdc_rgba888_mxt_9x60_wvga/debug/_ext/305146849/legato_color_lerp.o
 .text.lerp_rgba8888
                0x23f02a2c       0x78 build/lcdc_rgba888_mxt_9x60_wvga/debug/_ext/305146849/legato_color_lerp.o
 .text.lerp_rgb888
                0x23f02aa4       0x60 build/lcdc_rgba888_mxt_9x60_wvga/debug/_ext/305146849/legato_color_lerp.o
 .text.lerp_rgba5551
                0x23f02b04       0x74 build/lcdc_rgba888_mxt_9x60_wvga/debug/_ext/305146849/legato_color_lerp.o
 .text.lerp_rgb565
                0x23f02b78       0x60 build/lcdc_rgba888_mxt_9x60_wvga/debug/_ext/305146849/legato_color_lerp.o
 .text.lerp_rgb332
                0x23f02bd8       0x60 build/lcdc_rgba888_mxt_9x60_wvga/debug/_ext/305146849/legato_color_lerp.o
 .text.lerp_gs8
                0x23f02c38        0xc build/lcdc_rgba888_mxt_9x60_wvga/debug/_ext/305146849/legato_color_lerp.o
 .text.leColorLerp
                0x23f02c44       0x40 build/lcdc_rgba888_mxt_9x60_wvga/debug/_ext/305146849/legato_color_lerp.o
                0x23f02c44                leColorLerp
 .text.leColorBilerp
                0x23f02c84       0x5c build/lcdc_rgba888_mxt_9x60_wvga/debug/_ext/305146849/legato_color_lerp.o
                0x23f02c84                leColorBilerp
 .text.leQueryArcQuadrants
                0x23f02ce0      0x124 build/lcdc_rgba888_mxt_9x60_wvga/debug/_ext/305146849/legato_math.o
 .text.leNormalizeAngle
                0x23f02e04       0x30 build/lcdc_rgba888_mxt_9x60_wvga/debug/_ext/305146849/legato_math.o
                0x23f02e04                leNormalizeAngle
 .text.leSin    0x23f02e34       0x80 build/lcdc_rgba888_mxt_9x60_wvga/debug/_ext/305146849/legato_math.o
                0x23f02e34                leSin
 .text.leCos    0x23f02eb4       0x78 build/lcdc_rgba888_mxt_9x60_wvga/debug/_ext/305146849/legato_math.o
                0x23f02eb4                leCos
 .text.lePolarToXY
                0x23f02f2c       0x60 build/lcdc_rgba888_mxt_9x60_wvga/debug/_ext/305146849/legato_math.o
                0x23f02f2c                lePolarToXY
 .text.leMini   0x23f02f8c        0xc build/lcdc_rgba888_mxt_9x60_wvga/debug/_ext/305146849/legato_math.o
                0x23f02f8c                leMini
 .text.leMaxi   0x23f02f98        0xc build/lcdc_rgba888_mxt_9x60_wvga/debug/_ext/305146849/legato_math.o
                0x23f02f98                leMaxi
 .text.leClampi
                0x23f02fa4       0x18 build/lcdc_rgba888_mxt_9x60_wvga/debug/_ext/305146849/legato_math.o
                0x23f02fa4                leClampi
 .text.lePercent
                0x23f02fbc       0x1c build/lcdc_rgba888_mxt_9x60_wvga/debug/_ext/305146849/legato_math.o
                0x23f02fbc                lePercent
 .text.lePercentWholeRounded
                0x23f02fd8       0x3c build/lcdc_rgba888_mxt_9x60_wvga/debug/_ext/305146849/legato_math.o
                0x23f02fd8                lePercentWholeRounded
 .text.lePercentOf
                0x23f03014       0x58 build/lcdc_rgba888_mxt_9x60_wvga/debug/_ext/305146849/legato_math.o
                0x23f03014                lePercentOf
 .text.leScaleInteger
                0x23f0306c       0x44 build/lcdc_rgba888_mxt_9x60_wvga/debug/_ext/305146849/legato_math.o
                0x23f0306c                leScaleInteger
 .text.leLerp   0x23f030b0       0x58 build/lcdc_rgba888_mxt_9x60_wvga/debug/_ext/305146849/legato_math.o
                0x23f030b0                leLerp
 .text.lePointOnLineSide
                0x23f03108       0x60 build/lcdc_rgba888_mxt_9x60_wvga/debug/_ext/305146849/legato_math.o
                0x23f03108                lePointOnLineSide
 .text.leRotatePoint
                0x23f03168       0xbc build/lcdc_rgba888_mxt_9x60_wvga/debug/_ext/305146849/legato_math.o
                0x23f03168                leRotatePoint
 .text.leRotatedRectBounds
                0x23f03224      0x14c build/lcdc_rgba888_mxt_9x60_wvga/debug/_ext/305146849/legato_math.o
                0x23f03224                leRotatedRectBounds
 .text.leSqrt   0x23f03370       0x58 build/lcdc_rgba888_mxt_9x60_wvga/debug/_ext/305146849/legato_math.o
                0x23f03370                leSqrt
 .text.lePointOnCircle
                0x23f033c8       0x30 build/lcdc_rgba888_mxt_9x60_wvga/debug/_ext/305146849/legato_math.o
                0x23f033c8                lePointOnCircle
 .text.leResolveAngles
                0x23f033f8      0x2a8 build/lcdc_rgba888_mxt_9x60_wvga/debug/_ext/305146849/legato_math.o
                0x23f033f8                leResolveAngles
 .text.leRound  0x23f036a0       0xa0 build/lcdc_rgba888_mxt_9x60_wvga/debug/_ext/305146849/legato_math.o
                0x23f036a0                leRound
 .text.leColorBlend_RGBA_8888
                0x23f03740      0x168 build/lcdc_rgba888_mxt_9x60_wvga/debug/_ext/305146849/legato_color_blend.o
                0x23f03740                leColorBlend_RGBA_8888
 .text.leColorBlend_ARGB_8888
                0x23f038a8      0x14c build/lcdc_rgba888_mxt_9x60_wvga/debug/_ext/305146849/legato_color_blend.o
                0x23f038a8                leColorBlend_ARGB_8888
 .text.leColorChannelAlpha
                0x23f039f4       0x30 build/lcdc_rgba888_mxt_9x60_wvga/debug/_ext/305146849/legato_color.o
                0x23f039f4                leColorChannelAlpha
 .text.leColorSwap
                0x23f03a24       0xa8 build/lcdc_rgba888_mxt_9x60_wvga/debug/_ext/305146849/legato_color.o
                0x23f03a24                leColorSwap
 .text.leScheme_GetRenderColor
                0x23f03acc       0x38 build/lcdc_rgba888_mxt_9x60_wvga/debug/_ext/1618192685/legato_scheme.o
                0x23f03acc                leScheme_GetRenderColor
 .text.leInput_Init
                0x23f03b04       0x2c build/lcdc_rgba888_mxt_9x60_wvga/debug/_ext/1618192685/legato_input.o
                0x23f03b04                leInput_Init
 .text.leInput_InjectTouchDown
                0x23f03b30       0xd8 build/lcdc_rgba888_mxt_9x60_wvga/debug/_ext/1618192685/legato_input.o
                0x23f03b30                leInput_InjectTouchDown
 .text.leInput_InjectTouchUp
                0x23f03c08       0xb4 build/lcdc_rgba888_mxt_9x60_wvga/debug/_ext/1618192685/legato_input.o
                0x23f03c08                leInput_InjectTouchUp
 .text.leInput_InjectTouchMoved
                0x23f03cbc      0x12c build/lcdc_rgba888_mxt_9x60_wvga/debug/_ext/1618192685/legato_input.o
                0x23f03cbc                leInput_InjectTouchMoved
 .text.handleTouchDown
                0x23f03de8      0x118 build/lcdc_rgba888_mxt_9x60_wvga/debug/_ext/1618192685/legato_input.o
                0x23f03de8                handleTouchDown
 .text.handleTouchUp
                0x23f03f00       0x70 build/lcdc_rgba888_mxt_9x60_wvga/debug/_ext/1618192685/legato_input.o
                0x23f03f00                handleTouchUp
 .text.handleTouchMoved
                0x23f03f70       0x70 build/lcdc_rgba888_mxt_9x60_wvga/debug/_ext/1618192685/legato_input.o
                0x23f03f70                handleTouchMoved
 .text._leInput_HandleInputEvent
                0x23f03fe0       0x40 build/lcdc_rgba888_mxt_9x60_wvga/debug/_ext/1618192685/legato_input.o
                0x23f03fe0                _leInput_HandleInputEvent
 .text._leGetEventState
                0x23f04020        0xc build/lcdc_rgba888_mxt_9x60_wvga/debug/_ext/1618192685/legato_event.o
                0x23f04020                _leGetEventState
 .text.leEvent_Init
                0x23f0402c       0x20 build/lcdc_rgba888_mxt_9x60_wvga/debug/_ext/1618192685/legato_event.o
                0x23f0402c                leEvent_Init
 .text.leEvent_AddEvent
                0x23f0404c       0x28 build/lcdc_rgba888_mxt_9x60_wvga/debug/_ext/1618192685/legato_event.o
                0x23f0404c                leEvent_AddEvent
 .text.leEvent_ProcessEvents
                0x23f04074       0xb4 build/lcdc_rgba888_mxt_9x60_wvga/debug/_ext/1618192685/legato_event.o
                0x23f04074                leEvent_ProcessEvents
 .text.leWidgetEvent_Accept
                0x23f04128       0x14 build/lcdc_rgba888_mxt_9x60_wvga/debug/_ext/1618192685/legato_event.o
                0x23f04128                leWidgetEvent_Accept
 .text.updateWidget
                0x23f0413c       0x4c build/lcdc_rgba888_mxt_9x60_wvga/debug/_ext/1618192685/legato_state.o
 .text.leGetState
                0x23f04188        0xc build/lcdc_rgba888_mxt_9x60_wvga/debug/_ext/1618192685/legato_state.o
                0x23f04188                leGetState
 .text.leAddLayer
                0x23f04194       0xb8 build/lcdc_rgba888_mxt_9x60_wvga/debug/_ext/1618192685/legato_state.o
                0x23f04194                leAddLayer
 .text.leInitialize
                0x23f0424c       0xa8 build/lcdc_rgba888_mxt_9x60_wvga/debug/_ext/1618192685/legato_state.o
                0x23f0424c                leInitialize
 .text.leGetLayerState
                0x23f042f4       0x50 build/lcdc_rgba888_mxt_9x60_wvga/debug/_ext/1618192685/legato_state.o
                0x23f042f4                leGetLayerState
 .text.leGetLayerColorMode
                0x23f04344       0x54 build/lcdc_rgba888_mxt_9x60_wvga/debug/_ext/1618192685/legato_state.o
                0x23f04344                leGetLayerColorMode
 .text.leGetLayerRenderHorizontal
                0x23f04398       0x54 build/lcdc_rgba888_mxt_9x60_wvga/debug/_ext/1618192685/legato_state.o
                0x23f04398                leGetLayerRenderHorizontal
 .text.leGetFocusWidget
                0x23f043ec       0x10 build/lcdc_rgba888_mxt_9x60_wvga/debug/_ext/1618192685/legato_state.o
                0x23f043ec                leGetFocusWidget
 .text.leSetFocusWidget
                0x23f043fc       0x84 build/lcdc_rgba888_mxt_9x60_wvga/debug/_ext/1618192685/legato_state.o
                0x23f043fc                leSetFocusWidget
 .text.leGetEditWidget
                0x23f04480       0x10 build/lcdc_rgba888_mxt_9x60_wvga/debug/_ext/1618192685/legato_state.o
                0x23f04480                leGetEditWidget
 .text.leSetEditWidget
                0x23f04490       0x84 build/lcdc_rgba888_mxt_9x60_wvga/debug/_ext/1618192685/legato_state.o
                0x23f04490                leSetEditWidget
 .text.leRedrawAll
                0x23f04514       0x50 build/lcdc_rgba888_mxt_9x60_wvga/debug/_ext/1618192685/legato_state.o
                0x23f04514                leRedrawAll
 .text.leSetLayerColorMode
                0x23f04564       0x74 build/lcdc_rgba888_mxt_9x60_wvga/debug/_ext/1618192685/legato_state.o
                0x23f04564                leSetLayerColorMode
 .text.leSetStringTable
                0x23f045d8       0x18 build/lcdc_rgba888_mxt_9x60_wvga/debug/_ext/1618192685/legato_state.o
                0x23f045d8                leSetStringTable
 .text.leIsDrawing
                0x23f045f0       0x14 build/lcdc_rgba888_mxt_9x60_wvga/debug/_ext/1618192685/legato_state.o
                0x23f045f0                leIsDrawing
 .text.leUpdate
                0x23f04604      0x114 build/lcdc_rgba888_mxt_9x60_wvga/debug/_ext/1618192685/legato_state.o
                0x23f04604                leUpdate
 .text.leAddRootWidget
                0x23f04718       0x68 build/lcdc_rgba888_mxt_9x60_wvga/debug/_ext/1618192685/legato_state.o
                0x23f04718                leAddRootWidget
 .text.leRemoveRootWidget
                0x23f04780       0x74 build/lcdc_rgba888_mxt_9x60_wvga/debug/_ext/1618192685/legato_state.o
                0x23f04780                leRemoveRootWidget
 .text.leGetWidgetLayer
                0x23f047f4       0x8c build/lcdc_rgba888_mxt_9x60_wvga/debug/_ext/1618192685/legato_state.o
                0x23f047f4                leGetWidgetLayer
 .text.leWidgetIsInScene
                0x23f04880       0x14 build/lcdc_rgba888_mxt_9x60_wvga/debug/_ext/1618192685/legato_state.o
                0x23f04880                leWidgetIsInScene
 .text.leList_Create
                0x23f04894       0x1c build/lcdc_rgba888_mxt_9x60_wvga/debug/_ext/109670485/legato_list.o
                0x23f04894                leList_Create
 .text.leList_PushBack
                0x23f048b0       0x68 build/lcdc_rgba888_mxt_9x60_wvga/debug/_ext/109670485/legato_list.o
                0x23f048b0                leList_PushBack
 .text.leList_Get
                0x23f04918       0x44 build/lcdc_rgba888_mxt_9x60_wvga/debug/_ext/109670485/legato_list.o
                0x23f04918                leList_Get
 .text.leList_Remove
                0x23f0495c       0xbc build/lcdc_rgba888_mxt_9x60_wvga/debug/_ext/109670485/legato_list.o
                0x23f0495c                leList_Remove
 .text.leList_Destroy
                0x23f04a18       0x4c build/lcdc_rgba888_mxt_9x60_wvga/debug/_ext/109670485/legato_list.o
                0x23f04a18                leList_Destroy
 .text._shuffleLeft
                0x23f04a64       0xac build/lcdc_rgba888_mxt_9x60_wvga/debug/_ext/109670485/legato_rectarray.o
 .text.leRectArray_Create
                0x23f04b10       0x1c build/lcdc_rgba888_mxt_9x60_wvga/debug/_ext/109670485/legato_rectarray.o
                0x23f04b10                leRectArray_Create
 .text.leRectArray_Resize
                0x23f04b2c       0x7c build/lcdc_rgba888_mxt_9x60_wvga/debug/_ext/109670485/legato_rectarray.o
                0x23f04b2c                leRectArray_Resize
 .text.leRectArray_PushBack
                0x23f04ba8       0x70 build/lcdc_rgba888_mxt_9x60_wvga/debug/_ext/109670485/legato_rectarray.o
                0x23f04ba8                leRectArray_PushBack
 .text.leRectArray_RemoveAt
                0x23f04c18       0x38 build/lcdc_rgba888_mxt_9x60_wvga/debug/_ext/109670485/legato_rectarray.o
                0x23f04c18                leRectArray_RemoveAt
 .text.leRectArray_Copy
                0x23f04c50       0x74 build/lcdc_rgba888_mxt_9x60_wvga/debug/_ext/109670485/legato_rectarray.o
                0x23f04c50                leRectArray_Copy
 .text.leRectArray_Clear
                0x23f04cc4       0x14 build/lcdc_rgba888_mxt_9x60_wvga/debug/_ext/109670485/legato_rectarray.o
                0x23f04cc4                leRectArray_Clear
 .text.leRectArray_Destroy
                0x23f04cd8       0x3c build/lcdc_rgba888_mxt_9x60_wvga/debug/_ext/109670485/legato_rectarray.o
                0x23f04cd8                leRectArray_Destroy
 .text.leRectArray_RemoveDuplicates
                0x23f04d14       0x90 build/lcdc_rgba888_mxt_9x60_wvga/debug/_ext/109670485/legato_rectarray.o
                0x23f04d14                leRectArray_RemoveDuplicates
 .text.leRectArray_SortBySize
                0x23f04da4       0xdc build/lcdc_rgba888_mxt_9x60_wvga/debug/_ext/109670485/legato_rectarray.o
                0x23f04da4                leRectArray_SortBySize
 .text.leRectArray_SortByX
                0x23f04e80       0xfc build/lcdc_rgba888_mxt_9x60_wvga/debug/_ext/109670485/legato_rectarray.o
                0x23f04e80                leRectArray_SortByX
 .text.leRectArray_SortByY
                0x23f04f7c       0xf4 build/lcdc_rgba888_mxt_9x60_wvga/debug/_ext/109670485/legato_rectarray.o
                0x23f04f7c                leRectArray_SortByY
 .text.leRectArray_MergeSimilar
                0x23f05070       0x98 build/lcdc_rgba888_mxt_9x60_wvga/debug/_ext/109670485/legato_rectarray.o
                0x23f05070                leRectArray_MergeSimilar
 .text.leRectArray_RemoveOverlapping
                0x23f05108       0x84 build/lcdc_rgba888_mxt_9x60_wvga/debug/_ext/109670485/legato_rectarray.o
                0x23f05108                leRectArray_RemoveOverlapping
 .text.leRectArray_PadRectangleWidth
                0x23f0518c      0x120 build/lcdc_rgba888_mxt_9x60_wvga/debug/_ext/109670485/legato_rectarray.o
                0x23f0518c                leRectArray_PadRectangleWidth
 .text.leRectArray_CropToSizeY
                0x23f052ac      0x130 build/lcdc_rgba888_mxt_9x60_wvga/debug/_ext/109670485/legato_rectarray.o
                0x23f052ac                leRectArray_CropToSizeY
 .text.leRectArray_CropToSizeX
                0x23f053dc      0x130 build/lcdc_rgba888_mxt_9x60_wvga/debug/_ext/109670485/legato_rectarray.o
                0x23f053dc                leRectArray_CropToSizeX
 .text._shuffleRight
                0x23f0550c       0x78 build/lcdc_rgba888_mxt_9x60_wvga/debug/_ext/109670485/legato_array.o
 .text._shuffleLeft
                0x23f05584       0x5c build/lcdc_rgba888_mxt_9x60_wvga/debug/_ext/109670485/legato_array.o
 .text.leArray_Create
                0x23f055e0       0x1c build/lcdc_rgba888_mxt_9x60_wvga/debug/_ext/109670485/legato_array.o
                0x23f055e0                leArray_Create
 .text.leArray_Resize
                0x23f055fc       0x70 build/lcdc_rgba888_mxt_9x60_wvga/debug/_ext/109670485/legato_array.o
                0x23f055fc                leArray_Resize
 .text.leArray_PushBack
                0x23f0566c       0x60 build/lcdc_rgba888_mxt_9x60_wvga/debug/_ext/109670485/legato_array.o
                0x23f0566c                leArray_PushBack
 .text.leArray_InsertAt
                0x23f056cc       0x9c build/lcdc_rgba888_mxt_9x60_wvga/debug/_ext/109670485/legato_array.o
                0x23f056cc                leArray_InsertAt
 .text.leArray_RemoveAt
                0x23f05768       0x38 build/lcdc_rgba888_mxt_9x60_wvga/debug/_ext/109670485/legato_array.o
                0x23f05768                leArray_RemoveAt
 .text.leArray_Get
                0x23f057a0       0x18 build/lcdc_rgba888_mxt_9x60_wvga/debug/_ext/109670485/legato_array.o
                0x23f057a0                leArray_Get
 .text.leArray_Find
                0x23f057b8       0x68 build/lcdc_rgba888_mxt_9x60_wvga/debug/_ext/109670485/legato_array.o
                0x23f057b8                leArray_Find
 .text.leArray_Remove
                0x23f05820       0x58 build/lcdc_rgba888_mxt_9x60_wvga/debug/_ext/109670485/legato_array.o
                0x23f05820                leArray_Remove
 .text.leArray_Clear
                0x23f05878       0x38 build/lcdc_rgba888_mxt_9x60_wvga/debug/_ext/109670485/legato_array.o
                0x23f05878                leArray_Clear
 .text.drawGlyphRow8bpp
                0x23f058b0       0xf4 build/lcdc_rgba888_mxt_9x60_wvga/debug/_ext/1618103421/legato_font.o
 .text.drawGlyphRow1bpp
                0x23f059a4       0xd0 build/lcdc_rgba888_mxt_9x60_wvga/debug/_ext/1618103421/legato_font.o
 .text.drawGlyphRow8bppMono
                0x23f05a74       0x5c build/lcdc_rgba888_mxt_9x60_wvga/debug/_ext/1618103421/legato_font.o
 .text.drawGlyphRow1bppMono
                0x23f05ad0       0x64 build/lcdc_rgba888_mxt_9x60_wvga/debug/_ext/1618103421/legato_font.o
 .text._drawUnknownGlyph
                0x23f05b34       0xf4 build/lcdc_rgba888_mxt_9x60_wvga/debug/_ext/1618103421/legato_font.o
 .text.leFont_GetGlyphInfo
                0x23f05c28       0xdc build/lcdc_rgba888_mxt_9x60_wvga/debug/_ext/1618103421/legato_font.o
                0x23f05c28                leFont_GetGlyphInfo
 .text.leFont_DrawGlyphData
                0x23f05d04      0x12c build/lcdc_rgba888_mxt_9x60_wvga/debug/_ext/1618103421/legato_font.o
                0x23f05d04                leFont_DrawGlyphData
 .text.leFont_DrawGlyphData_Lookup
                0x23f05e30      0x300 build/lcdc_rgba888_mxt_9x60_wvga/debug/_ext/1618103421/legato_font.o
                0x23f05e30                leFont_DrawGlyphData_Lookup
 .text.leFont_DrawGlyph
                0x23f06130       0xa4 build/lcdc_rgba888_mxt_9x60_wvga/debug/_ext/1618103421/legato_font.o
                0x23f06130                leFont_DrawGlyph
 .text.leFont_DrawGlyph_Lookup
                0x23f061d4       0xb4 build/lcdc_rgba888_mxt_9x60_wvga/debug/_ext/1618103421/legato_font.o
                0x23f061d4                leFont_DrawGlyph_Lookup
 .text.screenInit_Screen0
                0x23f06288       0x28 build/lcdc_rgba888_mxt_9x60_wvga/debug/_ext/534613472/le_gen_screen_Screen0.o
                0x23f06288                screenInit_Screen0
 .text.screenShow_Screen0
                0x23f062b0     0x1e54 build/lcdc_rgba888_mxt_9x60_wvga/debug/_ext/534613472/le_gen_screen_Screen0.o
                0x23f062b0                screenShow_Screen0
 .text.screenUpdate_Screen0
                0x23f08104       0x88 build/lcdc_rgba888_mxt_9x60_wvga/debug/_ext/534613472/le_gen_screen_Screen0.o
                0x23f08104                screenUpdate_Screen0
 .text.screenHide_Screen0
                0x23f0818c      0x284 build/lcdc_rgba888_mxt_9x60_wvga/debug/_ext/534613472/le_gen_screen_Screen0.o
                0x23f0818c                screenHide_Screen0
 .text.initializeStrings
                0x23f08410      0x148 build/lcdc_rgba888_mxt_9x60_wvga/debug/_ext/706129189/le_gen_stringtable.o
                0x23f08410                initializeStrings
 .text.legato_showScreen
                0x23f08558       0x1c build/lcdc_rgba888_mxt_9x60_wvga/debug/_ext/706129189/le_gen_init.o
                0x23f08558                legato_showScreen
 .text.legato_initializeScreenState
                0x23f08574       0x40 build/lcdc_rgba888_mxt_9x60_wvga/debug/_ext/706129189/le_gen_init.o
                0x23f08574                legato_initializeScreenState
 .text.legato_updateScreenState
                0x23f085b4       0x98 build/lcdc_rgba888_mxt_9x60_wvga/debug/_ext/706129189/le_gen_init.o
                0x23f085b4                legato_updateScreenState
 .text.touchMoveHandler
                0x23f0864c       0x18 build/lcdc_rgba888_mxt_9x60_wvga/debug/_ext/706129189/le_gen_harmony.o
 .text.touchUpHandler
                0x23f08664       0x18 build/lcdc_rgba888_mxt_9x60_wvga/debug/_ext/706129189/le_gen_harmony.o
 .text.touchDownHandler
                0x23f0867c       0x18 build/lcdc_rgba888_mxt_9x60_wvga/debug/_ext/706129189/le_gen_harmony.o
 .text.Legato_Initialize
                0x23f08694       0x98 build/lcdc_rgba888_mxt_9x60_wvga/debug/_ext/706129189/le_gen_harmony.o
                0x23f08694                Legato_Initialize
 .text.Legato_Tasks
                0x23f0872c       0x4c build/lcdc_rgba888_mxt_9x60_wvga/debug/_ext/706129189/le_gen_harmony.o
                0x23f0872c                Legato_Tasks
 .text._supportsImage
                0x23f08778       0x28 build/lcdc_rgba888_mxt_9x60_wvga/debug/_ext/2086705360/legato_imagedecoder_jpeg.o
 .text.internalMemoryRead
                0x23f087a0       0x48 build/lcdc_rgba888_mxt_9x60_wvga/debug/_ext/2086705360/legato_imagedecoder_jpeg.o
 .text.exec     0x23f087e8        0x8 build/lcdc_rgba888_mxt_9x60_wvga/debug/_ext/2086705360/legato_imagedecoder_jpeg.o
 .text._render  0x23f087f0      0x1f8 build/lcdc_rgba888_mxt_9x60_wvga/debug/_ext/2086705360/legato_imagedecoder_jpeg.o
 .text._draw    0x23f089e8      0x208 build/lcdc_rgba888_mxt_9x60_wvga/debug/_ext/2086705360/legato_imagedecoder_jpeg.o
 .text.blitToImage
                0x23f08bf0       0xa4 build/lcdc_rgba888_mxt_9x60_wvga/debug/_ext/2086705360/legato_imagedecoder_jpeg.o
 .text.blitToFrameBuffer
                0x23f08c94       0x98 build/lcdc_rgba888_mxt_9x60_wvga/debug/_ext/2086705360/legato_imagedecoder_jpeg.o
 .text._leJPEGImageDecoder_Init
                0x23f08d2c       0x5c build/lcdc_rgba888_mxt_9x60_wvga/debug/_ext/2086705360/legato_imagedecoder_jpeg.o
                0x23f08d2c                _leJPEGImageDecoder_Init
 .text.JPEG_wReadWord
                0x23f08d88       0x50 build/lcdc_rgba888_mxt_9x60_wvga/debug/_ext/2086705360/legato_imagedecoder_jpeg_common.o
 .text.JPEG_bReadByte
                0x23f08dd8       0x2c build/lcdc_rgba888_mxt_9x60_wvga/debug/_ext/2086705360/legato_imagedecoder_jpeg_common.o
 .text.JPEG_bGet1Bit
                0x23f08e04      0x154 build/lcdc_rgba888_mxt_9x60_wvga/debug/_ext/2086705360/legato_imagedecoder_jpeg_common.o
 .text.JPEG_wGetBits
                0x23f08f58       0x4c build/lcdc_rgba888_mxt_9x60_wvga/debug/_ext/2086705360/legato_imagedecoder_jpeg_common.o
 .text.JPEG_sGetBitsValue
                0x23f08fa4       0x50 build/lcdc_rgba888_mxt_9x60_wvga/debug/_ext/2086705360/legato_imagedecoder_jpeg_common.o
 .text.JPEG_bGetNextHuffByte
                0x23f08ff4       0x98 build/lcdc_rgba888_mxt_9x60_wvga/debug/_ext/2086705360/legato_imagedecoder_jpeg_common.o
 .text.JPEG_vResetDecoder
                0x23f0908c       0x20 build/lcdc_rgba888_mxt_9x60_wvga/debug/_ext/2086705360/legato_imagedecoder_jpeg_common.o
                0x23f0908c                JPEG_vResetDecoder
 .text.JPEG_bReadHeader
                0x23f090ac      0x7b8 build/lcdc_rgba888_mxt_9x60_wvga/debug/_ext/2086705360/legato_imagedecoder_jpeg_common.o
                0x23f090ac                JPEG_bReadHeader
 .text.JPEG_bGenerateHuffmanTables
                0x23f09864       0x90 build/lcdc_rgba888_mxt_9x60_wvga/debug/_ext/2086705360/legato_imagedecoder_jpeg_common.o
                0x23f09864                JPEG_bGenerateHuffmanTables
 .text.JPEG_bDecodeOneBlock
                0x23f098f4      0x26c build/lcdc_rgba888_mxt_9x60_wvga/debug/_ext/2086705360/legato_imagedecoder_jpeg_common.o
                0x23f098f4                JPEG_bDecodeOneBlock
 .text.JPEG_vInitDisplay
                0x23f09b60       0x10 build/lcdc_rgba888_mxt_9x60_wvga/debug/_ext/2086705360/legato_imagedecoder_jpeg_common.o
                0x23f09b60                JPEG_vInitDisplay
 .text.JPEG_bPaintOneBlock
                0x23f09b70      0x9a8 build/lcdc_rgba888_mxt_9x60_wvga/debug/_ext/2086705360/legato_imagedecoder_jpeg_common.o
                0x23f09b70                JPEG_bPaintOneBlock
 .text.jpeg_idct_islow_leg
                0x23f0a518      0x51c build/lcdc_rgba888_mxt_9x60_wvga/debug/_ext/2086705360/jidctint.o
                0x23f0a518                jpeg_idct_islow_leg
 .text.stage_decode
                0x23f0aa34       0x3c build/lcdc_rgba888_mxt_9x60_wvga/debug/_ext/2086794059/legato_imagedecoder_mono_read_internal.o
 .text._leMonoImageDecoder_ReadStage_Internal
                0x23f0aa70       0x30 build/lcdc_rgba888_mxt_9x60_wvga/debug/_ext/2086794059/legato_imagedecoder_mono_read_internal.o
                0x23f0aa70                _leMonoImageDecoder_ReadStage_Internal
 .text._supportsImage
                0x23f0aaa0       0x14 build/lcdc_rgba888_mxt_9x60_wvga/debug/_ext/2086794059/legato_imagedecoder_mono.o
 .text._decoderCleanup
                0x23f0aab4       0x64 build/lcdc_rgba888_mxt_9x60_wvga/debug/_ext/2086794059/legato_imagedecoder_mono.o
 .text._decoderExec
                0x23f0ab18       0x84 build/lcdc_rgba888_mxt_9x60_wvga/debug/_ext/2086794059/legato_imagedecoder_mono.o
 .text._decoderIsDone
                0x23f0ab9c       0x10 build/lcdc_rgba888_mxt_9x60_wvga/debug/_ext/2086794059/legato_imagedecoder_mono.o
 .text.stage_sourceIterateSetup
                0x23f0abac       0xb4 build/lcdc_rgba888_mxt_9x60_wvga/debug/_ext/2086794059/legato_imagedecoder_mono.o
 .text.stage_FrameBufferWrite
                0x23f0ac60       0x20 build/lcdc_rgba888_mxt_9x60_wvga/debug/_ext/2086794059/legato_imagedecoder_mono.o
 .text.stage_ImageWrite
                0x23f0ac80       0x28 build/lcdc_rgba888_mxt_9x60_wvga/debug/_ext/2086794059/legato_imagedecoder_mono.o
 .text._leMonoImageDecoder_Init
                0x23f0aca8       0x84 build/lcdc_rgba888_mxt_9x60_wvga/debug/_ext/2086794059/legato_imagedecoder_mono.o
                0x23f0aca8                _leMonoImageDecoder_Init
 .text._leMonoImageDecoder_InjectStage
                0x23f0ad2c       0x38 build/lcdc_rgba888_mxt_9x60_wvga/debug/_ext/2086794059/legato_imagedecoder_mono.o
                0x23f0ad2c                _leMonoImageDecoder_InjectStage
 .text._leMonoImageDecoder_SourceIterateSetupStage
                0x23f0ad64       0x38 build/lcdc_rgba888_mxt_9x60_wvga/debug/_ext/2086794059/legato_imagedecoder_mono.o
                0x23f0ad64                _leMonoImageDecoder_SourceIterateSetupStage
 .text._leMonoImageDecoder_FrameBufferWriteStage
                0x23f0ad9c       0x30 build/lcdc_rgba888_mxt_9x60_wvga/debug/_ext/2086794059/legato_imagedecoder_mono.o
                0x23f0ad9c                _leMonoImageDecoder_FrameBufferWriteStage
 .text._draw    0x23f0adcc      0x154 build/lcdc_rgba888_mxt_9x60_wvga/debug/_ext/2086794059/legato_imagedecoder_mono.o
 .text._leMonoImageDecoder_ImageWriteStage
                0x23f0af20       0x30 build/lcdc_rgba888_mxt_9x60_wvga/debug/_ext/2086794059/legato_imagedecoder_mono.o
                0x23f0af20                _leMonoImageDecoder_ImageWriteStage
 .text._copy    0x23f0af50      0x190 build/lcdc_rgba888_mxt_9x60_wvga/debug/_ext/2086794059/legato_imagedecoder_mono.o
 .text.readBitsFromStream
                0x23f0b0e0       0x50 build/lcdc_rgba888_mxt_9x60_wvga/debug/_ext/1872343871/lodepng.o
 .text.huffmanDecodeSymbol
                0x23f0b130       0x64 build/lcdc_rgba888_mxt_9x60_wvga/debug/_ext/1872343871/lodepng.o
 .text.readBitFromReversedStream
                0x23f0b194       0x24 build/lcdc_rgba888_mxt_9x60_wvga/debug/_ext/1872343871/lodepng.o
 .text.readBitsFromReversedStream
                0x23f0b1b8       0x48 build/lcdc_rgba888_mxt_9x60_wvga/debug/_ext/1872343871/lodepng.o
 .text.getNumColorChannels
                0x23f0b200       0x50 build/lcdc_rgba888_mxt_9x60_wvga/debug/_ext/1872343871/lodepng.o
 .text.lodepng_color_mode_equal
                0x23f0b250      0x120 build/lcdc_rgba888_mxt_9x60_wvga/debug/_ext/1872343871/lodepng.o
 .text.addColorBits
                0x23f0b370       0x50 build/lcdc_rgba888_mxt_9x60_wvga/debug/_ext/1872343871/lodepng.o
 .text.getPixelColorsRGBA8
                0x23f0b3c0      0x51c build/lcdc_rgba888_mxt_9x60_wvga/debug/_ext/1872343871/lodepng.o
 .text.Adam7_getpassvalues
                0x23f0b8dc      0x188 build/lcdc_rgba888_mxt_9x60_wvga/debug/_ext/1872343871/lodepng.o
 .text.unfilter
                0x23f0ba64      0x400 build/lcdc_rgba888_mxt_9x60_wvga/debug/_ext/1872343871/lodepng.o
 .text.removePaddingBits
                0x23f0be64       0xa4 build/lcdc_rgba888_mxt_9x60_wvga/debug/_ext/1872343871/lodepng.o
 .text.ucvector_reserve
                0x23f0bf08       0x58 build/lcdc_rgba888_mxt_9x60_wvga/debug/_ext/1872343871/lodepng.o
 .text.ucvector_resize
                0x23f0bf60       0x20 build/lcdc_rgba888_mxt_9x60_wvga/debug/_ext/1872343871/lodepng.o
 .text.ucvector_push_back
                0x23f0bf80       0x34 build/lcdc_rgba888_mxt_9x60_wvga/debug/_ext/1872343871/lodepng.o
 .text.color_tree_cleanup
                0x23f0bfb4       0x34 build/lcdc_rgba888_mxt_9x60_wvga/debug/_ext/1872343871/lodepng.o
 .text.LodePNGIText_cleanup
                0x23f0bfe8       0x90 build/lcdc_rgba888_mxt_9x60_wvga/debug/_ext/1872343871/lodepng.o
 .text.LodePNGText_cleanup
                0x23f0c078       0x60 build/lcdc_rgba888_mxt_9x60_wvga/debug/_ext/1872343871/lodepng.o
 .text.HuffmanTree_cleanup
                0x23f0c0d8       0x24 build/lcdc_rgba888_mxt_9x60_wvga/debug/_ext/1872343871/lodepng.o
 .text.string_set
                0x23f0c0fc       0x68 build/lcdc_rgba888_mxt_9x60_wvga/debug/_ext/1872343871/lodepng.o
 .text.string_init
                0x23f0c164       0x2c build/lcdc_rgba888_mxt_9x60_wvga/debug/_ext/1872343871/lodepng.o
 .text.uivector_reserve
                0x23f0c190       0x58 build/lcdc_rgba888_mxt_9x60_wvga/debug/_ext/1872343871/lodepng.o
 .text.HuffmanTree_makeFromLengths
                0x23f0c1e8      0x424 build/lcdc_rgba888_mxt_9x60_wvga/debug/_ext/1872343871/lodepng.o
 .text.lodepng_read32bitInt
                0x23f0c60c       0x24 build/lcdc_rgba888_mxt_9x60_wvga/debug/_ext/1872343871/lodepng.o
                0x23f0c60c                lodepng_read32bitInt
 .text.lodepng_inflate
                0x23f0c630      0x990 build/lcdc_rgba888_mxt_9x60_wvga/debug/_ext/1872343871/lodepng.o
                0x23f0c630                lodepng_inflate
 .text.lodepng_zlib_decompress
                0x23f0cfc0      0x198 build/lcdc_rgba888_mxt_9x60_wvga/debug/_ext/1872343871/lodepng.o
                0x23f0cfc0                lodepng_zlib_decompress
 .text.zlib_decompress
                0x23f0d158       0x34 build/lcdc_rgba888_mxt_9x60_wvga/debug/_ext/1872343871/lodepng.o
 .text.lodepng_crc32
                0x23f0d18c       0x4c build/lcdc_rgba888_mxt_9x60_wvga/debug/_ext/1872343871/lodepng.o
                0x23f0d18c                lodepng_crc32
 .text.lodepng_chunk_type_equals
                0x23f0d1d8       0x80 build/lcdc_rgba888_mxt_9x60_wvga/debug/_ext/1872343871/lodepng.o
                0x23f0d1d8                lodepng_chunk_type_equals
 .text.lodepng_chunk_check_crc
                0x23f0d258       0x38 build/lcdc_rgba888_mxt_9x60_wvga/debug/_ext/1872343871/lodepng.o
                0x23f0d258                lodepng_chunk_check_crc
 .text.lodepng_chunk_next_const
                0x23f0d290       0x18 build/lcdc_rgba888_mxt_9x60_wvga/debug/_ext/1872343871/lodepng.o
                0x23f0d290                lodepng_chunk_next_const
 .text.lodepng_chunk_append
                0x23f0d2a8       0xa4 build/lcdc_rgba888_mxt_9x60_wvga/debug/_ext/1872343871/lodepng.o
                0x23f0d2a8                lodepng_chunk_append
 .text.lodepng_color_mode_init
                0x23f0d34c       0x30 build/lcdc_rgba888_mxt_9x60_wvga/debug/_ext/1872343871/lodepng.o
                0x23f0d34c                lodepng_color_mode_init
 .text.lodepng_palette_clear
                0x23f0d37c       0x28 build/lcdc_rgba888_mxt_9x60_wvga/debug/_ext/1872343871/lodepng.o
                0x23f0d37c                lodepng_palette_clear
 .text.lodepng_color_mode_copy
                0x23f0d3a4       0x98 build/lcdc_rgba888_mxt_9x60_wvga/debug/_ext/1872343871/lodepng.o
                0x23f0d3a4                lodepng_color_mode_copy
 .text.lodepng_get_bpp
                0x23f0d43c       0x1c build/lcdc_rgba888_mxt_9x60_wvga/debug/_ext/1872343871/lodepng.o
                0x23f0d43c                lodepng_get_bpp
 .text.lodepng_get_raw_size_idat
                0x23f0d458       0x34 build/lcdc_rgba888_mxt_9x60_wvga/debug/_ext/1872343871/lodepng.o
 .text.lodepng_get_raw_size
                0x23f0d48c       0x38 build/lcdc_rgba888_mxt_9x60_wvga/debug/_ext/1872343871/lodepng.o
                0x23f0d48c                lodepng_get_raw_size
 .text.lodepng_add_text
                0x23f0d4c4       0xcc build/lcdc_rgba888_mxt_9x60_wvga/debug/_ext/1872343871/lodepng.o
                0x23f0d4c4                lodepng_add_text
 .text.lodepng_add_itext
                0x23f0d590      0x17c build/lcdc_rgba888_mxt_9x60_wvga/debug/_ext/1872343871/lodepng.o
                0x23f0d590                lodepng_add_itext
 .text.lodepng_info_init
                0x23f0d70c       0x74 build/lcdc_rgba888_mxt_9x60_wvga/debug/_ext/1872343871/lodepng.o
                0x23f0d70c                lodepng_info_init
 .text.lodepng_info_cleanup
                0x23f0d780       0x3c build/lcdc_rgba888_mxt_9x60_wvga/debug/_ext/1872343871/lodepng.o
                0x23f0d780                lodepng_info_cleanup
 .text.lodepng_convert
                0x23f0d7bc      0xb88 build/lcdc_rgba888_mxt_9x60_wvga/debug/_ext/1872343871/lodepng.o
                0x23f0d7bc                lodepng_convert
 .text.lodepng_inspect
                0x23f0e344      0x290 build/lcdc_rgba888_mxt_9x60_wvga/debug/_ext/1872343871/lodepng.o
                0x23f0e344                lodepng_inspect
 .text.lodepng_decode
                0x23f0e5d4     0x171c build/lcdc_rgba888_mxt_9x60_wvga/debug/_ext/1872343871/lodepng.o
                0x23f0e5d4                lodepng_decode
 .text.lodepng_decoder_settings_init
                0x23f0fcf0       0x2c build/lcdc_rgba888_mxt_9x60_wvga/debug/_ext/1872343871/lodepng.o
                0x23f0fcf0                lodepng_decoder_settings_init
 .text.lodepng_state_init
                0x23f0fd1c       0x28 build/lcdc_rgba888_mxt_9x60_wvga/debug/_ext/1872343871/lodepng.o
                0x23f0fd1c                lodepng_state_init
 .text.lodepng_state_cleanup
                0x23f0fd44       0x1c build/lcdc_rgba888_mxt_9x60_wvga/debug/_ext/1872343871/lodepng.o
                0x23f0fd44                lodepng_state_cleanup
 .text.lodepng_decode_memory
                0x23f0fd60       0x68 build/lcdc_rgba888_mxt_9x60_wvga/debug/_ext/1872343871/lodepng.o
                0x23f0fd60                lodepng_decode_memory
 .text._supportsImage
                0x23f0fdc8       0x28 build/lcdc_rgba888_mxt_9x60_wvga/debug/_ext/1872343871/legato_imagedecoder_png.o
 .text._decoderCleanup
                0x23f0fdf0        0x4 build/lcdc_rgba888_mxt_9x60_wvga/debug/_ext/1872343871/legato_imagedecoder_png.o
 .text._decoderExec
                0x23f0fdf4        0x8 build/lcdc_rgba888_mxt_9x60_wvga/debug/_ext/1872343871/legato_imagedecoder_png.o
 .text._decoderIsDone
                0x23f0fdfc        0x8 build/lcdc_rgba888_mxt_9x60_wvga/debug/_ext/1872343871/legato_imagedecoder_png.o
 .text._render  0x23f0fe04       0xf4 build/lcdc_rgba888_mxt_9x60_wvga/debug/_ext/1872343871/legato_imagedecoder_png.o
 .text._draw    0x23f0fef8      0x1f0 build/lcdc_rgba888_mxt_9x60_wvga/debug/_ext/1872343871/legato_imagedecoder_png.o
 .text._lePNGImageDecoder_Init
                0x23f100e8       0x6c build/lcdc_rgba888_mxt_9x60_wvga/debug/_ext/1872343871/legato_imagedecoder_png.o
                0x23f100e8                _lePNGImageDecoder_Init
 .text.stage_decode
                0x23f10154       0x74 build/lcdc_rgba888_mxt_9x60_wvga/debug/_ext/1872342336/legato_imagedecoder_raw_read_internal.o
 .text.rleRandomDecode
                0x23f101c8       0x54 build/lcdc_rgba888_mxt_9x60_wvga/debug/_ext/1872342336/legato_imagedecoder_raw_read_internal.o
 .text.rleSequentialDecode
                0x23f1021c       0x48 build/lcdc_rgba888_mxt_9x60_wvga/debug/_ext/1872342336/legato_imagedecoder_raw_read_internal.o
 .text.colorDecode
                0x23f10264       0x34 build/lcdc_rgba888_mxt_9x60_wvga/debug/_ext/1872342336/legato_imagedecoder_raw_read_internal.o
 .text.indexRLERandomDecode
                0x23f10298       0x80 build/lcdc_rgba888_mxt_9x60_wvga/debug/_ext/1872342336/legato_imagedecoder_raw_read_internal.o
 .text.indexRLESequentialDecode
                0x23f10318       0x74 build/lcdc_rgba888_mxt_9x60_wvga/debug/_ext/1872342336/legato_imagedecoder_raw_read_internal.o
 .text.indexDecode
                0x23f1038c       0x30 build/lcdc_rgba888_mxt_9x60_wvga/debug/_ext/1872342336/legato_imagedecoder_raw_read_internal.o
 .text._leRawImageDecoder_ReadStage_Internal
                0x23f103bc      0x100 build/lcdc_rgba888_mxt_9x60_wvga/debug/_ext/1872342336/legato_imagedecoder_raw_read_internal.o
                0x23f103bc                _leRawImageDecoder_ReadStage_Internal
 .text.stage_postRead
                0x23f104bc       0x14 build/lcdc_rgba888_mxt_9x60_wvga/debug/_ext/1872342336/legato_imagedecoder_raw_scale.o
 .text.stage_scaledNearestNeighborPreRead
                0x23f104d0       0xc4 build/lcdc_rgba888_mxt_9x60_wvga/debug/_ext/1872342336/legato_imagedecoder_raw_scale.o
 .text.stage_bilinearPreRead
                0x23f10594      0x164 build/lcdc_rgba888_mxt_9x60_wvga/debug/_ext/1872342336/legato_imagedecoder_raw_scale.o
 .text.stage_scaledBilinearPostRead
                0x23f106f8       0x8c build/lcdc_rgba888_mxt_9x60_wvga/debug/_ext/1872342336/legato_imagedecoder_raw_scale.o
 .text._leRawImageDecoder_ScaleNearestNeighborPreReadStage
                0x23f10784       0x6c build/lcdc_rgba888_mxt_9x60_wvga/debug/_ext/1872342336/legato_imagedecoder_raw_scale.o
                0x23f10784                _leRawImageDecoder_ScaleNearestNeighborPreReadStage
 .text._leRawImageDecoder_ScaleBilinearPreReadStage
                0x23f107f0       0x74 build/lcdc_rgba888_mxt_9x60_wvga/debug/_ext/1872342336/legato_imagedecoder_raw_scale.o
                0x23f107f0                _leRawImageDecoder_ScaleBilinearPreReadStage
 .text._leRawImageDecoder_PostReadStage
                0x23f10864       0x30 build/lcdc_rgba888_mxt_9x60_wvga/debug/_ext/1872342336/legato_imagedecoder_raw_scale.o
                0x23f10864                _leRawImageDecoder_PostReadStage
 .text._leRawImageDecoder_ScaleBilinearPostReadStage
                0x23f10894       0x30 build/lcdc_rgba888_mxt_9x60_wvga/debug/_ext/1872342336/legato_imagedecoder_raw_scale.o
                0x23f10894                _leRawImageDecoder_ScaleBilinearPostReadStage
 .text._supportsImage
                0x23f108c4       0x14 build/lcdc_rgba888_mxt_9x60_wvga/debug/_ext/1872342336/legato_imagedecoder_raw.o
 .text._decoderCleanup
                0x23f108d8       0x64 build/lcdc_rgba888_mxt_9x60_wvga/debug/_ext/1872342336/legato_imagedecoder_raw.o
 .text._decoderExec
                0x23f1093c       0x84 build/lcdc_rgba888_mxt_9x60_wvga/debug/_ext/1872342336/legato_imagedecoder_raw.o
 .text._decoderIsDone
                0x23f109c0       0x10 build/lcdc_rgba888_mxt_9x60_wvga/debug/_ext/1872342336/legato_imagedecoder_raw.o
 .text._initReadStage
                0x23f109d0       0x1c build/lcdc_rgba888_mxt_9x60_wvga/debug/_ext/1872342336/legato_imagedecoder_raw.o
 .text._initMaskStage
                0x23f109ec       0x24 build/lcdc_rgba888_mxt_9x60_wvga/debug/_ext/1872342336/legato_imagedecoder_raw.o
 .text._initBlendStage
                0x23f10a10       0x44 build/lcdc_rgba888_mxt_9x60_wvga/debug/_ext/1872342336/legato_imagedecoder_raw.o
 .text._initConvertStage
                0x23f10a54       0x4c build/lcdc_rgba888_mxt_9x60_wvga/debug/_ext/1872342336/legato_imagedecoder_raw.o
 .text._rotateDraw
                0x23f10aa0      0x2b0 build/lcdc_rgba888_mxt_9x60_wvga/debug/_ext/1872342336/legato_imagedecoder_raw.o
 .text._rotate  0x23f10d50      0x2f4 build/lcdc_rgba888_mxt_9x60_wvga/debug/_ext/1872342336/legato_imagedecoder_raw.o
 .text._resizeDraw
                0x23f11044      0x294 build/lcdc_rgba888_mxt_9x60_wvga/debug/_ext/1872342336/legato_imagedecoder_raw.o
 .text._resize  0x23f112d8      0x238 build/lcdc_rgba888_mxt_9x60_wvga/debug/_ext/1872342336/legato_imagedecoder_raw.o
 .text._copy    0x23f11510      0x1b8 build/lcdc_rgba888_mxt_9x60_wvga/debug/_ext/1872342336/legato_imagedecoder_raw.o
 .text._initLookupStage
                0x23f116c8       0x4c build/lcdc_rgba888_mxt_9x60_wvga/debug/_ext/1872342336/legato_imagedecoder_raw.o
 .text._render  0x23f11714      0x260 build/lcdc_rgba888_mxt_9x60_wvga/debug/_ext/1872342336/legato_imagedecoder_raw.o
 .text._draw    0x23f11974      0x2f4 build/lcdc_rgba888_mxt_9x60_wvga/debug/_ext/1872342336/legato_imagedecoder_raw.o
 .text._leRawImageDecoder_Init
                0x23f11c68       0xa8 build/lcdc_rgba888_mxt_9x60_wvga/debug/_ext/1872342336/legato_imagedecoder_raw.o
                0x23f11c68                _leRawImageDecoder_Init
 .text._leRawImageDecoder_InjectStage
                0x23f11d10       0x38 build/lcdc_rgba888_mxt_9x60_wvga/debug/_ext/1872342336/legato_imagedecoder_raw.o
                0x23f11d10                _leRawImageDecoder_InjectStage
 .text.stage_rotateNearestNeighborPreRead
                0x23f11d48      0x120 build/lcdc_rgba888_mxt_9x60_wvga/debug/_ext/1872342336/legato_imagedecoder_raw_rotate.o
 .text.stage_bilinearPreRead
                0x23f11e68      0x20c build/lcdc_rgba888_mxt_9x60_wvga/debug/_ext/1872342336/legato_imagedecoder_raw_rotate.o
 .text.stage_rotateBilinearPostRead
                0x23f12074       0x60 build/lcdc_rgba888_mxt_9x60_wvga/debug/_ext/1872342336/legato_imagedecoder_raw_rotate.o
 .text._leRawImageDecoder_RotateNearestNeighborPreReadStage
                0x23f120d4       0x30 build/lcdc_rgba888_mxt_9x60_wvga/debug/_ext/1872342336/legato_imagedecoder_raw_rotate.o
                0x23f120d4                _leRawImageDecoder_RotateNearestNeighborPreReadStage
 .text._leRawImageDecoder_RotateBilinearPreReadStage
                0x23f12104       0x38 build/lcdc_rgba888_mxt_9x60_wvga/debug/_ext/1872342336/legato_imagedecoder_raw_rotate.o
                0x23f12104                _leRawImageDecoder_RotateBilinearPreReadStage
 .text._leRawImageDecoder_RotateBilinearPostReadStage
                0x23f1213c       0x30 build/lcdc_rgba888_mxt_9x60_wvga/debug/_ext/1872342336/legato_imagedecoder_raw_rotate.o
                0x23f1213c                _leRawImageDecoder_RotateBilinearPostReadStage
 .text.stage_rejectMaskedColor
                0x23f1216c       0x24 build/lcdc_rgba888_mxt_9x60_wvga/debug/_ext/1872342336/legato_imagedecoder_raw_mask.o
 .text._leRawImageDecoder_MaskStage_Internal
                0x23f12190       0x30 build/lcdc_rgba888_mxt_9x60_wvga/debug/_ext/1872342336/legato_imagedecoder_raw_mask.o
                0x23f12190                _leRawImageDecoder_MaskStage_Internal
 .text.stage_FrameBufferWrite
                0x23f121c0       0x24 build/lcdc_rgba888_mxt_9x60_wvga/debug/_ext/1872342336/legato_imagedecoder_raw_write.o
 .text.stage_ImageWrite
                0x23f121e4       0x28 build/lcdc_rgba888_mxt_9x60_wvga/debug/_ext/1872342336/legato_imagedecoder_raw_write.o
 .text._leRawImageDecoder_FrameBufferWriteStage
                0x23f1220c       0x30 build/lcdc_rgba888_mxt_9x60_wvga/debug/_ext/1872342336/legato_imagedecoder_raw_write.o
                0x23f1220c                _leRawImageDecoder_FrameBufferWriteStage
 .text._leRawImageDecoder_ImageWriteStage
                0x23f1223c       0x30 build/lcdc_rgba888_mxt_9x60_wvga/debug/_ext/1872342336/legato_imagedecoder_raw_write.o
                0x23f1223c                _leRawImageDecoder_ImageWriteStage
 .text.stage_imageRenderPostLookup
                0x23f1226c       0x48 build/lcdc_rgba888_mxt_9x60_wvga/debug/_ext/1872342336/legato_imagedecoder_raw_palette_internal.o
 .text.stage_lookup
                0x23f122b4       0x40 build/lcdc_rgba888_mxt_9x60_wvga/debug/_ext/1872342336/legato_imagedecoder_raw_palette_internal.o
 .text._leRawImageDecoder_LookupStage_Internal
                0x23f122f4       0x54 build/lcdc_rgba888_mxt_9x60_wvga/debug/_ext/1872342336/legato_imagedecoder_raw_palette_internal.o
                0x23f122f4                _leRawImageDecoder_LookupStage_Internal
 .text._leRawImageDecoder_ImageRenderPostLookupStage
                0x23f12348       0x38 build/lcdc_rgba888_mxt_9x60_wvga/debug/_ext/1872342336/legato_imagedecoder_raw_palette_internal.o
                0x23f12348                _leRawImageDecoder_ImageRenderPostLookupStage
 .text.stage_sourceIterateSetup
                0x23f12380       0xb4 build/lcdc_rgba888_mxt_9x60_wvga/debug/_ext/1872342336/legato_imagedecoder_raw_setup.o
 .text.stage_targetIterateSetup
                0x23f12434       0x94 build/lcdc_rgba888_mxt_9x60_wvga/debug/_ext/1872342336/legato_imagedecoder_raw_setup.o
 .text._leRawImageDecoder_SourceIterateSetupStage
                0x23f124c8       0x38 build/lcdc_rgba888_mxt_9x60_wvga/debug/_ext/1872342336/legato_imagedecoder_raw_setup.o
                0x23f124c8                _leRawImageDecoder_SourceIterateSetupStage
 .text._leRawImageDecoder_TargetIterateSetupStage
                0x23f12500       0x38 build/lcdc_rgba888_mxt_9x60_wvga/debug/_ext/1872342336/legato_imagedecoder_raw_setup.o
                0x23f12500                _leRawImageDecoder_TargetIterateSetupStage
 .text.stage_BlendRGBA5551
                0x23f12538       0x1c build/lcdc_rgba888_mxt_9x60_wvga/debug/_ext/1872342336/legato_imagedecoder_raw_blend.o
 .text.stage_BlendARGB8888
                0x23f12554       0x70 build/lcdc_rgba888_mxt_9x60_wvga/debug/_ext/1872342336/legato_imagedecoder_raw_blend.o
 .text.stage_BlendRGBA8888
                0x23f125c4       0x70 build/lcdc_rgba888_mxt_9x60_wvga/debug/_ext/1872342336/legato_imagedecoder_raw_blend.o
 .text._leRawImageDecoder_BlendStage_Internal
                0x23f12634       0xb0 build/lcdc_rgba888_mxt_9x60_wvga/debug/_ext/1872342336/legato_imagedecoder_raw_blend.o
                0x23f12634                _leRawImageDecoder_BlendStage_Internal
 .text.stage_convertColor
                0x23f126e4       0x2c build/lcdc_rgba888_mxt_9x60_wvga/debug/_ext/1872342336/legato_imagedecoder_raw_convert.o
 .text._leRawImageDecoder_ConvertStage
                0x23f12710       0x90 build/lcdc_rgba888_mxt_9x60_wvga/debug/_ext/1872342336/legato_imagedecoder_raw_convert.o
                0x23f12710                _leRawImageDecoder_ConvertStage
 .text.leImage_InitDecoders
                0x23f127a0       0x30 build/lcdc_rgba888_mxt_9x60_wvga/debug/_ext/1381099687/legato_image.o
                0x23f127a0                leImage_InitDecoders
 .text.leImage_Create
                0x23f127d0       0x94 build/lcdc_rgba888_mxt_9x60_wvga/debug/_ext/1381099687/legato_image.o
                0x23f127d0                leImage_Create
 .text.leImage_Allocate
                0x23f12864       0xb4 build/lcdc_rgba888_mxt_9x60_wvga/debug/_ext/1381099687/legato_image.o
                0x23f12864                leImage_Allocate
 .text.leImage_Draw
                0x23f12918       0xd4 build/lcdc_rgba888_mxt_9x60_wvga/debug/_ext/1381099687/legato_image.o
                0x23f12918                leImage_Draw
 .text.getDiscreteValueAtIndex1
                0x23f129ec       0x18 build/lcdc_rgba888_mxt_9x60_wvga/debug/_ext/1381099687/legato_image_utils.o
 .text.getDiscreteValueAtIndex4
                0x23f12a04       0x10 build/lcdc_rgba888_mxt_9x60_wvga/debug/_ext/1381099687/legato_image_utils.o
 .text.getDiscreteValueAtIndex8
                0x23f12a14        0x8 build/lcdc_rgba888_mxt_9x60_wvga/debug/_ext/1381099687/legato_image_utils.o
 .text.calcOffset1bpp
                0x23f12a1c        0x8 build/lcdc_rgba888_mxt_9x60_wvga/debug/_ext/1381099687/legato_image_utils.o
 .text.calcOffset4bpp
                0x23f12a24        0x8 build/lcdc_rgba888_mxt_9x60_wvga/debug/_ext/1381099687/legato_image_utils.o
 .text.calcOffset8bpp
                0x23f12a2c        0x4 build/lcdc_rgba888_mxt_9x60_wvga/debug/_ext/1381099687/legato_image_utils.o
 .text.calcOffset16bpp
                0x23f12a30        0x8 build/lcdc_rgba888_mxt_9x60_wvga/debug/_ext/1381099687/legato_image_utils.o
 .text.calcOffset24bpp
                0x23f12a38        0x8 build/lcdc_rgba888_mxt_9x60_wvga/debug/_ext/1381099687/legato_image_utils.o
 .text.calcOffset32bpp
                0x23f12a40        0x8 build/lcdc_rgba888_mxt_9x60_wvga/debug/_ext/1381099687/legato_image_utils.o
 .text.leGetRLEDataAtIndex
                0x23f12a48       0xd8 build/lcdc_rgba888_mxt_9x60_wvga/debug/_ext/1381099687/legato_image_utils.o
                0x23f12a48                leGetRLEDataAtIndex
 .text.leGetDiscreteValueAtIndex
                0x23f12b20       0x18 build/lcdc_rgba888_mxt_9x60_wvga/debug/_ext/1381099687/legato_image_utils.o
                0x23f12b20                leGetDiscreteValueAtIndex
 .text.leGetOffsetFromIndexAndBPP
                0x23f12b38       0x18 build/lcdc_rgba888_mxt_9x60_wvga/debug/_ext/1381099687/legato_image_utils.o
                0x23f12b38                leGetOffsetFromIndexAndBPP
 .text.leFixedHeap_Init
                0x23f12b50       0xb0 build/lcdc_rgba888_mxt_9x60_wvga/debug/_ext/28088523/legato_fixedheap.o
                0x23f12b50                leFixedHeap_Init
 .text.leFixedHeap_Alloc
                0x23f12c00       0x48 build/lcdc_rgba888_mxt_9x60_wvga/debug/_ext/28088523/legato_fixedheap.o
                0x23f12c00                leFixedHeap_Alloc
 .text.leFixedHeap_Free
                0x23f12c48       0x1c build/lcdc_rgba888_mxt_9x60_wvga/debug/_ext/28088523/legato_fixedheap.o
                0x23f12c48                leFixedHeap_Free
 .text.leFixedHeap_Contains
                0x23f12c64       0x60 build/lcdc_rgba888_mxt_9x60_wvga/debug/_ext/28088523/legato_fixedheap.o
                0x23f12c64                leFixedHeap_Contains
 .text._fixedHeapAlloc
                0x23f12cc4       0x60 build/lcdc_rgba888_mxt_9x60_wvga/debug/_ext/28088523/legato_memory.o
 .text._findFixedHeapForPointer
                0x23f12d24       0x5c build/lcdc_rgba888_mxt_9x60_wvga/debug/_ext/28088523/legato_memory.o
 .text.leMemory_Init
                0x23f12d80       0xb0 build/lcdc_rgba888_mxt_9x60_wvga/debug/_ext/28088523/legato_memory.o
                0x23f12d80                leMemory_Init
 .text.leMalloc
                0x23f12e30       0x28 build/lcdc_rgba888_mxt_9x60_wvga/debug/_ext/28088523/legato_memory.o
                0x23f12e30                leMalloc
 .text.leFree   0x23f12e58       0x6c build/lcdc_rgba888_mxt_9x60_wvga/debug/_ext/28088523/legato_memory.o
                0x23f12e58                leFree
 .text.leRealloc
                0x23f12ec4      0x25c build/lcdc_rgba888_mxt_9x60_wvga/debug/_ext/28088523/legato_memory.o
                0x23f12ec4                leRealloc
 .text._insertIntoList
                0x23f13120       0x84 build/lcdc_rgba888_mxt_9x60_wvga/debug/_ext/28088523/legato_variableheap.o
 .text._removeFromList
                0x23f131a4       0x38 build/lcdc_rgba888_mxt_9x60_wvga/debug/_ext/28088523/legato_variableheap.o
 .text._findPreviousBlock
                0x23f131dc       0xa0 build/lcdc_rgba888_mxt_9x60_wvga/debug/_ext/28088523/legato_variableheap.o
 .text._findNextBlock
                0x23f1327c       0x74 build/lcdc_rgba888_mxt_9x60_wvga/debug/_ext/28088523/legato_variableheap.o
 .text._canSplit
                0x23f132f0       0x3c build/lcdc_rgba888_mxt_9x60_wvga/debug/_ext/28088523/legato_variableheap.o
 .text._combineFreeBlockNext
                0x23f1332c       0x7c build/lcdc_rgba888_mxt_9x60_wvga/debug/_ext/28088523/legato_variableheap.o
 .text._growAllocBlock
                0x23f133a8      0x104 build/lcdc_rgba888_mxt_9x60_wvga/debug/_ext/28088523/legato_variableheap.o
 .text.leVariableHeap_Init
                0x23f134ac       0x58 build/lcdc_rgba888_mxt_9x60_wvga/debug/_ext/28088523/legato_variableheap.o
                0x23f134ac                leVariableHeap_Init
 .text.leVariableHeap_Alloc
                0x23f13504      0x130 build/lcdc_rgba888_mxt_9x60_wvga/debug/_ext/28088523/legato_variableheap.o
                0x23f13504                leVariableHeap_Alloc
 .text.leVariableHeap_Free
                0x23f13634       0xd8 build/lcdc_rgba888_mxt_9x60_wvga/debug/_ext/28088523/legato_variableheap.o
                0x23f13634                leVariableHeap_Free
 .text.leVariableHeap_Realloc
                0x23f1370c      0x2a0 build/lcdc_rgba888_mxt_9x60_wvga/debug/_ext/28088523/legato_variableheap.o
                0x23f1370c                leVariableHeap_Realloc
 .text.leVariableHeap_Contains
                0x23f139ac       0x20 build/lcdc_rgba888_mxt_9x60_wvga/debug/_ext/28088523/legato_variableheap.o
                0x23f139ac                leVariableHeap_Contains
 .text.leVariableHeap_SizeOf
                0x23f139cc        0x8 build/lcdc_rgba888_mxt_9x60_wvga/debug/_ext/28088523/legato_variableheap.o
                0x23f139cc                leVariableHeap_SizeOf
 .text.leVariableHeap_Validate
                0x23f139d4        0x8 build/lcdc_rgba888_mxt_9x60_wvga/debug/_ext/28088523/legato_variableheap.o
                0x23f139d4                leVariableHeap_Validate
 .text.leRenderer_RectFill
                0x23f139dc       0x6c build/lcdc_rgba888_mxt_9x60_wvga/debug/_ext/1081070089/legato_draw_rect.o
                0x23f139dc                leRenderer_RectFill
 .text.leRenderer_HorzLine
                0x23f13a48       0xe4 build/lcdc_rgba888_mxt_9x60_wvga/debug/_ext/1081070089/legato_draw_line.o
                0x23f13a48                leRenderer_HorzLine
 .text.leRenderer_VertLine
                0x23f13b2c       0xe4 build/lcdc_rgba888_mxt_9x60_wvga/debug/_ext/1081070089/legato_draw_line.o
                0x23f13b2c                leRenderer_VertLine
 .text.drawQ1   0x23f13c10      0x1d0 build/lcdc_rgba888_mxt_9x60_wvga/debug/_ext/1081070089/legato_draw_arc.o
 .text.drawQ2   0x23f13de0      0x1bc build/lcdc_rgba888_mxt_9x60_wvga/debug/_ext/1081070089/legato_draw_arc.o
 .text.drawQ3   0x23f13f9c      0x1c8 build/lcdc_rgba888_mxt_9x60_wvga/debug/_ext/1081070089/legato_draw_arc.o
 .text.drawQ4   0x23f14164      0x1d8 build/lcdc_rgba888_mxt_9x60_wvga/debug/_ext/1081070089/legato_draw_arc.o
 .text.leRenderer_ArcFill
                0x23f1433c      0x3e0 build/lcdc_rgba888_mxt_9x60_wvga/debug/_ext/1081070089/legato_draw_arc.o
                0x23f1433c                leRenderer_ArcFill
 .text.leRenderer_CircleFill
                0x23f1471c       0xc0 build/lcdc_rgba888_mxt_9x60_wvga/debug/_ext/1081070089/legato_draw_arc.o
                0x23f1471c                leRenderer_CircleFill
 .text.findDirtyWidget
                0x23f147dc       0x90 build/lcdc_rgba888_mxt_9x60_wvga/debug/_ext/1081070089/legato_renderer.o
 .text._nextRect
                0x23f1486c       0x34 build/lcdc_rgba888_mxt_9x60_wvga/debug/_ext/1081070089/legato_renderer.o
 .text.invalidateWidget
                0x23f148a0       0xe0 build/lcdc_rgba888_mxt_9x60_wvga/debug/_ext/1081070089/legato_renderer.o
 .text.addDamageRectToList
                0x23f14980       0xb8 build/lcdc_rgba888_mxt_9x60_wvga/debug/_ext/1081070089/legato_renderer.o
 .text.leRenderer_IsIdle
                0x23f14a38       0x18 build/lcdc_rgba888_mxt_9x60_wvga/debug/_ext/1081070089/legato_renderer.o
                0x23f14a38                leRenderer_IsIdle
 .text.leGetRenderBuffer
                0x23f14a50       0x28 build/lcdc_rgba888_mxt_9x60_wvga/debug/_ext/1081070089/legato_renderer.o
                0x23f14a50                leGetRenderBuffer
 .text.leRenderer_CurrentColorMode
                0x23f14a78       0x20 build/lcdc_rgba888_mxt_9x60_wvga/debug/_ext/1081070089/legato_renderer.o
                0x23f14a78                leRenderer_CurrentColorMode
 .text.leRenderer_ConvertColor
                0x23f14a98       0x34 build/lcdc_rgba888_mxt_9x60_wvga/debug/_ext/1081070089/legato_renderer.o
                0x23f14a98                leRenderer_ConvertColor
 .text.leRenderer_DisplaySize
                0x23f14acc       0x40 build/lcdc_rgba888_mxt_9x60_wvga/debug/_ext/1081070089/legato_renderer.o
                0x23f14acc                leRenderer_DisplaySize
 .text.leRenderer_GetClipRect
                0x23f14b0c       0x18 build/lcdc_rgba888_mxt_9x60_wvga/debug/_ext/1081070089/legato_renderer.o
                0x23f14b0c                leRenderer_GetClipRect
 .text.leRenderer_GetFrameRect
                0x23f14b24       0x28 build/lcdc_rgba888_mxt_9x60_wvga/debug/_ext/1081070089/legato_renderer.o
                0x23f14b24                leRenderer_GetFrameRect
 .text.leRenderer_CullDrawRect
                0x23f14b4c       0x20 build/lcdc_rgba888_mxt_9x60_wvga/debug/_ext/1081070089/legato_renderer.o
                0x23f14b4c                leRenderer_CullDrawRect
 .text.leRenderer_CullDrawXY
                0x23f14b6c       0x30 build/lcdc_rgba888_mxt_9x60_wvga/debug/_ext/1081070089/legato_renderer.o
                0x23f14b6c                leRenderer_CullDrawXY
 .text.leRenderer_ClipDrawRect
                0x23f14b9c       0x18 build/lcdc_rgba888_mxt_9x60_wvga/debug/_ext/1081070089/legato_renderer.o
                0x23f14b9c                leRenderer_ClipDrawRect
 .text.leRenderer_Initialize
                0x23f14bb4       0xb8 build/lcdc_rgba888_mxt_9x60_wvga/debug/_ext/1081070089/legato_renderer.o
                0x23f14bb4                leRenderer_Initialize
 .text.leRenderer_DisplayInterface
                0x23f14c6c       0x10 build/lcdc_rgba888_mxt_9x60_wvga/debug/_ext/1081070089/legato_renderer.o
                0x23f14c6c                leRenderer_DisplayInterface
 .text.leRenderer_GPUInterface
                0x23f14c7c       0x10 build/lcdc_rgba888_mxt_9x60_wvga/debug/_ext/1081070089/legato_renderer.o
                0x23f14c7c                leRenderer_GPUInterface
 .text.leRenderer_DamageArea
                0x23f14c8c       0xa8 build/lcdc_rgba888_mxt_9x60_wvga/debug/_ext/1081070089/legato_renderer.o
                0x23f14c8c                leRenderer_DamageArea
 .text.leRenderer_Paint
                0x23f14d34      0x7c8 build/lcdc_rgba888_mxt_9x60_wvga/debug/_ext/1081070089/legato_renderer.o
                0x23f14d34                leRenderer_Paint
 .text._leRenderer_CreateLayerState
                0x23f154fc       0x48 build/lcdc_rgba888_mxt_9x60_wvga/debug/_ext/1081070089/legato_renderer.o
                0x23f154fc                _leRenderer_CreateLayerState
 .text._MonoFill
                0x23f15544       0x64 build/lcdc_rgba888_mxt_9x60_wvga/debug/_ext/1081070089/legato_draw.o
 .text._MonoPutPixel
                0x23f155a8       0x30 build/lcdc_rgba888_mxt_9x60_wvga/debug/_ext/1081070089/legato_draw.o
 .text._RGBPutPixel
                0x23f155d8       0x2c build/lcdc_rgba888_mxt_9x60_wvga/debug/_ext/1081070089/legato_draw.o
 .text._RGBFill
                0x23f15604       0x88 build/lcdc_rgba888_mxt_9x60_wvga/debug/_ext/1081070089/legato_draw.o
 .text._RGBBlendPixel
                0x23f1568c      0x15c build/lcdc_rgba888_mxt_9x60_wvga/debug/_ext/1081070089/legato_draw.o
 .text.leRenderer_GetPixel
                0x23f157e8       0x40 build/lcdc_rgba888_mxt_9x60_wvga/debug/_ext/1081070089/legato_draw.o
                0x23f157e8                leRenderer_GetPixel
 .text.leRenderer_PutPixel
                0x23f15828       0x4c build/lcdc_rgba888_mxt_9x60_wvga/debug/_ext/1081070089/legato_draw.o
                0x23f15828                leRenderer_PutPixel
 .text.leRenderer_BlendPixel
                0x23f15874       0x50 build/lcdc_rgba888_mxt_9x60_wvga/debug/_ext/1081070089/legato_draw.o
                0x23f15874                leRenderer_BlendPixel
 .text.leRenderer_BlendPixel_Safe
                0x23f158c4       0x64 build/lcdc_rgba888_mxt_9x60_wvga/debug/_ext/1081070089/legato_draw.o
                0x23f158c4                leRenderer_BlendPixel_Safe
 .text._RGBBlendFill
                0x23f15928      0x140 build/lcdc_rgba888_mxt_9x60_wvga/debug/_ext/1081070089/legato_draw.o
 .text.leRenderer_FillArea
                0x23f15a68       0x30 build/lcdc_rgba888_mxt_9x60_wvga/debug/_ext/1081070089/legato_draw.o
                0x23f15a68                leRenderer_FillArea
 .text._leRenderer_InitDrawForMode
                0x23f15a98       0xa0 build/lcdc_rgba888_mxt_9x60_wvga/debug/_ext/1081070089/legato_draw.o
                0x23f15a98                _leRenderer_InitDrawForMode
 .text._convertColorMode
                0x23f15b38        0xc build/lcdc_rgba888_mxt_9x60_wvga/debug/_ext/1081070089/legato_gpu.o
 .text.leGPU_DrawLine
                0x23f15b44      0x1e4 build/lcdc_rgba888_mxt_9x60_wvga/debug/_ext/1081070089/legato_gpu.o
                0x23f15b44                leGPU_DrawLine
 .text.leGPU_ClearBuffer
                0x23f15d28       0xa4 build/lcdc_rgba888_mxt_9x60_wvga/debug/_ext/1081070089/legato_gpu.o
                0x23f15d28                leGPU_ClearBuffer
 .text.leGPU_FillRect
                0x23f15dcc      0x178 build/lcdc_rgba888_mxt_9x60_wvga/debug/_ext/1081070089/legato_gpu.o
                0x23f15dcc                leGPU_FillRect
 .text.leGPU_BlitBuffer
                0x23f15f44      0x224 build/lcdc_rgba888_mxt_9x60_wvga/debug/_ext/1081070089/legato_gpu.o
                0x23f15f44                leGPU_BlitBuffer
 .text.leGPU_BlitStretchBuffer
                0x23f16168      0x200 build/lcdc_rgba888_mxt_9x60_wvga/debug/_ext/1081070089/legato_gpu.o
                0x23f16168                leGPU_BlitStretchBuffer
 .text.decodeASCII
                0x23f16368       0x18 build/lcdc_rgba888_mxt_9x60_wvga/debug/_ext/157682245/legato_stringutils.o
 .text.decodeUTF8
                0x23f16380      0x1f8 build/lcdc_rgba888_mxt_9x60_wvga/debug/_ext/157682245/legato_stringutils.o
 .text.decodeUTF16
                0x23f16578       0x80 build/lcdc_rgba888_mxt_9x60_wvga/debug/_ext/157682245/legato_stringutils.o
 .text.leDecodeCodePoint
                0x23f165f8       0x2c build/lcdc_rgba888_mxt_9x60_wvga/debug/_ext/157682245/legato_stringutils.o
                0x23f165f8                leDecodeCodePoint
 .text.leStringUtils_KerningRect
                0x23f16624       0x44 build/lcdc_rgba888_mxt_9x60_wvga/debug/_ext/157682245/legato_stringutils.o
                0x23f16624                leStringUtils_KerningRect
 .text._leString_Constructor
                0x23f16668       0x18 build/lcdc_rgba888_mxt_9x60_wvga/debug/_ext/157682245/legato_string.o
                0x23f16668                _leString_Constructor
 .text._leString_Destructor
                0x23f16680        0x4 build/lcdc_rgba888_mxt_9x60_wvga/debug/_ext/157682245/legato_string.o
                0x23f16680                _leString_Destructor
 .text._leString_GetRect
                0x23f16684       0xd8 build/lcdc_rgba888_mxt_9x60_wvga/debug/_ext/157682245/legato_string.o
                0x23f16684                _leString_GetRect
 .text._leString_GetLineCount
                0x23f1675c       0x58 build/lcdc_rgba888_mxt_9x60_wvga/debug/_ext/157682245/legato_string.o
                0x23f1675c                _leString_GetLineCount
 .text._leString_GetLineIndices
                0x23f167b4       0xbc build/lcdc_rgba888_mxt_9x60_wvga/debug/_ext/157682245/legato_string.o
                0x23f167b4                _leString_GetLineIndices
 .text._leString_GetLineRect
                0x23f16870      0x118 build/lcdc_rgba888_mxt_9x60_wvga/debug/_ext/157682245/legato_string.o
                0x23f16870                _leString_GetLineRect
 .text._leString_GetCharRect
                0x23f16988      0x118 build/lcdc_rgba888_mxt_9x60_wvga/debug/_ext/157682245/legato_string.o
                0x23f16988                _leString_GetCharRect
 .text._leString_GetCharIndexAtPoint
                0x23f16aa0      0x128 build/lcdc_rgba888_mxt_9x60_wvga/debug/_ext/157682245/legato_string.o
                0x23f16aa0                _leString_GetCharIndexAtPoint
 .text._leString_Draw
                0x23f16bc8       0x40 build/lcdc_rgba888_mxt_9x60_wvga/debug/_ext/157682245/legato_string.o
                0x23f16bc8                _leString_Draw
 .text._leString_PreInvalidate
                0x23f16c08       0x1c build/lcdc_rgba888_mxt_9x60_wvga/debug/_ext/157682245/legato_string.o
                0x23f16c08                _leString_PreInvalidate
 .text._leString_Invalidate
                0x23f16c24       0x1c build/lcdc_rgba888_mxt_9x60_wvga/debug/_ext/157682245/legato_string.o
                0x23f16c24                _leString_Invalidate
 .text._leString_SetPreInvalidateCallback
                0x23f16c40       0x18 build/lcdc_rgba888_mxt_9x60_wvga/debug/_ext/157682245/legato_string.o
                0x23f16c40                _leString_SetPreInvalidateCallback
 .text._leString_SetInvalidateCallback
                0x23f16c58       0x18 build/lcdc_rgba888_mxt_9x60_wvga/debug/_ext/157682245/legato_string.o
                0x23f16c58                _leString_SetInvalidateCallback
 .text._leTableString_SetFont
                0x23f16c70        0x8 build/lcdc_rgba888_mxt_9x60_wvga/debug/_ext/157682245/legato_tablestring.o
                0x23f16c70                _leTableString_SetFont
 .text._leTableString_SetFromString
                0x23f16c78        0x8 build/lcdc_rgba888_mxt_9x60_wvga/debug/_ext/157682245/legato_tablestring.o
                0x23f16c78                _leTableString_SetFromString
 .text._leTableString_SetFromChar
                0x23f16c80        0x8 build/lcdc_rgba888_mxt_9x60_wvga/debug/_ext/157682245/legato_tablestring.o
                0x23f16c80                _leTableString_SetFromChar
 .text._leTableString_SetFromCStr
                0x23f16c88        0x8 build/lcdc_rgba888_mxt_9x60_wvga/debug/_ext/157682245/legato_tablestring.o
                0x23f16c88                _leTableString_SetFromCStr
 .text._leTableString_Compare
                0x23f16c90       0xb8 build/lcdc_rgba888_mxt_9x60_wvga/debug/_ext/157682245/legato_tablestring.o
                0x23f16c90                _leTableString_Compare
 .text._leTableString_Append
                0x23f16d48        0x8 build/lcdc_rgba888_mxt_9x60_wvga/debug/_ext/157682245/legato_tablestring.o
                0x23f16d48                _leTableString_Append
 .text._leTableString_Insert
                0x23f16d50        0x8 build/lcdc_rgba888_mxt_9x60_wvga/debug/_ext/157682245/legato_tablestring.o
                0x23f16d50                _leTableString_Insert
 .text._leTableString_Remove
                0x23f16d58        0x8 build/lcdc_rgba888_mxt_9x60_wvga/debug/_ext/157682245/legato_tablestring.o
                0x23f16d58                _leTableString_Remove
 .text._leTableString_Clear
                0x23f16d60        0x4 build/lcdc_rgba888_mxt_9x60_wvga/debug/_ext/157682245/legato_tablestring.o
                0x23f16d60                _leTableString_Clear
 .text._leTableString_GetID
                0x23f16d64        0x8 build/lcdc_rgba888_mxt_9x60_wvga/debug/_ext/157682245/legato_tablestring.o
                0x23f16d64                _leTableString_GetID
 .text._leTableString_SetID
                0x23f16d6c       0x34 build/lcdc_rgba888_mxt_9x60_wvga/debug/_ext/157682245/legato_tablestring.o
                0x23f16d6c                _leTableString_SetID
 .text._leTableString_Destructor
                0x23f16da0       0x14 build/lcdc_rgba888_mxt_9x60_wvga/debug/_ext/157682245/legato_tablestring.o
                0x23f16da0                _leTableString_Destructor
 .text._leTableString_GetFont
                0x23f16db4       0x2c build/lcdc_rgba888_mxt_9x60_wvga/debug/_ext/157682245/legato_tablestring.o
                0x23f16db4                _leTableString_GetFont
 .text._leTableString_Length
                0x23f16de0       0x78 build/lcdc_rgba888_mxt_9x60_wvga/debug/_ext/157682245/legato_tablestring.o
                0x23f16de0                _leTableString_Length
 .text._leTableString_IsEmpty
                0x23f16e58       0x14 build/lcdc_rgba888_mxt_9x60_wvga/debug/_ext/157682245/legato_tablestring.o
                0x23f16e58                _leTableString_IsEmpty
 .text._leTableString_CharAt
                0x23f16e6c       0xf8 build/lcdc_rgba888_mxt_9x60_wvga/debug/_ext/157682245/legato_tablestring.o
                0x23f16e6c                _leTableString_CharAt
 .text.leTableString_Constructor
                0x23f16f64       0x28 build/lcdc_rgba888_mxt_9x60_wvga/debug/_ext/157682245/legato_tablestring.o
                0x23f16f64                leTableString_Constructor
 .text.leStringTable_GetStringOffset
                0x23f16f8c       0x64 build/lcdc_rgba888_mxt_9x60_wvga/debug/_ext/157682245/legato_stringtable.o
                0x23f16f8c                leStringTable_GetStringOffset
 .text.leStringTable_GetStringFont
                0x23f16ff0       0x60 build/lcdc_rgba888_mxt_9x60_wvga/debug/_ext/157682245/legato_stringtable.o
                0x23f16ff0                leStringTable_GetStringFont
 .text.leStringTable_StringLookup
                0x23f17050       0x60 build/lcdc_rgba888_mxt_9x60_wvga/debug/_ext/157682245/legato_stringtable.o
                0x23f17050                leStringTable_StringLookup
 .text.leStringTable_GetStringLength
                0x23f170b0       0x84 build/lcdc_rgba888_mxt_9x60_wvga/debug/_ext/157682245/legato_stringtable.o
                0x23f170b0                leStringTable_GetStringLength
 .text.leStringRenderer_DrawString
                0x23f17134      0x290 build/lcdc_rgba888_mxt_9x60_wvga/debug/_ext/157682245/legato_string_renderer.o
                0x23f17134                leStringRenderer_DrawString
 .text._leFixedString_GetFont
                0x23f173c4        0x8 build/lcdc_rgba888_mxt_9x60_wvga/debug/_ext/157682245/legato_fixedstring.o
                0x23f173c4                _leFixedString_GetFont
 .text._leFixedString_SetFont
                0x23f173cc       0x34 build/lcdc_rgba888_mxt_9x60_wvga/debug/_ext/157682245/legato_fixedstring.o
                0x23f173cc                _leFixedString_SetFont
 .text._leFixedString_SetFromString
                0x23f17400       0xc8 build/lcdc_rgba888_mxt_9x60_wvga/debug/_ext/157682245/legato_fixedstring.o
                0x23f17400                _leFixedString_SetFromString
 .text._leFixedString_SetFromChar
                0x23f174c8       0xa0 build/lcdc_rgba888_mxt_9x60_wvga/debug/_ext/157682245/legato_fixedstring.o
                0x23f174c8                _leFixedString_SetFromChar
 .text._leFixedString_Length
                0x23f17568        0x8 build/lcdc_rgba888_mxt_9x60_wvga/debug/_ext/157682245/legato_fixedstring.o
                0x23f17568                _leFixedString_Length
 .text._leFixedString_IsEmpty
                0x23f17570       0x10 build/lcdc_rgba888_mxt_9x60_wvga/debug/_ext/157682245/legato_fixedstring.o
                0x23f17570                _leFixedString_IsEmpty
 .text._leFixedString_CharAt
                0x23f17580       0x1c build/lcdc_rgba888_mxt_9x60_wvga/debug/_ext/157682245/legato_fixedstring.o
                0x23f17580                _leFixedString_CharAt
 .text._leFixedString_Compare
                0x23f1759c       0xb0 build/lcdc_rgba888_mxt_9x60_wvga/debug/_ext/157682245/legato_fixedstring.o
                0x23f1759c                _leFixedString_Compare
 .text._leFixedString_Append
                0x23f1764c       0xdc build/lcdc_rgba888_mxt_9x60_wvga/debug/_ext/157682245/legato_fixedstring.o
                0x23f1764c                _leFixedString_Append
 .text._leFixedString_Insert
                0x23f17728      0x180 build/lcdc_rgba888_mxt_9x60_wvga/debug/_ext/157682245/legato_fixedstring.o
                0x23f17728                _leFixedString_Insert
 .text._leFixedString_Remove
                0x23f178a8       0xd4 build/lcdc_rgba888_mxt_9x60_wvga/debug/_ext/157682245/legato_fixedstring.o
                0x23f178a8                _leFixedString_Remove
 .text._leFixedString_Clear
                0x23f1797c       0x30 build/lcdc_rgba888_mxt_9x60_wvga/debug/_ext/157682245/legato_fixedstring.o
                0x23f1797c                _leFixedString_Clear
 .text._leFixedString_Destructor
                0x23f179ac       0x20 build/lcdc_rgba888_mxt_9x60_wvga/debug/_ext/157682245/legato_fixedstring.o
                0x23f179ac                _leFixedString_Destructor
 .text._leFixedString_SetFromCStr
                0x23f179cc       0xa8 build/lcdc_rgba888_mxt_9x60_wvga/debug/_ext/157682245/legato_fixedstring.o
                0x23f179cc                _leFixedString_SetFromCStr
 .text._leFixedString_ToChar
                0x23f17a74       0x50 build/lcdc_rgba888_mxt_9x60_wvga/debug/_ext/157682245/legato_fixedstring.o
                0x23f17a74                _leFixedString_ToChar
 .text.leFixedString_Constructor
                0x23f17ac4       0x40 build/lcdc_rgba888_mxt_9x60_wvga/debug/_ext/157682245/legato_fixedstring.o
                0x23f17ac4                leFixedString_Constructor
 .text.getToggleable
                0x23f17b04        0x8 build/lcdc_rgba888_mxt_9x60_wvga/debug/_ext/1339002025/legato_widget_button.o
 .text.setToggleable
                0x23f17b0c       0x14 build/lcdc_rgba888_mxt_9x60_wvga/debug/_ext/1339002025/legato_widget_button.o
 .text.getPressed
                0x23f17b20       0x18 build/lcdc_rgba888_mxt_9x60_wvga/debug/_ext/1339002025/legato_widget_button.o
 .text.setPressed
                0x23f17b38      0x110 build/lcdc_rgba888_mxt_9x60_wvga/debug/_ext/1339002025/legato_widget_button.o
 .text.getString
                0x23f17c48        0x8 build/lcdc_rgba888_mxt_9x60_wvga/debug/_ext/1339002025/legato_widget_button.o
 .text.setString
                0x23f17c50       0xa0 build/lcdc_rgba888_mxt_9x60_wvga/debug/_ext/1339002025/legato_widget_button.o
 .text.getPressedImage
                0x23f17cf0        0x8 build/lcdc_rgba888_mxt_9x60_wvga/debug/_ext/1339002025/legato_widget_button.o
 .text.setPressedImage
                0x23f17cf8       0x1c build/lcdc_rgba888_mxt_9x60_wvga/debug/_ext/1339002025/legato_widget_button.o
 .text.getReleasedImage
                0x23f17d14        0x8 build/lcdc_rgba888_mxt_9x60_wvga/debug/_ext/1339002025/legato_widget_button.o
 .text.setReleasedImage
                0x23f17d1c       0x1c build/lcdc_rgba888_mxt_9x60_wvga/debug/_ext/1339002025/legato_widget_button.o
 .text.getImagePosition
                0x23f17d38        0x8 build/lcdc_rgba888_mxt_9x60_wvga/debug/_ext/1339002025/legato_widget_button.o
 .text.setImagePosition
                0x23f17d40       0x48 build/lcdc_rgba888_mxt_9x60_wvga/debug/_ext/1339002025/legato_widget_button.o
 .text.getImageMargin
                0x23f17d88        0x8 build/lcdc_rgba888_mxt_9x60_wvga/debug/_ext/1339002025/legato_widget_button.o
 .text.setImageMargin
                0x23f17d90       0x48 build/lcdc_rgba888_mxt_9x60_wvga/debug/_ext/1339002025/legato_widget_button.o
 .text.getPressedOffset
                0x23f17dd8        0x8 build/lcdc_rgba888_mxt_9x60_wvga/debug/_ext/1339002025/legato_widget_button.o
 .text.setPressedOffset
                0x23f17de0       0x60 build/lcdc_rgba888_mxt_9x60_wvga/debug/_ext/1339002025/legato_widget_button.o
 .text.getPressedEventCallback
                0x23f17e40        0x8 build/lcdc_rgba888_mxt_9x60_wvga/debug/_ext/1339002025/legato_widget_button.o
 .text.setPressedEventCallback
                0x23f17e48        0xc build/lcdc_rgba888_mxt_9x60_wvga/debug/_ext/1339002025/legato_widget_button.o
 .text.getReleasedEventCallback
                0x23f17e54        0x8 build/lcdc_rgba888_mxt_9x60_wvga/debug/_ext/1339002025/legato_widget_button.o
 .text.setReleasedEventCallback
                0x23f17e5c        0xc build/lcdc_rgba888_mxt_9x60_wvga/debug/_ext/1339002025/legato_widget_button.o
 .text.languageChanging
                0x23f17e68       0x20 build/lcdc_rgba888_mxt_9x60_wvga/debug/_ext/1339002025/legato_widget_button.o
 .text.invalidateTextRect
                0x23f17e88       0x34 build/lcdc_rgba888_mxt_9x60_wvga/debug/_ext/1339002025/legato_widget_button.o
 .text.stringInvalidate
                0x23f17ebc       0x10 build/lcdc_rgba888_mxt_9x60_wvga/debug/_ext/1339002025/legato_widget_button.o
 .text.stringPreinvalidate
                0x23f17ecc       0x10 build/lcdc_rgba888_mxt_9x60_wvga/debug/_ext/1339002025/legato_widget_button.o
 .text.touchDown
                0x23f17edc       0xac build/lcdc_rgba888_mxt_9x60_wvga/debug/_ext/1339002025/legato_widget_button.o
 .text.touchMoved
                0x23f17f88      0x168 build/lcdc_rgba888_mxt_9x60_wvga/debug/_ext/1339002025/legato_widget_button.o
 .text.touchUp  0x23f180f0      0x158 build/lcdc_rgba888_mxt_9x60_wvga/debug/_ext/1339002025/legato_widget_button.o
 .text.invalidateContents
                0x23f18248       0x8c build/lcdc_rgba888_mxt_9x60_wvga/debug/_ext/1339002025/legato_widget_button.o
 .text._leButtonWidget_Destructor
                0x23f182d4       0x1c build/lcdc_rgba888_mxt_9x60_wvga/debug/_ext/1339002025/legato_widget_button.o
                0x23f182d4                _leButtonWidget_Destructor
 .text.leButtonWidget_Constructor
                0x23f182f0       0x70 build/lcdc_rgba888_mxt_9x60_wvga/debug/_ext/1339002025/legato_widget_button.o
                0x23f182f0                leButtonWidget_Constructor
 .text.leButtonWidget_New
                0x23f18360       0x24 build/lcdc_rgba888_mxt_9x60_wvga/debug/_ext/1339002025/legato_widget_button.o
                0x23f18360                leButtonWidget_New
 .text.nextState
                0x23f18384      0x140 build/lcdc_rgba888_mxt_9x60_wvga/debug/_ext/1339002025/legato_widget_button_skin_classic.o
 .text.drawBorder
                0x23f184c4       0x68 build/lcdc_rgba888_mxt_9x60_wvga/debug/_ext/1339002025/legato_widget_button_skin_classic.o
 .text.drawBackground
                0x23f1852c       0x54 build/lcdc_rgba888_mxt_9x60_wvga/debug/_ext/1339002025/legato_widget_button_skin_classic.o
 .text._leButtonWidget_GetImageRect
                0x23f18580      0x160 build/lcdc_rgba888_mxt_9x60_wvga/debug/_ext/1339002025/legato_widget_button_skin_classic.o
                0x23f18580                _leButtonWidget_GetImageRect
 .text.drawImage
                0x23f186e0       0x5c build/lcdc_rgba888_mxt_9x60_wvga/debug/_ext/1339002025/legato_widget_button_skin_classic.o
 .text._leButtonWidget_GetTextRects
                0x23f1873c      0x184 build/lcdc_rgba888_mxt_9x60_wvga/debug/_ext/1339002025/legato_widget_button_skin_classic.o
                0x23f1873c                _leButtonWidget_GetTextRects
 .text.drawString
                0x23f188c0       0xa0 build/lcdc_rgba888_mxt_9x60_wvga/debug/_ext/1339002025/legato_widget_button_skin_classic.o
 .text._leButtonWidget_InvalidateBorderAreas
                0x23f18960      0x1a4 build/lcdc_rgba888_mxt_9x60_wvga/debug/_ext/1339002025/legato_widget_button_skin_classic.o
                0x23f18960                _leButtonWidget_InvalidateBorderAreas
 .text._leButtonWidget_Paint
                0x23f18b04       0x44 build/lcdc_rgba888_mxt_9x60_wvga/debug/_ext/1339002025/legato_widget_button_skin_classic.o
                0x23f18b04                _leButtonWidget_Paint
 .text.nextState
                0x23f18b48       0xec build/lcdc_rgba888_mxt_9x60_wvga/debug/_ext/1197524732/legato_widget_image_skin_classic.o
 .text.drawBorder
                0x23f18c34       0x4c build/lcdc_rgba888_mxt_9x60_wvga/debug/_ext/1197524732/legato_widget_image_skin_classic.o
 .text.drawBackground
                0x23f18c80       0x24 build/lcdc_rgba888_mxt_9x60_wvga/debug/_ext/1197524732/legato_widget_image_skin_classic.o
 .text._leImageWidget_GetImageRect
                0x23f18ca4       0xb4 build/lcdc_rgba888_mxt_9x60_wvga/debug/_ext/1197524732/legato_widget_image_skin_classic.o
                0x23f18ca4                _leImageWidget_GetImageRect
 .text.drawImage
                0x23f18d58       0x74 build/lcdc_rgba888_mxt_9x60_wvga/debug/_ext/1197524732/legato_widget_image_skin_classic.o
 .text._leImageWidget_Paint
                0x23f18dcc       0x44 build/lcdc_rgba888_mxt_9x60_wvga/debug/_ext/1197524732/legato_widget_image_skin_classic.o
                0x23f18dcc                _leImageWidget_Paint
 .text._leImageWidget_GetImage
                0x23f18e10        0x8 build/lcdc_rgba888_mxt_9x60_wvga/debug/_ext/1197524732/legato_widget_image.o
                0x23f18e10                _leImageWidget_GetImage
 .text.invalidateImageRect
                0x23f18e18       0x60 build/lcdc_rgba888_mxt_9x60_wvga/debug/_ext/1197524732/legato_widget_image.o
 .text.invalidateContents
                0x23f18e78       0x18 build/lcdc_rgba888_mxt_9x60_wvga/debug/_ext/1197524732/legato_widget_image.o
 .text._leImageWidget_SetImage
                0x23f18e90       0x48 build/lcdc_rgba888_mxt_9x60_wvga/debug/_ext/1197524732/legato_widget_image.o
                0x23f18e90                _leImageWidget_SetImage
 .text._leImageWidget_Destructor
                0x23f18ed8        0xc build/lcdc_rgba888_mxt_9x60_wvga/debug/_ext/1197524732/legato_widget_image.o
                0x23f18ed8                _leImageWidget_Destructor
 .text._leImageWidget_Constructor
                0x23f18ee4       0x48 build/lcdc_rgba888_mxt_9x60_wvga/debug/_ext/1197524732/legato_widget_image.o
                0x23f18ee4                _leImageWidget_Constructor
 .text.leImageWidget_New
                0x23f18f2c       0x24 build/lcdc_rgba888_mxt_9x60_wvga/debug/_ext/1197524732/legato_widget_image.o
                0x23f18f2c                leImageWidget_New
 .text.update   0x23f18f50       0xf0 build/lcdc_rgba888_mxt_9x60_wvga/debug/_ext/2015859515/legato_widget_imagesequence.o
 .text.getImageCount
                0x23f19040        0x8 build/lcdc_rgba888_mxt_9x60_wvga/debug/_ext/2015859515/legato_widget_imagesequence.o
 .text.getImage
                0x23f19048       0x1c build/lcdc_rgba888_mxt_9x60_wvga/debug/_ext/2015859515/legato_widget_imagesequence.o
 .text.setImage
                0x23f19064       0x64 build/lcdc_rgba888_mxt_9x60_wvga/debug/_ext/2015859515/legato_widget_imagesequence.o
 .text.getImageDelay
                0x23f190c8       0x20 build/lcdc_rgba888_mxt_9x60_wvga/debug/_ext/2015859515/legato_widget_imagesequence.o
 .text.setImageDelay
                0x23f190e8       0x24 build/lcdc_rgba888_mxt_9x60_wvga/debug/_ext/2015859515/legato_widget_imagesequence.o
 .text.getImageHAlignment
                0x23f1910c       0x20 build/lcdc_rgba888_mxt_9x60_wvga/debug/_ext/2015859515/legato_widget_imagesequence.o
 .text.setImageHAlignment
                0x23f1912c       0x64 build/lcdc_rgba888_mxt_9x60_wvga/debug/_ext/2015859515/legato_widget_imagesequence.o
 .text.getImageVAlignment
                0x23f19190       0x20 build/lcdc_rgba888_mxt_9x60_wvga/debug/_ext/2015859515/legato_widget_imagesequence.o
 .text.setImageVAlignment
                0x23f191b0       0x64 build/lcdc_rgba888_mxt_9x60_wvga/debug/_ext/2015859515/legato_widget_imagesequence.o
 .text.stop     0x23f19214       0x10 build/lcdc_rgba888_mxt_9x60_wvga/debug/_ext/2015859515/legato_widget_imagesequence.o
 .text.play     0x23f19224       0x10 build/lcdc_rgba888_mxt_9x60_wvga/debug/_ext/2015859515/legato_widget_imagesequence.o
 .text.rewind   0x23f19234       0x18 build/lcdc_rgba888_mxt_9x60_wvga/debug/_ext/2015859515/legato_widget_imagesequence.o
 .text.isPlaying
                0x23f1924c        0x8 build/lcdc_rgba888_mxt_9x60_wvga/debug/_ext/2015859515/legato_widget_imagesequence.o
 .text.getRepeat
                0x23f19254        0x8 build/lcdc_rgba888_mxt_9x60_wvga/debug/_ext/2015859515/legato_widget_imagesequence.o
 .text.setRepeat
                0x23f1925c        0xc build/lcdc_rgba888_mxt_9x60_wvga/debug/_ext/2015859515/legato_widget_imagesequence.o
 .text.showImage
                0x23f19268       0x50 build/lcdc_rgba888_mxt_9x60_wvga/debug/_ext/2015859515/legato_widget_imagesequence.o
 .text.showNextImage
                0x23f192b8       0x50 build/lcdc_rgba888_mxt_9x60_wvga/debug/_ext/2015859515/legato_widget_imagesequence.o
 .text.showPreviousImage
                0x23f19308       0x4c build/lcdc_rgba888_mxt_9x60_wvga/debug/_ext/2015859515/legato_widget_imagesequence.o
 .text.getImageChangedEventCallback
                0x23f19354        0x8 build/lcdc_rgba888_mxt_9x60_wvga/debug/_ext/2015859515/legato_widget_imagesequence.o
 .text.setImageChangedEventCallback
                0x23f1935c        0xc build/lcdc_rgba888_mxt_9x60_wvga/debug/_ext/2015859515/legato_widget_imagesequence.o
 .text.setImageCount
                0x23f19368       0xa4 build/lcdc_rgba888_mxt_9x60_wvga/debug/_ext/2015859515/legato_widget_imagesequence.o
 .text.destructor
                0x23f1940c       0x2c build/lcdc_rgba888_mxt_9x60_wvga/debug/_ext/2015859515/legato_widget_imagesequence.o
 .text.leImageSequenceWidget_Constructor
                0x23f19438       0x60 build/lcdc_rgba888_mxt_9x60_wvga/debug/_ext/2015859515/legato_widget_imagesequence.o
                0x23f19438                leImageSequenceWidget_Constructor
 .text.leImageSequenceWidget_New
                0x23f19498       0x24 build/lcdc_rgba888_mxt_9x60_wvga/debug/_ext/2015859515/legato_widget_imagesequence.o
                0x23f19498                leImageSequenceWidget_New
 .text.nextState
                0x23f194bc      0x110 build/lcdc_rgba888_mxt_9x60_wvga/debug/_ext/2015859515/legato_widget_imagesequence_skin_classic.o
 .text.drawBorder
                0x23f195cc       0x4c build/lcdc_rgba888_mxt_9x60_wvga/debug/_ext/2015859515/legato_widget_imagesequence_skin_classic.o
 .text.drawBackground
                0x23f19618       0x24 build/lcdc_rgba888_mxt_9x60_wvga/debug/_ext/2015859515/legato_widget_imagesequence_skin_classic.o
 .text._leImageSequenceWidget_GetImageRect
                0x23f1963c      0x110 build/lcdc_rgba888_mxt_9x60_wvga/debug/_ext/2015859515/legato_widget_imagesequence_skin_classic.o
                0x23f1963c                _leImageSequenceWidget_GetImageRect
 .text.drawImage
                0x23f1974c       0x8c build/lcdc_rgba888_mxt_9x60_wvga/debug/_ext/2015859515/legato_widget_imagesequence_skin_classic.o
 .text._leImageSequenceWidget_Paint
                0x23f197d8       0x44 build/lcdc_rgba888_mxt_9x60_wvga/debug/_ext/2015859515/legato_widget_imagesequence_skin_classic.o
                0x23f197d8                _leImageSequenceWidget_Paint
 .text.nextState
                0x23f1981c      0x100 build/lcdc_rgba888_mxt_9x60_wvga/debug/_ext/1195110755/legato_widget_label_skin_classic.o
 .text.drawBorder
                0x23f1991c       0x4c build/lcdc_rgba888_mxt_9x60_wvga/debug/_ext/1195110755/legato_widget_label_skin_classic.o
 .text.drawBackground
                0x23f19968       0x24 build/lcdc_rgba888_mxt_9x60_wvga/debug/_ext/1195110755/legato_widget_label_skin_classic.o
 .text._leLabelWidget_GetTextRects
                0x23f1998c      0x110 build/lcdc_rgba888_mxt_9x60_wvga/debug/_ext/1195110755/legato_widget_label_skin_classic.o
                0x23f1998c                _leLabelWidget_GetTextRects
 .text.drawString
                0x23f19a9c       0x98 build/lcdc_rgba888_mxt_9x60_wvga/debug/_ext/1195110755/legato_widget_label_skin_classic.o
 .text._leLabelWidget_Paint
                0x23f19b34       0x44 build/lcdc_rgba888_mxt_9x60_wvga/debug/_ext/1195110755/legato_widget_label_skin_classic.o
                0x23f19b34                _leLabelWidget_Paint
 .text.handleLanguageChangeEvent
                0x23f19b78       0x20 build/lcdc_rgba888_mxt_9x60_wvga/debug/_ext/1195110755/legato_widget_label.o
 .text.getString
                0x23f19b98        0x8 build/lcdc_rgba888_mxt_9x60_wvga/debug/_ext/1195110755/legato_widget_label.o
 .text._leLabelWidget_Destructor
                0x23f19ba0       0x14 build/lcdc_rgba888_mxt_9x60_wvga/debug/_ext/1195110755/legato_widget_label.o
 .text.invalidateContents
                0x23f19bb4       0x40 build/lcdc_rgba888_mxt_9x60_wvga/debug/_ext/1195110755/legato_widget_label.o
 .text.setString
                0x23f19bf4       0xb0 build/lcdc_rgba888_mxt_9x60_wvga/debug/_ext/1195110755/legato_widget_label.o
 .text.stringInvalidate
                0x23f19ca4       0x10 build/lcdc_rgba888_mxt_9x60_wvga/debug/_ext/1195110755/legato_widget_label.o
 .text.stringPreinvalidate
                0x23f19cb4       0x10 build/lcdc_rgba888_mxt_9x60_wvga/debug/_ext/1195110755/legato_widget_label.o
 .text.leLabelWidget_Constructor
                0x23f19cc4       0x48 build/lcdc_rgba888_mxt_9x60_wvga/debug/_ext/1195110755/legato_widget_label.o
                0x23f19cc4                leLabelWidget_Constructor
 .text.leLabelWidget_New
                0x23f19d0c       0x1c build/lcdc_rgba888_mxt_9x60_wvga/debug/_ext/1195110755/legato_widget_label.o
                0x23f19d0c                leLabelWidget_New
 .text.nextState
                0x23f19d28       0xec build/lcdc_rgba888_mxt_9x60_wvga/debug/_ext/337100648/legato_widget_rectangle_skin_classic.o
 .text.drawBorder
                0x23f19e14       0x4c build/lcdc_rgba888_mxt_9x60_wvga/debug/_ext/337100648/legato_widget_rectangle_skin_classic.o
 .text.drawEdge
                0x23f19e60      0x14c build/lcdc_rgba888_mxt_9x60_wvga/debug/_ext/337100648/legato_widget_rectangle_skin_classic.o
 .text.drawBackground
                0x23f19fac       0x24 build/lcdc_rgba888_mxt_9x60_wvga/debug/_ext/337100648/legato_widget_rectangle_skin_classic.o
 .text._leRectangleWidget_InvalidateRect
                0x23f19fd0      0x130 build/lcdc_rgba888_mxt_9x60_wvga/debug/_ext/337100648/legato_widget_rectangle_skin_classic.o
                0x23f19fd0                _leRectangleWidget_InvalidateRect
 .text._leRectangleWidget_Paint
                0x23f1a100       0x44 build/lcdc_rgba888_mxt_9x60_wvga/debug/_ext/337100648/legato_widget_rectangle_skin_classic.o
                0x23f1a100                _leRectangleWidget_Paint
 .text._leRectangleWidget_GetThickness
                0x23f1a144        0x8 build/lcdc_rgba888_mxt_9x60_wvga/debug/_ext/337100648/legato_widget_rectangle.o
 .text._leRectangleWidget_SetThickness
                0x23f1a14c       0x44 build/lcdc_rgba888_mxt_9x60_wvga/debug/_ext/337100648/legato_widget_rectangle.o
 .text._leRectangleWidget_Destructor
                0x23f1a190        0xc build/lcdc_rgba888_mxt_9x60_wvga/debug/_ext/337100648/legato_widget_rectangle.o
 .text.leRectangleWidget_Constructor
                0x23f1a19c       0x4c build/lcdc_rgba888_mxt_9x60_wvga/debug/_ext/337100648/legato_widget_rectangle.o
                0x23f1a19c                leRectangleWidget_Constructor
 .text.leRectangleWidget_New
                0x23f1a1e8       0x24 build/lcdc_rgba888_mxt_9x60_wvga/debug/_ext/337100648/legato_widget_rectangle.o
                0x23f1a1e8                leRectangleWidget_New
 .text.drawBorder
                0x23f1a20c       0x54 build/lcdc_rgba888_mxt_9x60_wvga/debug/_ext/261620856/legato_widget_skin_classic.o
 .text.drawBackground
                0x23f1a260       0xb8 build/lcdc_rgba888_mxt_9x60_wvga/debug/_ext/261620856/legato_widget_skin_classic.o
 .text._leWidget_Paint
                0x23f1a318       0x7c build/lcdc_rgba888_mxt_9x60_wvga/debug/_ext/261620856/legato_widget_skin_classic.o
                0x23f1a318                _leWidget_Paint
 .text._leWidget_GetType
                0x23f1a394        0x8 build/lcdc_rgba888_mxt_9x60_wvga/debug/_ext/261620856/legato_widget.o
                0x23f1a394                _leWidget_GetType
 .text._leWidget_GetX
                0x23f1a39c        0x8 build/lcdc_rgba888_mxt_9x60_wvga/debug/_ext/261620856/legato_widget.o
                0x23f1a39c                _leWidget_GetX
 .text._leWidget_SetX
                0x23f1a3a4       0x80 build/lcdc_rgba888_mxt_9x60_wvga/debug/_ext/261620856/legato_widget.o
                0x23f1a3a4                _leWidget_SetX
 .text._leWidget_GetY
                0x23f1a424        0x8 build/lcdc_rgba888_mxt_9x60_wvga/debug/_ext/261620856/legato_widget.o
                0x23f1a424                _leWidget_GetY
 .text._leWidget_SetY
                0x23f1a42c       0x80 build/lcdc_rgba888_mxt_9x60_wvga/debug/_ext/261620856/legato_widget.o
                0x23f1a42c                _leWidget_SetY
 .text._leWidget_SetPosition
                0x23f1a4ac       0xd0 build/lcdc_rgba888_mxt_9x60_wvga/debug/_ext/261620856/legato_widget.o
                0x23f1a4ac                _leWidget_SetPosition
 .text._leWidget_Translate
                0x23f1a57c       0xcc build/lcdc_rgba888_mxt_9x60_wvga/debug/_ext/261620856/legato_widget.o
                0x23f1a57c                _leWidget_Translate
 .text._leWidget_GetWidth
                0x23f1a648        0x8 build/lcdc_rgba888_mxt_9x60_wvga/debug/_ext/261620856/legato_widget.o
                0x23f1a648                _leWidget_GetWidth
 .text._leWidget_SetWidth
                0x23f1a650       0xb8 build/lcdc_rgba888_mxt_9x60_wvga/debug/_ext/261620856/legato_widget.o
                0x23f1a650                _leWidget_SetWidth
 .text._leWidget_GetHeight
                0x23f1a708        0x8 build/lcdc_rgba888_mxt_9x60_wvga/debug/_ext/261620856/legato_widget.o
                0x23f1a708                _leWidget_GetHeight
 .text._leWidget_SetHeight
                0x23f1a710       0xb8 build/lcdc_rgba888_mxt_9x60_wvga/debug/_ext/261620856/legato_widget.o
                0x23f1a710                _leWidget_SetHeight
 .text._leWidget_SetSize
                0x23f1a7c8       0xe8 build/lcdc_rgba888_mxt_9x60_wvga/debug/_ext/261620856/legato_widget.o
                0x23f1a7c8                _leWidget_SetSize
 .text._leWidget_GetAlphaEnabled
                0x23f1a8b0       0x10 build/lcdc_rgba888_mxt_9x60_wvga/debug/_ext/261620856/legato_widget.o
                0x23f1a8b0                _leWidget_GetAlphaEnabled
 .text._leWidget_GetCumulativeAlphaEnabled
                0x23f1a8c0       0x44 build/lcdc_rgba888_mxt_9x60_wvga/debug/_ext/261620856/legato_widget.o
                0x23f1a8c0                _leWidget_GetCumulativeAlphaEnabled
 .text._leWidget_SetAlphaEnabled
                0x23f1a904       0x44 build/lcdc_rgba888_mxt_9x60_wvga/debug/_ext/261620856/legato_widget.o
                0x23f1a904                _leWidget_SetAlphaEnabled
 .text._leWidget_GetAlphaAmount
                0x23f1a948        0x8 build/lcdc_rgba888_mxt_9x60_wvga/debug/_ext/261620856/legato_widget.o
                0x23f1a948                _leWidget_GetAlphaAmount
 .text._leWidget_SetAlphaAmount
                0x23f1a950       0x38 build/lcdc_rgba888_mxt_9x60_wvga/debug/_ext/261620856/legato_widget.o
                0x23f1a950                _leWidget_SetAlphaAmount
 .text._leWidget_IsOpaque
                0x23f1a988       0x4c build/lcdc_rgba888_mxt_9x60_wvga/debug/_ext/261620856/legato_widget.o
                0x23f1a988                _leWidget_IsOpaque
 .text._leWidget_GetEnabled
                0x23f1a9d4        0xc build/lcdc_rgba888_mxt_9x60_wvga/debug/_ext/261620856/legato_widget.o
                0x23f1a9d4                _leWidget_GetEnabled
 .text._leWidget_SetEnabled
                0x23f1a9e0       0x40 build/lcdc_rgba888_mxt_9x60_wvga/debug/_ext/261620856/legato_widget.o
                0x23f1a9e0                _leWidget_SetEnabled
 .text._leWidget_GetVisible
                0x23f1aa20       0x10 build/lcdc_rgba888_mxt_9x60_wvga/debug/_ext/261620856/legato_widget.o
                0x23f1aa20                _leWidget_GetVisible
 .text._leWidget_SetVisible
                0x23f1aa30       0x44 build/lcdc_rgba888_mxt_9x60_wvga/debug/_ext/261620856/legato_widget.o
                0x23f1aa30                _leWidget_SetVisible
 .text._leWidget_LocalRect
                0x23f1aa74       0x28 build/lcdc_rgba888_mxt_9x60_wvga/debug/_ext/261620856/legato_widget.o
                0x23f1aa74                _leWidget_LocalRect
 .text._leWidget_RectToParentSpace
                0x23f1aa9c       0x40 build/lcdc_rgba888_mxt_9x60_wvga/debug/_ext/261620856/legato_widget.o
                0x23f1aa9c                _leWidget_RectToParentSpace
 .text.isAncestorOf
                0x23f1aadc       0x44 build/lcdc_rgba888_mxt_9x60_wvga/debug/_ext/261620856/legato_widget.o
 .text._leWidget_GetRootWidget
                0x23f1ab20       0x24 build/lcdc_rgba888_mxt_9x60_wvga/debug/_ext/261620856/legato_widget.o
                0x23f1ab20                _leWidget_GetRootWidget
 .text._leWidget_SetParent
                0x23f1ab44       0x4c build/lcdc_rgba888_mxt_9x60_wvga/debug/_ext/261620856/legato_widget.o
                0x23f1ab44                _leWidget_SetParent
 .text._leWidget_GetChildCount
                0x23f1ab90        0x8 build/lcdc_rgba888_mxt_9x60_wvga/debug/_ext/261620856/legato_widget.o
                0x23f1ab90                _leWidget_GetChildCount
 .text._leWidget_GetChildAtIndex
                0x23f1ab98       0x20 build/lcdc_rgba888_mxt_9x60_wvga/debug/_ext/261620856/legato_widget.o
                0x23f1ab98                _leWidget_GetChildAtIndex
 .text._leWidget_ContainsDescendant
                0x23f1abb8       0x84 build/lcdc_rgba888_mxt_9x60_wvga/debug/_ext/261620856/legato_widget.o
                0x23f1abb8                _leWidget_ContainsDescendant
 .text._leWidget_GetScheme
                0x23f1ac3c        0x8 build/lcdc_rgba888_mxt_9x60_wvga/debug/_ext/261620856/legato_widget.o
                0x23f1ac3c                _leWidget_GetScheme
 .text._leWidget_SetScheme
                0x23f1ac44       0x30 build/lcdc_rgba888_mxt_9x60_wvga/debug/_ext/261620856/legato_widget.o
                0x23f1ac44                _leWidget_SetScheme
 .text._leWidget_GetBorderType
                0x23f1ac74        0x8 build/lcdc_rgba888_mxt_9x60_wvga/debug/_ext/261620856/legato_widget.o
                0x23f1ac74                _leWidget_GetBorderType
 .text._leWidget_SetBorderType
                0x23f1ac7c       0x30 build/lcdc_rgba888_mxt_9x60_wvga/debug/_ext/261620856/legato_widget.o
                0x23f1ac7c                _leWidget_SetBorderType
 .text._leWidget_GetBackgroundType
                0x23f1acac        0x8 build/lcdc_rgba888_mxt_9x60_wvga/debug/_ext/261620856/legato_widget.o
                0x23f1acac                _leWidget_GetBackgroundType
 .text._leWidget_SetBackgroundType
                0x23f1acb4       0x30 build/lcdc_rgba888_mxt_9x60_wvga/debug/_ext/261620856/legato_widget.o
                0x23f1acb4                _leWidget_SetBackgroundType
 .text._leWidget_GetHAlignment
                0x23f1ace4        0x8 build/lcdc_rgba888_mxt_9x60_wvga/debug/_ext/261620856/legato_widget.o
                0x23f1ace4                _leWidget_GetHAlignment
 .text._leWidget_SetHAlignment
                0x23f1acec       0x48 build/lcdc_rgba888_mxt_9x60_wvga/debug/_ext/261620856/legato_widget.o
                0x23f1acec                _leWidget_SetHAlignment
 .text._leWidget_GetVAlignment
                0x23f1ad34        0x8 build/lcdc_rgba888_mxt_9x60_wvga/debug/_ext/261620856/legato_widget.o
                0x23f1ad34                _leWidget_GetVAlignment
 .text._leWidget_SetVAlignment
                0x23f1ad3c       0x48 build/lcdc_rgba888_mxt_9x60_wvga/debug/_ext/261620856/legato_widget.o
                0x23f1ad3c                _leWidget_SetVAlignment
 .text._leWidget_GetMargins
                0x23f1ad84       0x2c build/lcdc_rgba888_mxt_9x60_wvga/debug/_ext/261620856/legato_widget.o
                0x23f1ad84                _leWidget_GetMargins
 .text._leWidget_SetMargins
                0x23f1adb0       0x64 build/lcdc_rgba888_mxt_9x60_wvga/debug/_ext/261620856/legato_widget.o
                0x23f1adb0                _leWidget_SetMargins
 .text._leWidget_GetCornerRadius
                0x23f1ae14        0x8 build/lcdc_rgba888_mxt_9x60_wvga/debug/_ext/261620856/legato_widget.o
                0x23f1ae14                _leWidget_GetCornerRadius
 .text._leWidget_SetCornerRadius
                0x23f1ae1c       0x44 build/lcdc_rgba888_mxt_9x60_wvga/debug/_ext/261620856/legato_widget.o
                0x23f1ae1c                _leWidget_SetCornerRadius
 .text._leWidget_Invalidate
                0x23f1ae60       0x38 build/lcdc_rgba888_mxt_9x60_wvga/debug/_ext/261620856/legato_widget.o
                0x23f1ae60                _leWidget_Invalidate
 .text._leWidget_InvalidateContents
                0x23f1ae98        0x4 build/lcdc_rgba888_mxt_9x60_wvga/debug/_ext/261620856/legato_widget.o
                0x23f1ae98                _leWidget_InvalidateContents
 .text._leWidget_InstallEventFilter
                0x23f1ae9c       0x68 build/lcdc_rgba888_mxt_9x60_wvga/debug/_ext/261620856/legato_widget.o
                0x23f1ae9c                _leWidget_InstallEventFilter
 .text._leWidget_RemoveEventFilter
                0x23f1af04       0x60 build/lcdc_rgba888_mxt_9x60_wvga/debug/_ext/261620856/legato_widget.o
                0x23f1af04                _leWidget_RemoveEventFilter
 .text._leWidget_TouchDownEvent
                0x23f1af64        0x4 build/lcdc_rgba888_mxt_9x60_wvga/debug/_ext/261620856/legato_widget.o
                0x23f1af64                _leWidget_TouchDownEvent
 .text._leWidget_TouchUpEvent
                0x23f1af68        0x4 build/lcdc_rgba888_mxt_9x60_wvga/debug/_ext/261620856/legato_widget.o
                0x23f1af68                _leWidget_TouchUpEvent
 .text._leWidget_TouchMoveEvent
                0x23f1af6c        0x4 build/lcdc_rgba888_mxt_9x60_wvga/debug/_ext/261620856/legato_widget.o
                0x23f1af6c                _leWidget_TouchMoveEvent
 .text._leWidget_MoveEvent
                0x23f1af70        0x4 build/lcdc_rgba888_mxt_9x60_wvga/debug/_ext/261620856/legato_widget.o
                0x23f1af70                _leWidget_MoveEvent
 .text._leWidget_ResizeEvent
                0x23f1af74        0x4 build/lcdc_rgba888_mxt_9x60_wvga/debug/_ext/261620856/legato_widget.o
                0x23f1af74                _leWidget_ResizeEvent
 .text._leWidget_FocusLostEvent
                0x23f1af78        0x4 build/lcdc_rgba888_mxt_9x60_wvga/debug/_ext/261620856/legato_widget.o
                0x23f1af78                _leWidget_FocusLostEvent
 .text._leWidget_FocusGainedEvent
                0x23f1af7c        0x4 build/lcdc_rgba888_mxt_9x60_wvga/debug/_ext/261620856/legato_widget.o
                0x23f1af7c                _leWidget_FocusGainedEvent
 .text._leWidget_LanguageChangeEvent
                0x23f1af80        0x4 build/lcdc_rgba888_mxt_9x60_wvga/debug/_ext/261620856/legato_widget.o
                0x23f1af80                _leWidget_LanguageChangeEvent
 .text.filterEvent
                0x23f1af84       0x54 build/lcdc_rgba888_mxt_9x60_wvga/debug/_ext/261620856/legato_widget.o
 .text._leWidget_HandleEvent
                0x23f1afd8      0x1a0 build/lcdc_rgba888_mxt_9x60_wvga/debug/_ext/261620856/legato_widget.o
                0x23f1afd8                _leWidget_HandleEvent
 .text._leWidget_ValidateChildren
                0x23f1b178       0x54 build/lcdc_rgba888_mxt_9x60_wvga/debug/_ext/261620856/legato_widget.o
                0x23f1b178                _leWidget_ValidateChildren
 .text._leWidget_IncreaseDirtyState
                0x23f1b1cc       0x10 build/lcdc_rgba888_mxt_9x60_wvga/debug/_ext/261620856/legato_widget.o
                0x23f1b1cc                _leWidget_IncreaseDirtyState
 .text._leWidget_SetDirtyState
                0x23f1b1dc        0x8 build/lcdc_rgba888_mxt_9x60_wvga/debug/_ext/261620856/legato_widget.o
                0x23f1b1dc                _leWidget_SetDirtyState
 .text._leWidget_ClearDirtyState
                0x23f1b1e4        0xc build/lcdc_rgba888_mxt_9x60_wvga/debug/_ext/261620856/legato_widget.o
                0x23f1b1e4                _leWidget_ClearDirtyState
 .text._leWidget_Update
                0x23f1b1f0        0x4 build/lcdc_rgba888_mxt_9x60_wvga/debug/_ext/261620856/legato_widget.o
                0x23f1b1f0                _leWidget_Update
 .text._leWidget_HasFocus
                0x23f1b1f4       0x20 build/lcdc_rgba888_mxt_9x60_wvga/debug/_ext/261620856/legato_widget.o
                0x23f1b1f4                _leWidget_HasFocus
 .text._leWidget_SetFocus
                0x23f1b214        0xc build/lcdc_rgba888_mxt_9x60_wvga/debug/_ext/261620856/legato_widget.o
                0x23f1b214                _leWidget_SetFocus
 .text._leWidget_Destructor
                0x23f1b220       0x98 build/lcdc_rgba888_mxt_9x60_wvga/debug/_ext/261620856/legato_widget.o
                0x23f1b220                _leWidget_Destructor
 .text._leWidget_RemoveAllChildren
                0x23f1b2b8       0x74 build/lcdc_rgba888_mxt_9x60_wvga/debug/_ext/261620856/legato_widget.o
                0x23f1b2b8                _leWidget_RemoveAllChildren
 .text._leWidget_Resize
                0x23f1b32c      0x104 build/lcdc_rgba888_mxt_9x60_wvga/debug/_ext/261620856/legato_widget.o
                0x23f1b32c                _leWidget_Resize
 .text._leWidget_RectToScreenSpace
                0x23f1b430       0x4c build/lcdc_rgba888_mxt_9x60_wvga/debug/_ext/261620856/legato_widget.o
                0x23f1b430                _leWidget_RectToScreenSpace
 .text._leWidget_GetCumulativeAlphaAmount
                0x23f1b47c       0x94 build/lcdc_rgba888_mxt_9x60_wvga/debug/_ext/261620856/legato_widget.o
                0x23f1b47c                _leWidget_GetCumulativeAlphaAmount
 .text._leWidget_AddChild
                0x23f1b510       0x8c build/lcdc_rgba888_mxt_9x60_wvga/debug/_ext/261620856/legato_widget.o
                0x23f1b510                _leWidget_AddChild
 .text._leWidget_InsertChild
                0x23f1b59c       0x94 build/lcdc_rgba888_mxt_9x60_wvga/debug/_ext/261620856/legato_widget.o
                0x23f1b59c                _leWidget_InsertChild
 .text._leWidget_RemoveChild
                0x23f1b630       0x58 build/lcdc_rgba888_mxt_9x60_wvga/debug/_ext/261620856/legato_widget.o
                0x23f1b630                _leWidget_RemoveChild
 .text._leWidget_SetChildIndex
                0x23f1b688       0x44 build/lcdc_rgba888_mxt_9x60_wvga/debug/_ext/261620856/legato_widget.o
                0x23f1b688                _leWidget_SetChildIndex
 .text._leWidget_RemoveChildAt
                0x23f1b6cc       0x58 build/lcdc_rgba888_mxt_9x60_wvga/debug/_ext/261620856/legato_widget.o
                0x23f1b6cc                _leWidget_RemoveChildAt
 .text._leWidget_GetIndexOfChild
                0x23f1b724       0x24 build/lcdc_rgba888_mxt_9x60_wvga/debug/_ext/261620856/legato_widget.o
                0x23f1b724                _leWidget_GetIndexOfChild
 .text._leWidget_InvalidateBorderAreas
                0x23f1b748        0xc build/lcdc_rgba888_mxt_9x60_wvga/debug/_ext/261620856/legato_widget.o
                0x23f1b748                _leWidget_InvalidateBorderAreas
 .text._leWidget_DamageArea
                0x23f1b754       0x30 build/lcdc_rgba888_mxt_9x60_wvga/debug/_ext/261620856/legato_widget.o
                0x23f1b754                _leWidget_DamageArea
 .text.leWidget_Constructor
                0x23f1b784       0xb8 build/lcdc_rgba888_mxt_9x60_wvga/debug/_ext/261620856/legato_widget.o
                0x23f1b784                leWidget_Constructor
 .text.leWidget_New
                0x23f1b83c       0x24 build/lcdc_rgba888_mxt_9x60_wvga/debug/_ext/261620856/legato_widget.o
                0x23f1b83c                leWidget_New
 .text.leWidget_Delete
                0x23f1b860       0x28 build/lcdc_rgba888_mxt_9x60_wvga/debug/_ext/261620856/legato_widget.o
                0x23f1b860                leWidget_Delete
 .text.leWidget_SkinClassic_FillRoundCornerRect
                0x23f1b888      0x2b4 build/lcdc_rgba888_mxt_9x60_wvga/debug/_ext/261620856/legato_widget_skin_classic_common.o
                0x23f1b888                leWidget_SkinClassic_FillRoundCornerRect
 .text.leWidget_SkinClassic_DrawBackground
                0x23f1bb3c       0x68 build/lcdc_rgba888_mxt_9x60_wvga/debug/_ext/261620856/legato_widget_skin_classic_common.o
                0x23f1bb3c                leWidget_SkinClassic_DrawBackground
 .text.leWidget_SkinClassic_DrawRoundCornerBackground
                0x23f1bba4       0x40 build/lcdc_rgba888_mxt_9x60_wvga/debug/_ext/261620856/legato_widget_skin_classic_common.o
                0x23f1bba4                leWidget_SkinClassic_DrawRoundCornerBackground
 .text.leWidget_SkinClassic_DrawStandardBackground
                0x23f1bbe4       0x38 build/lcdc_rgba888_mxt_9x60_wvga/debug/_ext/261620856/legato_widget_skin_classic_common.o
                0x23f1bbe4                leWidget_SkinClassic_DrawStandardBackground
 .text.leWidget_SkinClassic_DrawRoundCornerLineBorder
                0x23f1bc1c      0x250 build/lcdc_rgba888_mxt_9x60_wvga/debug/_ext/261620856/legato_widget_skin_classic_common.o
                0x23f1bc1c                leWidget_SkinClassic_DrawRoundCornerLineBorder
 .text.leWidget_SkinClassic_DrawLineBorder
                0x23f1be6c       0xa4 build/lcdc_rgba888_mxt_9x60_wvga/debug/_ext/261620856/legato_widget_skin_classic_common.o
                0x23f1be6c                leWidget_SkinClassic_DrawLineBorder
 .text.leWidget_SkinClassic_Draw2x2BeveledBorder
                0x23f1bf10      0x150 build/lcdc_rgba888_mxt_9x60_wvga/debug/_ext/261620856/legato_widget_skin_classic_common.o
                0x23f1bf10                leWidget_SkinClassic_Draw2x2BeveledBorder
 .text.leWidget_SkinClassic_Draw1x2BeveledBorder
                0x23f1c060      0x104 build/lcdc_rgba888_mxt_9x60_wvga/debug/_ext/261620856/legato_widget_skin_classic_common.o
                0x23f1c060                leWidget_SkinClassic_Draw1x2BeveledBorder
 .text.leWidget_SkinClassic_DrawStandardLineBorder
                0x23f1c164       0x74 build/lcdc_rgba888_mxt_9x60_wvga/debug/_ext/261620856/legato_widget_skin_classic_common.o
                0x23f1c164                leWidget_SkinClassic_DrawStandardLineBorder
 .text.leWidget_SkinClassic_DrawStandardRaisedBorder
                0x23f1c1d8       0x80 build/lcdc_rgba888_mxt_9x60_wvga/debug/_ext/261620856/legato_widget_skin_classic_common.o
                0x23f1c1d8                leWidget_SkinClassic_DrawStandardRaisedBorder
 .text.leWidget_SkinClassic_DrawStandardLoweredBorder
                0x23f1c258       0x80 build/lcdc_rgba888_mxt_9x60_wvga/debug/_ext/261620856/legato_widget_skin_classic_common.o
                0x23f1c258                leWidget_SkinClassic_DrawStandardLoweredBorder
 .text.leWidget_SkinClassic_DrawStandardHybridBorder
                0x23f1c2d8       0x6c build/lcdc_rgba888_mxt_9x60_wvga/debug/_ext/261620856/legato_widget_skin_classic_common.o
                0x23f1c2d8                leWidget_SkinClassic_DrawStandardHybridBorder
 .text.leWidget_SkinClassic_InvalidateBorderAreas
                0x23f1c344      0x1a0 build/lcdc_rgba888_mxt_9x60_wvga/debug/_ext/261620856/legato_widget_skin_classic_common.o
                0x23f1c344                leWidget_SkinClassic_InvalidateBorderAreas
 .text.GFX_SIM_TimerStart
                0x23f1c4e4        0x4 build/lcdc_rgba888_mxt_9x60_wvga/debug/_ext/440801193/gfx_simulator.o
                0x23f1c4e4                GFX_SIM_TimerStart
 .text.GFX_SIM_TimerStop
                0x23f1c4e8        0x4 build/lcdc_rgba888_mxt_9x60_wvga/debug/_ext/440801193/gfx_simulator.o
                0x23f1c4e8                GFX_SIM_TimerStop
 .text.GFX_SIM_TimerGetFreqHz
                0x23f1c4ec        0x8 build/lcdc_rgba888_mxt_9x60_wvga/debug/_ext/440801193/gfx_simulator.o
                0x23f1c4ec                GFX_SIM_TimerGetFreqHz
 .text.GFX_SIM_TimerStubCompareSet
                0x23f1c4f4        0x4 build/lcdc_rgba888_mxt_9x60_wvga/debug/_ext/440801193/gfx_simulator.o
                0x23f1c4f4                GFX_SIM_TimerStubCompareSet
 .text.GFX_SIM_TimerCounterGet
                0x23f1c4f8        0x8 build/lcdc_rgba888_mxt_9x60_wvga/debug/_ext/440801193/gfx_simulator.o
                0x23f1c4f8                GFX_SIM_TimerCounterGet
 .text.GFX_SIM_TimerRegisterCallback
                0x23f1c500        0x4 build/lcdc_rgba888_mxt_9x60_wvga/debug/_ext/440801193/gfx_simulator.o
                0x23f1c500                GFX_SIM_TimerRegisterCallback
 .text.GFX_SIM_Update
                0x23f1c504        0x4 build/lcdc_rgba888_mxt_9x60_wvga/debug/_ext/440801193/gfx_simulator.o
                0x23f1c504                GFX_SIM_Update
 .text.GFX_SIM_BlitBuffer
                0x23f1c508        0x8 build/lcdc_rgba888_mxt_9x60_wvga/debug/_ext/440801193/gfx_simulator.o
                0x23f1c508                GFX_SIM_BlitBuffer
 .text.GFX_SIM_IOCTL
                0x23f1c510        0x8 build/lcdc_rgba888_mxt_9x60_wvga/debug/_ext/440801193/gfx_simulator.o
                0x23f1c510                GFX_SIM_IOCTL
 .text.AIC_INT_Initialize
                0x23f1c518       0x80 build/lcdc_rgba888_mxt_9x60_wvga/debug/_ext/4986847/plib_aic.o
                0x23f1c518                AIC_INT_Initialize
 .text.AIC_INT_IrqDisable
                0x23f1c598       0x30 build/lcdc_rgba888_mxt_9x60_wvga/debug/_ext/4986847/plib_aic.o
                0x23f1c598                AIC_INT_IrqDisable
 .text.AIC_INT_IrqRestore
                0x23f1c5c8       0x28 build/lcdc_rgba888_mxt_9x60_wvga/debug/_ext/4986847/plib_aic.o
                0x23f1c5c8                AIC_INT_IrqRestore
 .text.CLK_Initialize
                0x23f1c5f0       0xb0 build/lcdc_rgba888_mxt_9x60_wvga/debug/_ext/4988870/plib_clk.o
                0x23f1c5f0                CLK_Initialize
 .text.icache_InvalidateAll
                0x23f1c6a0        0xc build/lcdc_rgba888_mxt_9x60_wvga/debug/_ext/4998521/plib_mmu.o
                0x23f1c6a0                icache_InvalidateAll
 .text.icache_Enable
                0x23f1c6ac       0x20 build/lcdc_rgba888_mxt_9x60_wvga/debug/_ext/4998521/plib_mmu.o
                0x23f1c6ac                icache_Enable
 .text.dcache_InvalidateAll
                0x23f1c6cc       0x38 build/lcdc_rgba888_mxt_9x60_wvga/debug/_ext/4998521/plib_mmu.o
                0x23f1c6cc                dcache_InvalidateAll
 .text.dcache_Enable
                0x23f1c704       0x20 build/lcdc_rgba888_mxt_9x60_wvga/debug/_ext/4998521/plib_mmu.o
                0x23f1c704                dcache_Enable
 .text.MMU_Initialize
                0x23f1c724      0x244 build/lcdc_rgba888_mxt_9x60_wvga/debug/_ext/4998521/plib_mmu.o
                0x23f1c724                MMU_Initialize
 .text.PIO_Initialize
                0x23f1c968       0xbc build/lcdc_rgba888_mxt_9x60_wvga/debug/_ext/5001274/plib_pio.o
                0x23f1c968                PIO_Initialize
 .text.write    0x23f1ca24        0x8 build/lcdc_rgba888_mxt_9x60_wvga/debug/_ext/286729486/xc32_monitor.o
                0x23f1ca24                write
 .text.SYS_INP_Init
                0x23f1ca2c       0x44 build/lcdc_rgba888_mxt_9x60_wvga/debug/_ext/1414187873/sys_input.o
                0x23f1ca2c                SYS_INP_Init
 .text.SYS_INP_Tasks
                0x23f1ca70      0x1d8 build/lcdc_rgba888_mxt_9x60_wvga/debug/_ext/1414187873/sys_input.o
                0x23f1ca70                SYS_INP_Tasks
 .text.SYS_INP_AddListener
                0x23f1cc48       0x84 build/lcdc_rgba888_mxt_9x60_wvga/debug/_ext/1414187873/sys_input.o
                0x23f1cc48                SYS_INP_AddListener
 .text.SYS_INT_Disable
                0x23f1cccc        0xc build/lcdc_rgba888_mxt_9x60_wvga/debug/_ext/1826491803/sys_int.o
                0x23f1cccc                SYS_INT_Disable
 .text.SYS_INT_Restore
                0x23f1ccd8        0xc build/lcdc_rgba888_mxt_9x60_wvga/debug/_ext/1826491803/sys_int.o
                0x23f1ccd8                SYS_INT_Restore
 .text.SYS_INT_SourceIsEnabled
                0x23f1cce4       0x28 build/lcdc_rgba888_mxt_9x60_wvga/debug/_ext/1826491803/sys_int.o
                0x23f1cce4                SYS_INT_SourceIsEnabled
 .text.SYS_INT_SourceDisable
                0x23f1cd0c       0x3c build/lcdc_rgba888_mxt_9x60_wvga/debug/_ext/1826491803/sys_int.o
                0x23f1cd0c                SYS_INT_SourceDisable
 .text.SYS_INT_SourceRestore
                0x23f1cd48       0x30 build/lcdc_rgba888_mxt_9x60_wvga/debug/_ext/1826491803/sys_int.o
                0x23f1cd48                SYS_INT_SourceRestore
 .text.SYS_TIME_GetTimerObject
                0x23f1cd78       0x70 build/lcdc_rgba888_mxt_9x60_wvga/debug/_ext/1812361045/sys_time.o
 .text.SYS_TIME_HwTimerCompareUpdate
                0x23f1cde8       0xfc build/lcdc_rgba888_mxt_9x60_wvga/debug/_ext/1812361045/sys_time.o
 .text.SYS_TIME_RemoveFromList
                0x23f1cee4       0x94 build/lcdc_rgba888_mxt_9x60_wvga/debug/_ext/1812361045/sys_time.o
 .text.SYS_TIME_AddToList
                0x23f1cf78       0xe0 build/lcdc_rgba888_mxt_9x60_wvga/debug/_ext/1812361045/sys_time.o
 .text.SYS_TIME_UpdateTimerList
                0x23f1d058       0x74 build/lcdc_rgba888_mxt_9x60_wvga/debug/_ext/1812361045/sys_time.o
 .text.SYS_TIME_ResourceLock
                0x23f1d0cc       0x58 build/lcdc_rgba888_mxt_9x60_wvga/debug/_ext/1812361045/sys_time.o
 .text.SYS_TIME_ResourceUnlock
                0x23f1d124       0x2c build/lcdc_rgba888_mxt_9x60_wvga/debug/_ext/1812361045/sys_time.o
 .text.SYS_TIME_TimerObjectCreate
                0x23f1d150      0x12c build/lcdc_rgba888_mxt_9x60_wvga/debug/_ext/1812361045/sys_time.o
 .text.SYS_TIME_TimerAdd
                0x23f1d27c       0x74 build/lcdc_rgba888_mxt_9x60_wvga/debug/_ext/1812361045/sys_time.o
 .text.SYS_TIME_Initialize
                0x23f1d2f0      0x154 build/lcdc_rgba888_mxt_9x60_wvga/debug/_ext/1812361045/sys_time.o
                0x23f1d2f0                SYS_TIME_Initialize
 .text.SYS_TIME_TimerDestroy
                0x23f1d444       0x6c build/lcdc_rgba888_mxt_9x60_wvga/debug/_ext/1812361045/sys_time.o
                0x23f1d444                SYS_TIME_TimerDestroy
 .text.SYS_TIME_PLIBCallback
                0x23f1d4b0      0x174 build/lcdc_rgba888_mxt_9x60_wvga/debug/_ext/1812361045/sys_time.o
 .text.SYS_TIME_TimerStart
                0x23f1d624       0x94 build/lcdc_rgba888_mxt_9x60_wvga/debug/_ext/1812361045/sys_time.o
                0x23f1d624                SYS_TIME_TimerStart
 .text.SYS_TIME_TimerStop
                0x23f1d6b8       0x6c build/lcdc_rgba888_mxt_9x60_wvga/debug/_ext/1812361045/sys_time.o
                0x23f1d6b8                SYS_TIME_TimerStop
 .text.SYS_TIME_CallbackRegisterMS
                0x23f1d724       0x9c build/lcdc_rgba888_mxt_9x60_wvga/debug/_ext/1812361045/sys_time.o
                0x23f1d724                SYS_TIME_CallbackRegisterMS
 .text.undefined_instruction_irq_handler
                0x23f1d7c0        0x4 build/lcdc_rgba888_mxt_9x60_wvga/debug/_ext/2052985144/fault_handlers.o
                0x23f1d7c0                undefined_instruction_irq_handler
 .text.software_interrupt_irq_handler
                0x23f1d7c4        0x4 build/lcdc_rgba888_mxt_9x60_wvga/debug/_ext/2052985144/fault_handlers.o
                0x23f1d7c4                software_interrupt_irq_handler
 .text.data_abort_irq_handler
                0x23f1d7c8        0x4 build/lcdc_rgba888_mxt_9x60_wvga/debug/_ext/2052985144/fault_handlers.o
                0x23f1d7c8                data_abort_irq_handler
 .text.prefetch_abort_irq_handler
                0x23f1d7cc        0x4 build/lcdc_rgba888_mxt_9x60_wvga/debug/_ext/2052985144/fault_handlers.o
                0x23f1d7cc                prefetch_abort_irq_handler
 .text.SYS_Tasks
                0x23f1d7d0       0x18 build/lcdc_rgba888_mxt_9x60_wvga/debug/_ext/2052985144/tasks.o
                0x23f1d7d0                SYS_Tasks
 .text.SYS_Initialize
                0x23f1d7e8       0xb8 build/lcdc_rgba888_mxt_9x60_wvga/debug/_ext/2052985144/initialization.o
                0x23f1d7e8                SYS_Initialize
 .text          0x23f1d8a0       0xa0 build/lcdc_rgba888_mxt_9x60_wvga/debug/_ext/2052985144/cstartup.o
 .text.ssTimerCallback
                0x23f1d940       0x18 build/lcdc_rgba888_mxt_9x60_wvga/debug/_ext/1360937237/app.o
 .text.tickTimerCallback
                0x23f1d958       0x18 build/lcdc_rgba888_mxt_9x60_wvga/debug/_ext/1360937237/app.o
 .text.tick2TimerCallback
                0x23f1d970       0x40 build/lcdc_rgba888_mxt_9x60_wvga/debug/_ext/1360937237/app.o
 .text.app_touchDownHandler
                0x23f1d9b0       0x24 build/lcdc_rgba888_mxt_9x60_wvga/debug/_ext/1360937237/app.o
 .text.ShowScene0
                0x23f1d9d4       0xf4 build/lcdc_rgba888_mxt_9x60_wvga/debug/_ext/1360937237/app.o
                0x23f1d9d4                ShowScene0
 .text.init_anim_images
                0x23f1dac8      0x278 build/lcdc_rgba888_mxt_9x60_wvga/debug/_ext/1360937237/app.o
                0x23f1dac8                init_anim_images
 .text.init_Scene1
                0x23f1dd40      0x114 build/lcdc_rgba888_mxt_9x60_wvga/debug/_ext/1360937237/app.o
                0x23f1dd40                init_Scene1
 .text.UpdateChargeAnime_Canvas
                0x23f1de54       0x90 build/lcdc_rgba888_mxt_9x60_wvga/debug/_ext/1360937237/app.o
                0x23f1de54                UpdateChargeAnime_Canvas
 .text.Update_Scene1
                0x23f1dee4       0x44 build/lcdc_rgba888_mxt_9x60_wvga/debug/_ext/1360937237/app.o
                0x23f1dee4                Update_Scene1
 .text.calculate_meter_change
                0x23f1df28       0x58 build/lcdc_rgba888_mxt_9x60_wvga/debug/_ext/1360937237/app.o
                0x23f1df28                calculate_meter_change
 .text.update_meterLabels
                0x23f1df80      0x18c build/lcdc_rgba888_mxt_9x60_wvga/debug/_ext/1360937237/app.o
                0x23f1df80                update_meterLabels
 .text.event_Screen0_ButtonWidget_plus_OnReleased
                0x23f1e10c      0x138 build/lcdc_rgba888_mxt_9x60_wvga/debug/_ext/1360937237/app.o
                0x23f1e10c                event_Screen0_ButtonWidget_plus_OnReleased
 .text.event_Screen0_ButtonWidget_minus_OnReleased
                0x23f1e244      0x110 build/lcdc_rgba888_mxt_9x60_wvga/debug/_ext/1360937237/app.o
                0x23f1e244                event_Screen0_ButtonWidget_minus_OnReleased
 .text.ShowScene1
                0x23f1e354      0x26c build/lcdc_rgba888_mxt_9x60_wvga/debug/_ext/1360937237/app.o
                0x23f1e354                ShowScene1
 .text.event_Screen0_ButtonWidget1_OnReleased
                0x23f1e5c0        0xc build/lcdc_rgba888_mxt_9x60_wvga/debug/_ext/1360937237/app.o
                0x23f1e5c0                event_Screen0_ButtonWidget1_OnReleased
 .text.exitScene1
                0x23f1e5cc       0x70 build/lcdc_rgba888_mxt_9x60_wvga/debug/_ext/1360937237/app.o
                0x23f1e5cc                exitScene1
 .text.event_Screen0_ButtonWidget_scene1_OnReleased
                0x23f1e63c       0x10 build/lcdc_rgba888_mxt_9x60_wvga/debug/_ext/1360937237/app.o
                0x23f1e63c                event_Screen0_ButtonWidget_scene1_OnReleased
 .text.get_screensaver_cnt
                0x23f1e64c       0x24 build/lcdc_rgba888_mxt_9x60_wvga/debug/_ext/1360937237/app.o
                0x23f1e64c                get_screensaver_cnt
 .text.init_Scene2
                0x23f1e670       0x94 build/lcdc_rgba888_mxt_9x60_wvga/debug/_ext/1360937237/app.o
                0x23f1e670                init_Scene2
 .text.updateBattPercentage
                0x23f1e704       0x6c build/lcdc_rgba888_mxt_9x60_wvga/debug/_ext/1360937237/app.o
                0x23f1e704                updateBattPercentage
 .text.update_rt
                0x23f1e770       0x70 build/lcdc_rgba888_mxt_9x60_wvga/debug/_ext/1360937237/app.o
                0x23f1e770                update_rt
 .text.ShowScene2
                0x23f1e7e0      0x214 build/lcdc_rgba888_mxt_9x60_wvga/debug/_ext/1360937237/app.o
                0x23f1e7e0                ShowScene2
 .text.Update_Scene2
                0x23f1e9f4      0x164 build/lcdc_rgba888_mxt_9x60_wvga/debug/_ext/1360937237/app.o
                0x23f1e9f4                Update_Scene2
 .text.APP_Initialize
                0x23f1eb58       0xa0 build/lcdc_rgba888_mxt_9x60_wvga/debug/_ext/1360937237/app.o
                0x23f1eb58                APP_Initialize
 .text.APP_Tasks
                0x23f1ebf8       0xc0 build/lcdc_rgba888_mxt_9x60_wvga/debug/_ext/1360937237/app.o
                0x23f1ebf8                APP_Tasks
 .text.main     0x23f1ecb8       0x14 build/lcdc_rgba888_mxt_9x60_wvga/debug/_ext/1360937237/main.o
                0x23f1ecb8                main
 .text          0x23f1eccc       0xc8 c:/program files/microchip/xc32/v4.35/bin/bin/../../lib/gcc/pic32c/8.3.1/arm/v5te/nofp\libgcc.a(_udivsi3.o)
                0x23f1eccc                __aeabi_uidiv
                0x23f1eccc                __udivsi3
                0x23f1ed74                __aeabi_uidivmod
 .text          0x23f1ed94       0xfc c:/program files/microchip/xc32/v4.35/bin/bin/../../lib/gcc/pic32c/8.3.1/arm/v5te/nofp\libgcc.a(_divsi3.o)
                0x23f1ed94                __divsi3
                0x23f1ed94                __aeabi_idiv
                0x23f1ee70                __aeabi_idivmod
 .text          0x23f1ee90        0x4 c:/program files/microchip/xc32/v4.35/bin/bin/../../lib/gcc/pic32c/8.3.1/arm/v5te/nofp\libgcc.a(_dvmd_tls.o)
                0x23f1ee90                __aeabi_idiv0
                0x23f1ee90                __aeabi_ldiv0
 .text          0x23f1ee94      0x3c0 c:/program files/microchip/xc32/v4.35/bin/bin/../../lib/gcc/pic32c/8.3.1/arm/v5te/nofp\libgcc.a(_arm_addsubdf3.o)
                0x23f1ee94                __aeabi_drsub
                0x23f1ee9c                __aeabi_dsub
                0x23f1ee9c                __subdf3
                0x23f1eea0                __aeabi_dadd
                0x23f1eea0                __adddf3
                0x23f1f14c                __floatunsidf
                0x23f1f14c                __aeabi_ui2d
                0x23f1f170                __floatsidf
                0x23f1f170                __aeabi_i2d
                0x23f1f198                __aeabi_f2d
                0x23f1f198                __extendsfdf2
                0x23f1f1e0                __floatundidf
                0x23f1f1e0                __aeabi_ul2d
                0x23f1f1f4                __floatdidf
                0x23f1f1f4                __aeabi_l2d
 .text          0x23f1f254      0x470 c:/program files/microchip/xc32/v4.35/bin/bin/../../lib/gcc/pic32c/8.3.1/arm/v5te/nofp\libgcc.a(_arm_muldivdf3.o)
                0x23f1f254                __aeabi_dmul
                0x23f1f254                __muldf3
                0x23f1f4c0                __divdf3
                0x23f1f4c0                __aeabi_ddiv
 .text          0x23f1f6c4       0x54 c:/program files/microchip/xc32/v4.35/bin/bin/../../lib/gcc/pic32c/8.3.1/arm/v5te/nofp\libgcc.a(_arm_fixunsdfsi.o)
                0x23f1f6c4                __aeabi_d2uiz
                0x23f1f6c4                __fixunsdfsi
 .text          0x23f1f718      0x250 c:/program files/microchip/xc32/v4.35/bin/bin/../../lib/gcc/pic32c/8.3.1/arm/v5te/nofp\libgcc.a(_arm_addsubsf3.o)
                0x23f1f718                __aeabi_frsub
                0x23f1f720                __subsf3
                0x23f1f720                __aeabi_fsub
                0x23f1f724                __aeabi_fadd
                0x23f1f724                __addsf3
                0x23f1f8b4                __aeabi_ui2f
                0x23f1f8b4                __floatunsisf
                0x23f1f8bc                __aeabi_i2f
                0x23f1f8bc                __floatsisf
                0x23f1f8dc                __aeabi_ul2f
                0x23f1f8dc                __floatundisf
                0x23f1f8ec                __aeabi_l2f
                0x23f1f8ec                __floatdisf
 .text          0x23f1f968      0x2f8 c:/program files/microchip/xc32/v4.35/bin/bin/../../lib/gcc/pic32c/8.3.1/arm/v5te/nofp\libgcc.a(_arm_muldivsf3.o)
                0x23f1f968                __mulsf3
                0x23f1f968                __aeabi_fmul
                0x23f1fb00                __aeabi_fdiv
                0x23f1fb00                __divsf3
 .text          0x23f1fc60       0xfc c:/program files/microchip/xc32/v4.35/bin/bin/../../lib/gcc/pic32c/8.3.1/arm/v5te/nofp\libgcc.a(_arm_cmpsf2.o)
                0x23f1fc60                __gesf2
                0x23f1fc60                __gtsf2
                0x23f1fc68                __lesf2
                0x23f1fc68                __ltsf2
                0x23f1fc70                __nesf2
                0x23f1fc70                __eqsf2
                0x23f1fc70                __cmpsf2
                0x23f1fcd4                __aeabi_cfrcmple
                0x23f1fce4                __aeabi_cfcmpeq
                0x23f1fce4                __aeabi_cfcmple
                0x23f1fcf8                __aeabi_fcmpeq
                0x23f1fd0c                __aeabi_fcmplt
                0x23f1fd20                __aeabi_fcmple
                0x23f1fd34                __aeabi_fcmpge
                0x23f1fd48                __aeabi_fcmpgt
 .text          0x23f1fd5c       0x5c c:/program files/microchip/xc32/v4.35/bin/bin/../../lib/gcc/pic32c/8.3.1/arm/v5te/nofp\libgcc.a(_arm_fixsfsi.o)
                0x23f1fd5c                __aeabi_f2iz
                0x23f1fd5c                __fixsfsi
 .text          0x23f1fdb8       0x54 c:/program files/microchip/xc32/v4.35/bin/bin/../../lib/gcc/pic32c/8.3.1/arm/v5te/nofp\libgcc.a(_arm_fixunssfsi.o)
                0x23f1fdb8                __fixunssfsi
                0x23f1fdb8                __aeabi_f2uiz
 .text          0x23f1fe0c       0x3c c:/program files/microchip/xc32/v4.35/bin/bin/../../lib/gcc/pic32c/8.3.1/arm/v5te/nofp\libgcc.a(_aeabi_uldivmod.o)
                0x23f1fe0c                __aeabi_uldivmod
 .text          0x23f1fe48      0x12c c:/program files/microchip/xc32/v4.35/bin/bin/../../lib/gcc/pic32c/8.3.1/arm/v5te/nofp\libgcc.a(_udivmoddi4.o)
                0x23f1fe48                __udivmoddi4
 .text.__dummy  0x23f1ff74        0x4 c:/program files/microchip/xc32/v4.35/bin/bin/../../lib/gcc/pic32c/8.3.1/../../../../pic32c/lib/arm/v5te/nofp\libg-musl.a(__libc_start_main.o)
                0x23f1ff74                __init_host
 .text.__libc_start_init
                0x23f1ff78       0x88 c:/program files/microchip/xc32/v4.35/bin/bin/../../lib/gcc/pic32c/8.3.1/../../../../pic32c/lib/arm/v5te/nofp\libg-musl.a(__libc_start_main.o)
                0x23f1ff78                __libc_init_array
 .text.bin_index
                0x23f20000       0x48 c:/program files/microchip/xc32/v4.35/bin/bin/../../lib/gcc/pic32c/8.3.1/../../../../pic32c/lib/arm/v5te/nofp\libg-musl.a(malloc.o)
 .text.adjust_size
                0x23f20048       0x60 c:/program files/microchip/xc32/v4.35/bin/bin/../../lib/gcc/pic32c/8.3.1/../../../../pic32c/lib/arm/v5te/nofp\libg-musl.a(malloc.o)
 .text.lock_bin
                0x23f200a8       0x34 c:/program files/microchip/xc32/v4.35/bin/bin/../../lib/gcc/pic32c/8.3.1/../../../../pic32c/lib/arm/v5te/nofp\libg-musl.a(malloc.o)
 .text.unbin    0x23f200dc       0x84 c:/program files/microchip/xc32/v4.35/bin/bin/../../lib/gcc/pic32c/8.3.1/../../../../pic32c/lib/arm/v5te/nofp\libg-musl.a(malloc.o)
 .text.alloc_fwd
                0x23f20160       0x4c c:/program files/microchip/xc32/v4.35/bin/bin/../../lib/gcc/pic32c/8.3.1/../../../../pic32c/lib/arm/v5te/nofp\libg-musl.a(malloc.o)
 .text.alloc_rev
                0x23f201ac       0x50 c:/program files/microchip/xc32/v4.35/bin/bin/../../lib/gcc/pic32c/8.3.1/../../../../pic32c/lib/arm/v5te/nofp\libg-musl.a(malloc.o)
 .text.free     0x23f201fc      0x150 c:/program files/microchip/xc32/v4.35/bin/bin/../../lib/gcc/pic32c/8.3.1/../../../../pic32c/lib/arm/v5te/nofp\libg-musl.a(malloc.o)
                0x23f201fc                free
 .text.trim     0x23f2034c       0x40 c:/program files/microchip/xc32/v4.35/bin/bin/../../lib/gcc/pic32c/8.3.1/../../../../pic32c/lib/arm/v5te/nofp\libg-musl.a(malloc.o)
 .text.malloc   0x23f2038c      0x26c c:/program files/microchip/xc32/v4.35/bin/bin/../../lib/gcc/pic32c/8.3.1/../../../../pic32c/lib/arm/v5te/nofp\libg-musl.a(malloc.o)
                0x23f2038c                malloc
 .text.__expand_heap
                0x23f205f8       0x2c c:/program files/microchip/xc32/v4.35/bin/bin/../../lib/gcc/pic32c/8.3.1/../../../../pic32c/lib/arm/v5te/nofp\libg-musl.a(expand_heap.o)
                0x23f205f8                __expand_heap
 .text.__wrap_sprintf
                0x23f20624       0x28 c:/program files/microchip/xc32/v4.35/bin/bin/../../lib/gcc/pic32c/8.3.1/../../../../pic32c/lib/arm/v5te/nofp\libg-musl.a(__sio_sprintf_dnpuxX.o)
                0x23f20624                _dsprintf_dnpuxX
                0x23f20624                _sprintf_dnpuxX
 .text.__fmt_d  0x23f2064c      0x118 c:/program files/microchip/xc32/v4.35/bin/bin/../../lib/gcc/pic32c/8.3.1/../../../../pic32c/lib/arm/v5te/nofp\libg-musl.a(__fmt_d.o)
                0x23f2064c                __fmt_d
                0x23f2064c                __fmt_d_needed
 .text.__fmt_u  0x23f20764       0x94 c:/program files/microchip/xc32/v4.35/bin/bin/../../lib/gcc/pic32c/8.3.1/../../../../pic32c/lib/arm/v5te/nofp\libg-musl.a(__fmt_u.o)
                0x23f20764                __fmt_u_needed
                0x23f20764                __fmt_u
 .text.__fmt_x  0x23f207f8      0x19c c:/program files/microchip/xc32/v4.35/bin/bin/../../lib/gcc/pic32c/8.3.1/../../../../pic32c/lib/arm/v5te/nofp\libg-musl.a(__fmt_x.o)
                0x23f207f8                __fmt_x_needed
                0x23f207f8                __fmt_x
 .text.__pop_int
                0x23f20994      0x164 c:/program files/microchip/xc32/v4.35/bin/bin/../../lib/gcc/pic32c/8.3.1/../../../../pic32c/lib/arm/v5te/nofp\libg-musl.a(__pop_int.o)
                0x23f20994                __pop_int_needed
                0x23f20994                __pop_int
 .text.__pop_ptr
                0x23f20af8       0xec c:/program files/microchip/xc32/v4.35/bin/bin/../../lib/gcc/pic32c/8.3.1/../../../../pic32c/lib/arm/v5te/nofp\libg-musl.a(__pop_ptr.o)
                0x23f20af8                __pop_ptr
                0x23f20af8                __pop_ptr_needed
 .text.__pad    0x23f20be4       0xc0 c:/program files/microchip/xc32/v4.35/bin/bin/../../lib/gcc/pic32c/8.3.1/../../../../pic32c/lib/arm/v5te/nofp\libg-musl.a(__printf_core.o)
                0x23f20be4                __pad
 .text.__dummy_fmt3
                0x23f20ca4        0x8 c:/program files/microchip/xc32/v4.35/bin/bin/../../lib/gcc/pic32c/8.3.1/../../../../pic32c/lib/arm/v5te/nofp\libg-musl.a(__printf_core.o)
                0x23f20ca4                __fmt_o
 .text.__dummy_fmt4
                0x23f20cac        0x8 c:/program files/microchip/xc32/v4.35/bin/bin/../../lib/gcc/pic32c/8.3.1/../../../../pic32c/lib/arm/v5te/nofp\libg-musl.a(__printf_core.o)
                0x23f20cac                __fmt_fp
                0x23f20cac                __fmt_a
 .text.__dummy_fmts
                0x23f20cb4        0x8 c:/program files/microchip/xc32/v4.35/bin/bin/../../lib/gcc/pic32c/8.3.1/../../../../pic32c/lib/arm/v5te/nofp\libg-musl.a(__printf_core.o)
                0x23f20cb4                __fmt_s
 .text.__fmt_state
                0x23f20cbc       0x74 c:/program files/microchip/xc32/v4.35/bin/bin/../../lib/gcc/pic32c/8.3.1/../../../../pic32c/lib/arm/v5te/nofp\libg-musl.a(__printf_core.o)
                0x23f20cbc                __fmt_state
 .text.__printf_core
                0x23f20d30      0x554 c:/program files/microchip/xc32/v4.35/bin/bin/../../lib/gcc/pic32c/8.3.1/../../../../pic32c/lib/arm/v5te/nofp\libg-musl.a(__printf_core.o)
                0x23f20d30                __printf_core
 .text.__dummy  0x23f21284        0xc c:/program files/microchip/xc32/v4.35/bin/bin/../../lib/gcc/pic32c/8.3.1/../../../../pic32c/lib/arm/v5te/nofp\libg-musl.a(stdout.o)
                0x23f21284                __get_stdout
 .text.__init_stdout
                0x23f21290       0x1c c:/program files/microchip/xc32/v4.35/bin/bin/../../lib/gcc/pic32c/8.3.1/../../../../pic32c/lib/arm/v5te/nofp\libg-musl.a(stdout.o)
                0x23f21290                __init_stdout
 .text.atoi     0x23f212ac       0x7c c:/program files/microchip/xc32/v4.35/bin/bin/../../lib/gcc/pic32c/8.3.1/../../../../pic32c/lib/arm/v5te/nofp\libg-musl.a(atoi.o)
                0x23f212ac                atoi
 .text.memcpy   0x23f21328       0x24 c:/program files/microchip/xc32/v4.35/bin/bin/../../lib/gcc/pic32c/8.3.1/../../../../pic32c/lib/arm/v5te/nofp\libg-musl.a(memcpy.o)
                0x23f21328                memcpy
 .text.memset   0x23f2134c       0x24 c:/program files/microchip/xc32/v4.35/bin/bin/../../lib/gcc/pic32c/8.3.1/../../../../pic32c/lib/arm/v5te/nofp\libg-musl.a(memset.o)
                0x23f2134c                memset
 .text.strlen   0x23f21370       0x2c c:/program files/microchip/xc32/v4.35/bin/bin/../../lib/gcc/pic32c/8.3.1/../../../../pic32c/lib/arm/v5te/nofp\libg-musl.a(strlen.o)
                0x23f21370                strlen
 .text.tolower  0x23f2139c       0x10 c:/program files/microchip/xc32/v4.35/bin/bin/../../lib/gcc/pic32c/8.3.1/../../../../pic32c/lib/arm/v5te/nofp\libg-musl.a(tolower.o)
                0x23f2139c                tolower
 .text.toupper  0x23f213ac       0x10 c:/program files/microchip/xc32/v4.35/bin/bin/../../lib/gcc/pic32c/8.3.1/../../../../pic32c/lib/arm/v5te/nofp\libg-musl.a(toupper.o)
                0x23f213ac                toupper
 .text.__vfprintf
                0x23f213bc       0x28 c:/program files/microchip/xc32/v4.35/bin/bin/../../lib/gcc/pic32c/8.3.1/../../../../pic32c/lib/arm/v5te/nofp\libg-musl.a(__int_vfprintf.o)
                0x23f213bc                __vfprintf
 .text.__vsprintf
                0x23f213e4       0x10 c:/program files/microchip/xc32/v4.35/bin/bin/../../lib/gcc/pic32c/8.3.1/../../../../pic32c/lib/arm/v5te/nofp\libg-musl.a(__int_vsprintf.o)
                0x23f213e4                __vsprintf
 .text.__cvt_u  0x23f213f4       0xb8 c:/program files/microchip/xc32/v4.35/bin/bin/../../lib/gcc/pic32c/8.3.1/../../../../pic32c/lib/arm/v5te/nofp\libg-musl.a(__cvt_u.o)
                0x23f213f4                __cvt_u
 .text.__pop_float
                0x23f214ac       0x44 c:/program files/microchip/xc32/v4.35/bin/bin/../../lib/gcc/pic32c/8.3.1/../../../../pic32c/lib/arm/v5te/nofp\libg-musl.a(__pop_float.o)
                0x23f214ac                __pop_float_needed
                0x23f214ac                __pop_float
 .text.__fwrite_min
                0x23f214f0        0x8 c:/program files/microchip/xc32/v4.35/bin/bin/../../lib/gcc/pic32c/8.3.1/../../../../pic32c/lib/arm/v5te/nofp\libg-musl.a(fwrite.o)
                0x23f214f0                __fwrite
 .text.__vsnprintf
                0x23f214f8       0x84 c:/program files/microchip/xc32/v4.35/bin/bin/../../lib/gcc/pic32c/8.3.1/../../../../pic32c/lib/arm/v5te/nofp\libg-musl.a(__int_vsnprintf.o)
                0x23f214f8                __vsnprintf
 .text.__dummy  0x23f2157c        0x4 c:/program files/microchip/xc32/v4.35/bin/bin/../../lib/gcc/pic32c/8.3.1/../../../../pic32c/lib/arm/v5te/nofp\libg-musl.a(__init_stdio.o)
                0x23f2157c                __init_stdin
                0x23f2157c                __init_stderr
 .text.__init_stdio
                0x23f21580       0x14 c:/program files/microchip/xc32/v4.35/bin/bin/../../lib/gcc/pic32c/8.3.1/../../../../pic32c/lib/arm/v5te/nofp\libg-musl.a(__init_stdio.o)
                0x23f21580                __init_stdio_needed
                0x23f21580                __init_stdio
 .text.__out    0x23f21594       0x68 c:/program files/microchip/xc32/v4.35/bin/bin/../../lib/gcc/pic32c/8.3.1/../../../../pic32c/lib/arm/v5te/nofp\libg-musl.a(__out.o)
                0x23f21594                __out
                0x23f21594                __out_needed
 .text._sbrk    0x23f215fc       0x40 c:/program files/microchip/xc32/v4.35/bin/bin/../../lib/gcc/pic32c/8.3.1/../../../../pic32c/lib/arm/v5te/nofp\libpic32c.a(sbrk.o)
                0x23f215fc                _sbrk
 *(.rodata .rodata* .gnu.linkonce.r.*)
 .rodata.gfxDriverInterface
                0x23f2163c        0xc build/lcdc_rgba888_mxt_9x60_wvga/debug/_ext/1121151461/gfx_canvas.o
                0x23f2163c                gfxDriverInterface
 .rodata.gfxSimulatorDriver
                0x23f21648        0xc build/lcdc_rgba888_mxt_9x60_wvga/debug/_ext/1121151461/gfx_canvas.o
 .rodata.gfxColorInfoTable
                0x23f21654      0x160 build/lcdc_rgba888_mxt_9x60_wvga/debug/_ext/1165331637/gfx_driver.o
                0x23f21654                gfxColorInfoTable
 .rodata._cosTable
                0x23f217b4       0xb8 build/lcdc_rgba888_mxt_9x60_wvga/debug/_ext/305146849/legato_math.o
                0x23f217b4                _cosTable
 .rodata.leColorInfoTable
                0x23f2186c      0x160 build/lcdc_rgba888_mxt_9x60_wvga/debug/_ext/305146849/legato_color.o
                0x23f2186c                leColorInfoTable
 .rodata.leDefaultScheme
                0x23f219cc      0x2c8 build/lcdc_rgba888_mxt_9x60_wvga/debug/_ext/1618192685/legato_scheme.o
                0x23f219cc                leDefaultScheme
 .rodata.NotoMono_14_data
                0x23f21c94      0x784 build/lcdc_rgba888_mxt_9x60_wvga/debug/_ext/644506877/le_gen_fonts.o
                0x23f21c94                NotoMono_14_data
 .rodata.NotoMono_14_glyphs
                0x23f22418      0x44c build/lcdc_rgba888_mxt_9x60_wvga/debug/_ext/644506877/le_gen_fonts.o
                0x23f22418                NotoMono_14_glyphs
 .rodata.NotoSans_28_data
                0x23f22864      0x770 build/lcdc_rgba888_mxt_9x60_wvga/debug/_ext/644506877/le_gen_fonts.o
                0x23f22864                NotoSans_28_data
 .rodata.NotoSans_28_glyphs
                0x23f22fd4     0x5910 build/lcdc_rgba888_mxt_9x60_wvga/debug/_ext/644506877/le_gen_fonts.o
                0x23f22fd4                NotoSans_28_glyphs
 .rodata.NotoSans_48_data
                0x23f288e4      0x784 build/lcdc_rgba888_mxt_9x60_wvga/debug/_ext/644506877/le_gen_fonts.o
                0x23f288e4                NotoSans_48_data
 .rodata.NotoSans_48_glyphs
                0x23f29068     0x2510 build/lcdc_rgba888_mxt_9x60_wvga/debug/_ext/644506877/le_gen_fonts.o
                0x23f29068                NotoSans_48_glyphs
 .rodata.Battery0_data
                0x23f2b578     0x9c40 build/lcdc_rgba888_mxt_9x60_wvga/debug/_ext/1497821479/le_gen_images.o
                0x23f2b578                Battery0_data
 .rodata.Battery10_data
                0x23f351b8     0x9c40 build/lcdc_rgba888_mxt_9x60_wvga/debug/_ext/1497821479/le_gen_images.o
                0x23f351b8                Battery10_data
 .rodata.Battery1_data
                0x23f3edf8     0x9c40 build/lcdc_rgba888_mxt_9x60_wvga/debug/_ext/1497821479/le_gen_images.o
                0x23f3edf8                Battery1_data
 .rodata.Battery2_data
                0x23f48a38     0x9c40 build/lcdc_rgba888_mxt_9x60_wvga/debug/_ext/1497821479/le_gen_images.o
                0x23f48a38                Battery2_data
 .rodata.Battery3_data
                0x23f52678     0x9c40 build/lcdc_rgba888_mxt_9x60_wvga/debug/_ext/1497821479/le_gen_images.o
                0x23f52678                Battery3_data
 .rodata.Battery4_data
                0x23f5c2b8     0x9c40 build/lcdc_rgba888_mxt_9x60_wvga/debug/_ext/1497821479/le_gen_images.o
                0x23f5c2b8                Battery4_data
 .rodata.Battery5_data
                0x23f65ef8     0x9c40 build/lcdc_rgba888_mxt_9x60_wvga/debug/_ext/1497821479/le_gen_images.o
                0x23f65ef8                Battery5_data
 .rodata.Battery6_data
                0x23f6fb38     0x9c40 build/lcdc_rgba888_mxt_9x60_wvga/debug/_ext/1497821479/le_gen_images.o
                0x23f6fb38                Battery6_data
 .rodata.Battery7_data
                0x23f79778     0x9c40 build/lcdc_rgba888_mxt_9x60_wvga/debug/_ext/1497821479/le_gen_images.o
                0x23f79778                Battery7_data
 .rodata.Battery8_data
                0x23f833b8     0x9c40 build/lcdc_rgba888_mxt_9x60_wvga/debug/_ext/1497821479/le_gen_images.o
                0x23f833b8                Battery8_data
 .rodata.Battery9_data
                0x23f8cff8     0x9c40 build/lcdc_rgba888_mxt_9x60_wvga/debug/_ext/1497821479/le_gen_images.o
                0x23f8cff8                Battery9_data
 .rodata.MicrochipLogo_data
                0x23f96c38     0x57c0 build/lcdc_rgba888_mxt_9x60_wvga/debug/_ext/1497821479/le_gen_images.o
                0x23f96c38                MicrochipLogo_data
 .rodata.cable0_data
                0x23f9c3f8    0x29094 build/lcdc_rgba888_mxt_9x60_wvga/debug/_ext/1497821479/le_gen_images.o
                0x23f9c3f8                cable0_data
 .rodata.cable10_data
                0x23fc548c    0x29094 build/lcdc_rgba888_mxt_9x60_wvga/debug/_ext/1497821479/le_gen_images.o
                0x23fc548c                cable10_data
 .rodata.cable11_data
                0x23fee520    0x29094 build/lcdc_rgba888_mxt_9x60_wvga/debug/_ext/1497821479/le_gen_images.o
                0x23fee520                cable11_data
 .rodata.cable12_data
                0x240175b4    0x29094 build/lcdc_rgba888_mxt_9x60_wvga/debug/_ext/1497821479/le_gen_images.o
                0x240175b4                cable12_data
 .rodata.cable13_data
                0x24040648    0x29094 build/lcdc_rgba888_mxt_9x60_wvga/debug/_ext/1497821479/le_gen_images.o
                0x24040648                cable13_data
 .rodata.cable1_data
                0x240696dc    0x29094 build/lcdc_rgba888_mxt_9x60_wvga/debug/_ext/1497821479/le_gen_images.o
                0x240696dc                cable1_data
 .rodata.cable2_data
                0x24092770    0x29094 build/lcdc_rgba888_mxt_9x60_wvga/debug/_ext/1497821479/le_gen_images.o
                0x24092770                cable2_data
 .rodata.cable3_data
                0x240bb804    0x29094 build/lcdc_rgba888_mxt_9x60_wvga/debug/_ext/1497821479/le_gen_images.o
                0x240bb804                cable3_data
 .rodata.cable4_data
                0x240e4898    0x29094 build/lcdc_rgba888_mxt_9x60_wvga/debug/_ext/1497821479/le_gen_images.o
                0x240e4898                cable4_data
 .rodata.cable5_data
                0x2410d92c    0x29094 build/lcdc_rgba888_mxt_9x60_wvga/debug/_ext/1497821479/le_gen_images.o
                0x2410d92c                cable5_data
 .rodata.cable6_data
                0x241369c0    0x29094 build/lcdc_rgba888_mxt_9x60_wvga/debug/_ext/1497821479/le_gen_images.o
                0x241369c0                cable6_data
 .rodata.cable7_data
                0x2415fa54    0x29094 build/lcdc_rgba888_mxt_9x60_wvga/debug/_ext/1497821479/le_gen_images.o
                0x2415fa54                cable7_data
 .rodata.cable8_data
                0x24188ae8    0x29094 build/lcdc_rgba888_mxt_9x60_wvga/debug/_ext/1497821479/le_gen_images.o
                0x24188ae8                cable8_data
 .rodata.cable9_data
                0x241b1b7c    0x29094 build/lcdc_rgba888_mxt_9x60_wvga/debug/_ext/1497821479/le_gen_images.o
                0x241b1b7c                cable9_data
 .rodata.image0_data
                0x241dac10    0xfeb00 build/lcdc_rgba888_mxt_9x60_wvga/debug/_ext/1497821479/le_gen_images.o
                0x241dac10                image0_data
 .rodata.image1_data
                0x242d9710   0x177000 build/lcdc_rgba888_mxt_9x60_wvga/debug/_ext/1497821479/le_gen_images.o
                0x242d9710                image1_data
 .rodata.minus_data
                0x24450710     0x2710 build/lcdc_rgba888_mxt_9x60_wvga/debug/_ext/1497821479/le_gen_images.o
                0x24450710                minus_data
 .rodata.minusp_data
                0x24452e20     0x2710 build/lcdc_rgba888_mxt_9x60_wvga/debug/_ext/1497821479/le_gen_images.o
                0x24452e20                minusp_data
 .rodata.plus_data
                0x24455530     0x2710 build/lcdc_rgba888_mxt_9x60_wvga/debug/_ext/1497821479/le_gen_images.o
                0x24455530                plus_data
 .rodata.plusp_data
                0x24457c40     0x2710 build/lcdc_rgba888_mxt_9x60_wvga/debug/_ext/1497821479/le_gen_images.o
                0x24457c40                plusp_data
 .rodata.round_power_off_data
                0x2445a350     0x57e4 build/lcdc_rgba888_mxt_9x60_wvga/debug/_ext/1497821479/le_gen_images.o
                0x2445a350                round_power_off_data
 .rodata.round_power_on_data
                0x2445fb34     0x57e4 build/lcdc_rgba888_mxt_9x60_wvga/debug/_ext/1497821479/le_gen_images.o
                0x2445fb34                round_power_on_data
 .rodata.stringTable
                0x24465318       0x18 build/lcdc_rgba888_mxt_9x60_wvga/debug/_ext/706129189/le_gen_stringtable.o
                0x24465318                stringTable
 .rodata.stringTable_data
                0x24465330      0x138 build/lcdc_rgba888_mxt_9x60_wvga/debug/_ext/706129189/le_gen_stringtable.o
                0x24465330                stringTable_data
 .rodata.leGlobalPalette
                0x24465468       0x14 build/lcdc_rgba888_mxt_9x60_wvga/debug/_ext/706129189/le_gen_globalpalette.o
                0x24465468                leGlobalPalette
 .rodata.BlackScheme
                0x2446547c      0x2c8 build/lcdc_rgba888_mxt_9x60_wvga/debug/_ext/706129189/le_gen_scheme.o
                0x2446547c                BlackScheme
 .rodata.BlueScheme
                0x24465744      0x2c8 build/lcdc_rgba888_mxt_9x60_wvga/debug/_ext/706129189/le_gen_scheme.o
                0x24465744                BlueScheme
 .rodata.WhiteScheme
                0x24465a0c      0x2c8 build/lcdc_rgba888_mxt_9x60_wvga/debug/_ext/706129189/le_gen_scheme.o
                0x24465a0c                WhiteScheme
 .rodata.translucentScheme
                0x24465cd4      0x2c8 build/lcdc_rgba888_mxt_9x60_wvga/debug/_ext/706129189/le_gen_scheme.o
                0x24465cd4                translucentScheme
 .rodata.abZigzag
                0x24465f9c       0x40 build/lcdc_rgba888_mxt_9x60_wvga/debug/_ext/2086705360/legato_imagedecoder_jpeg_common.o
 .rodata.bCbCrOffset.5354
                0x24465fdc        0x4 build/lcdc_rgba888_mxt_9x60_wvga/debug/_ext/2086705360/legato_imagedecoder_jpeg_common.o
 .rodata.bOffsetX.5353
                0x24465fe0        0x4 build/lcdc_rgba888_mxt_9x60_wvga/debug/_ext/2086705360/legato_imagedecoder_jpeg_common.o
 .rodata.bOffsetY.5352
                0x24465fe4        0x4 build/lcdc_rgba888_mxt_9x60_wvga/debug/_ext/2086705360/legato_imagedecoder_jpeg_common.o
 .rodata        0x24465fe8       0x64 build/lcdc_rgba888_mxt_9x60_wvga/debug/_ext/1872343871/lodepng.o
 .rodata.ADAM7_DX
                0x2446604c       0x1c build/lcdc_rgba888_mxt_9x60_wvga/debug/_ext/1872343871/lodepng.o
 .rodata.ADAM7_DY
                0x24466068       0x1c build/lcdc_rgba888_mxt_9x60_wvga/debug/_ext/1872343871/lodepng.o
 .rodata.ADAM7_IX
                0x24466084       0x1c build/lcdc_rgba888_mxt_9x60_wvga/debug/_ext/1872343871/lodepng.o
 .rodata.ADAM7_IY
                0x244660a0       0x1c build/lcdc_rgba888_mxt_9x60_wvga/debug/_ext/1872343871/lodepng.o
 .rodata.CLCL_ORDER
                0x244660bc       0x4c build/lcdc_rgba888_mxt_9x60_wvga/debug/_ext/1872343871/lodepng.o
 .rodata.DISTANCEBASE
                0x24466108       0x78 build/lcdc_rgba888_mxt_9x60_wvga/debug/_ext/1872343871/lodepng.o
 .rodata.DISTANCEEXTRA
                0x24466180       0x78 build/lcdc_rgba888_mxt_9x60_wvga/debug/_ext/1872343871/lodepng.o
 .rodata.LENGTHBASE
                0x244661f8       0x74 build/lcdc_rgba888_mxt_9x60_wvga/debug/_ext/1872343871/lodepng.o
 .rodata.LENGTHEXTRA
                0x2446626c       0x74 build/lcdc_rgba888_mxt_9x60_wvga/debug/_ext/1872343871/lodepng.o
 .rodata.lodepng_crc32_table
                0x244662e0      0x400 build/lcdc_rgba888_mxt_9x60_wvga/debug/_ext/1872343871/lodepng.o
 .rodata.calcOffset
                0x244666e0       0x18 build/lcdc_rgba888_mxt_9x60_wvga/debug/_ext/1381099687/legato_image_utils.o
 .rodata.getDiscreteValue
                0x244666f8       0x2c build/lcdc_rgba888_mxt_9x60_wvga/debug/_ext/1381099687/legato_image_utils.o
 .rodata.tableStringVTable
                0x24466724       0x74 build/lcdc_rgba888_mxt_9x60_wvga/debug/_ext/157682245/legato_tablestring.o
 .rodata.fixedStringVTable
                0x24466798       0x6c build/lcdc_rgba888_mxt_9x60_wvga/debug/_ext/157682245/legato_fixedstring.o
 .rodata.buttonWidgetVTable
                0x24466804      0x184 build/lcdc_rgba888_mxt_9x60_wvga/debug/_ext/1339002025/legato_widget_button.o
 .rodata.imageWidgetVTable
                0x24466988      0x13c build/lcdc_rgba888_mxt_9x60_wvga/debug/_ext/1197524732/legato_widget_image.o
 .rodata.imageSequenceWidgetVTable
                0x24466ac4      0x188 build/lcdc_rgba888_mxt_9x60_wvga/debug/_ext/2015859515/legato_widget_imagesequence.o
 .rodata.labelWidgetVTable
                0x24466c4c      0x13c build/lcdc_rgba888_mxt_9x60_wvga/debug/_ext/1195110755/legato_widget_label.o
 .rodata.rectangleWidgetVTable
                0x24466d88      0x13c build/lcdc_rgba888_mxt_9x60_wvga/debug/_ext/337100648/legato_widget_rectangle.o
 .rodata.widgetVTable
                0x24466ec4      0x134 build/lcdc_rgba888_mxt_9x60_wvga/debug/_ext/261620856/legato_widget.o
 .rodata        0x24466ff8       0x1c build/lcdc_rgba888_mxt_9x60_wvga/debug/_ext/4988870/plib_clk.o
 .rodata.sysTimeInitData
                0x24467014        0x8 build/lcdc_rgba888_mxt_9x60_wvga/debug/_ext/2052985144/initialization.o
 .rodata.sysTimePlibAPI
                0x2446701c       0x1c build/lcdc_rgba888_mxt_9x60_wvga/debug/_ext/2052985144/initialization.o
 .rodata        0x24467038       0x14 build/lcdc_rgba888_mxt_9x60_wvga/debug/_ext/1360937237/app.o
 .rodata        0x2446704c       0x5c c:/program files/microchip/xc32/v4.35/bin/bin/../../lib/gcc/pic32c/8.3.1/../../../../pic32c/lib/arm/v5te/nofp\libg-musl.a(malloc.o)
 .rodata        0x244670a8       0x1e c:/program files/microchip/xc32/v4.35/bin/bin/../../lib/gcc/pic32c/8.3.1/../../../../pic32c/lib/arm/v5te/nofp\libg-musl.a(__printf_core.o)
 *(.ARM.extab* .gnu.linkonce.armextab.*)
                0x244670c8                . = ALIGN (0x4)
 *fill*         0x244670c6        0x2 
 *(.init)
 .init          0x244670c8        0xc c:/program files/microchip/xc32/v4.35/bin/bin/../../lib/gcc/pic32c/8.3.1/arm/v5te/nofp/crti.o
                0x244670c8                _init
 .init          0x244670d4        0xc c:/program files/microchip/xc32/v4.35/bin/bin/../../lib/gcc/pic32c/8.3.1/arm/v5te/nofp/crtn.o
                0x244670e0                . = ALIGN (0x4)
                [!provide]                PROVIDE (__preinit_array_start = .)
 *(.preinit_array)
                [!provide]                PROVIDE (__preinit_array_end = .)
                0x244670e0                . = ALIGN (0x4)
                0x244670e0                PROVIDE (__init_array_start = .)
 *(SORT_BY_NAME(.init_array.*))
 *(.init_array)
 .init_array    0x244670e0        0x4 c:/program files/microchip/xc32/v4.35/bin/bin/../../lib/gcc/pic32c/8.3.1/arm/v5te/nofp/crtbegin.o
                0x244670e4                PROVIDE (__init_array_end = .)
                0x244670e4                . = ALIGN (0x4)
 *crtbegin.o(.ctors)
 *(EXCLUDE_FILE(*crtend.o) .ctors)
 *(SORT_BY_NAME(.ctors.*))
 *crtend.o(.ctors)
                0x244670e4                . = ALIGN (0x4)
 *(.fini)
 .fini          0x244670e4        0xc c:/program files/microchip/xc32/v4.35/bin/bin/../../lib/gcc/pic32c/8.3.1/arm/v5te/nofp/crti.o
                0x244670e4                _fini
 .fini          0x244670f0        0xc c:/program files/microchip/xc32/v4.35/bin/bin/../../lib/gcc/pic32c/8.3.1/arm/v5te/nofp/crtn.o
                0x244670fc                . = ALIGN (0x4)
                [!provide]                PROVIDE (__fini_array_start = .)
 *(.fini_array)
 .fini_array    0x244670fc        0x4 c:/program files/microchip/xc32/v4.35/bin/bin/../../lib/gcc/pic32c/8.3.1/arm/v5te/nofp/crtbegin.o
 *(SORT_BY_NAME(.fini_array.*))
                [!provide]                PROVIDE (__fini_array_end = .)
 *crtbegin.o(.dtors)
 *(EXCLUDE_FILE(*crtend.o) .dtors)
 *(SORT_BY_NAME(.dtors.*))
 *crtend.o(.dtors)
 *(.dinit*)
                0x24467100                . = ALIGN (0x4)

.data           0x24467100      0xd6c
 *(.data .data.*)
 .data.effectsIntervalMS
                0x24467100        0x4 build/lcdc_rgba888_mxt_9x60_wvga/debug/_ext/1121151461/gfx_canvas.o
 .data.gfxDispCtrlr
                0x24467104        0x4 build/lcdc_rgba888_mxt_9x60_wvga/debug/_ext/1121151461/gfx_canvas.o
                0x24467104                gfxDispCtrlr
 .data.indexGet_FnTable
                0x24467108       0x18 build/lcdc_rgba888_mxt_9x60_wvga/debug/_ext/305146849/legato_pixelbuffer.o
                0x24467108                indexGet_FnTable
 .data.pixelGet_FnTable
                0x24467120       0x10 build/lcdc_rgba888_mxt_9x60_wvga/debug/_ext/305146849/legato_pixelbuffer.o
                0x24467120                pixelGet_FnTable
 .data.pixelSet_FnTable
                0x24467130       0x10 build/lcdc_rgba888_mxt_9x60_wvga/debug/_ext/305146849/legato_pixelbuffer.o
                0x24467130                pixelSet_FnTable
 .data.color_convert_table
                0x24467140      0x1e4 build/lcdc_rgba888_mxt_9x60_wvga/debug/_ext/305146849/legato_color_convert.o
                0x24467140                color_convert_table
 .data.color_lerp_table
                0x24467324       0x2c build/lcdc_rgba888_mxt_9x60_wvga/debug/_ext/305146849/legato_color_lerp.o
                0x24467324                color_lerp_table
 .data.NotoMono_14
                0x24467350       0x20 build/lcdc_rgba888_mxt_9x60_wvga/debug/_ext/644506877/le_gen_fonts.o
                0x24467350                NotoMono_14
 .data.NotoSans_28
                0x24467370       0x20 build/lcdc_rgba888_mxt_9x60_wvga/debug/_ext/644506877/le_gen_fonts.o
                0x24467370                NotoSans_28
 .data.NotoSans_48
                0x24467390       0x20 build/lcdc_rgba888_mxt_9x60_wvga/debug/_ext/644506877/le_gen_fonts.o
                0x24467390                NotoSans_48
 .data.Battery0
                0x244673b0       0x3c build/lcdc_rgba888_mxt_9x60_wvga/debug/_ext/1497821479/le_gen_images.o
                0x244673b0                Battery0
 .data.Battery1
                0x244673ec       0x3c build/lcdc_rgba888_mxt_9x60_wvga/debug/_ext/1497821479/le_gen_images.o
                0x244673ec                Battery1
 .data.Battery10
                0x24467428       0x3c build/lcdc_rgba888_mxt_9x60_wvga/debug/_ext/1497821479/le_gen_images.o
                0x24467428                Battery10
 .data.Battery2
                0x24467464       0x3c build/lcdc_rgba888_mxt_9x60_wvga/debug/_ext/1497821479/le_gen_images.o
                0x24467464                Battery2
 .data.Battery3
                0x244674a0       0x3c build/lcdc_rgba888_mxt_9x60_wvga/debug/_ext/1497821479/le_gen_images.o
                0x244674a0                Battery3
 .data.Battery4
                0x244674dc       0x3c build/lcdc_rgba888_mxt_9x60_wvga/debug/_ext/1497821479/le_gen_images.o
                0x244674dc                Battery4
 .data.Battery5
                0x24467518       0x3c build/lcdc_rgba888_mxt_9x60_wvga/debug/_ext/1497821479/le_gen_images.o
                0x24467518                Battery5
 .data.Battery6
                0x24467554       0x3c build/lcdc_rgba888_mxt_9x60_wvga/debug/_ext/1497821479/le_gen_images.o
                0x24467554                Battery6
 .data.Battery7
                0x24467590       0x3c build/lcdc_rgba888_mxt_9x60_wvga/debug/_ext/1497821479/le_gen_images.o
                0x24467590                Battery7
 .data.Battery8
                0x244675cc       0x3c build/lcdc_rgba888_mxt_9x60_wvga/debug/_ext/1497821479/le_gen_images.o
                0x244675cc                Battery8
 .data.Battery9
                0x24467608       0x3c build/lcdc_rgba888_mxt_9x60_wvga/debug/_ext/1497821479/le_gen_images.o
                0x24467608                Battery9
 .data.MicrochipLogo
                0x24467644       0x3c build/lcdc_rgba888_mxt_9x60_wvga/debug/_ext/1497821479/le_gen_images.o
                0x24467644                MicrochipLogo
 .data.cable0   0x24467680       0x3c build/lcdc_rgba888_mxt_9x60_wvga/debug/_ext/1497821479/le_gen_images.o
                0x24467680                cable0
 .data.cable1   0x244676bc       0x3c build/lcdc_rgba888_mxt_9x60_wvga/debug/_ext/1497821479/le_gen_images.o
                0x244676bc                cable1
 .data.cable10  0x244676f8       0x3c build/lcdc_rgba888_mxt_9x60_wvga/debug/_ext/1497821479/le_gen_images.o
                0x244676f8                cable10
 .data.cable11  0x24467734       0x3c build/lcdc_rgba888_mxt_9x60_wvga/debug/_ext/1497821479/le_gen_images.o
                0x24467734                cable11
 .data.cable12  0x24467770       0x3c build/lcdc_rgba888_mxt_9x60_wvga/debug/_ext/1497821479/le_gen_images.o
                0x24467770                cable12
 .data.cable13  0x244677ac       0x3c build/lcdc_rgba888_mxt_9x60_wvga/debug/_ext/1497821479/le_gen_images.o
                0x244677ac                cable13
 .data.cable2   0x244677e8       0x3c build/lcdc_rgba888_mxt_9x60_wvga/debug/_ext/1497821479/le_gen_images.o
                0x244677e8                cable2
 .data.cable3   0x24467824       0x3c build/lcdc_rgba888_mxt_9x60_wvga/debug/_ext/1497821479/le_gen_images.o
                0x24467824                cable3
 .data.cable4   0x24467860       0x3c build/lcdc_rgba888_mxt_9x60_wvga/debug/_ext/1497821479/le_gen_images.o
                0x24467860                cable4
 .data.cable5   0x2446789c       0x3c build/lcdc_rgba888_mxt_9x60_wvga/debug/_ext/1497821479/le_gen_images.o
                0x2446789c                cable5
 .data.cable6   0x244678d8       0x3c build/lcdc_rgba888_mxt_9x60_wvga/debug/_ext/1497821479/le_gen_images.o
                0x244678d8                cable6
 .data.cable7   0x24467914       0x3c build/lcdc_rgba888_mxt_9x60_wvga/debug/_ext/1497821479/le_gen_images.o
                0x24467914                cable7
 .data.cable8   0x24467950       0x3c build/lcdc_rgba888_mxt_9x60_wvga/debug/_ext/1497821479/le_gen_images.o
                0x24467950                cable8
 .data.cable9   0x2446798c       0x3c build/lcdc_rgba888_mxt_9x60_wvga/debug/_ext/1497821479/le_gen_images.o
                0x2446798c                cable9
 .data.image0   0x244679c8       0x3c build/lcdc_rgba888_mxt_9x60_wvga/debug/_ext/1497821479/le_gen_images.o
                0x244679c8                image0
 .data.image1   0x24467a04       0x3c build/lcdc_rgba888_mxt_9x60_wvga/debug/_ext/1497821479/le_gen_images.o
                0x24467a04                image1
 .data.minus    0x24467a40       0x3c build/lcdc_rgba888_mxt_9x60_wvga/debug/_ext/1497821479/le_gen_images.o
                0x24467a40                minus
 .data.minusp   0x24467a7c       0x3c build/lcdc_rgba888_mxt_9x60_wvga/debug/_ext/1497821479/le_gen_images.o
                0x24467a7c                minusp
 .data.plus     0x24467ab8       0x3c build/lcdc_rgba888_mxt_9x60_wvga/debug/_ext/1497821479/le_gen_images.o
                0x24467ab8                plus
 .data.plusp    0x24467af4       0x3c build/lcdc_rgba888_mxt_9x60_wvga/debug/_ext/1497821479/le_gen_images.o
                0x24467af4                plusp
 .data.round_power_off
                0x24467b30       0x3c build/lcdc_rgba888_mxt_9x60_wvga/debug/_ext/1497821479/le_gen_images.o
                0x24467b30                round_power_off
 .data.round_power_on
                0x24467b6c       0x3c build/lcdc_rgba888_mxt_9x60_wvga/debug/_ext/1497821479/le_gen_images.o
                0x24467b6c                round_power_on
 .data.fontList
                0x24467ba8        0xc build/lcdc_rgba888_mxt_9x60_wvga/debug/_ext/706129189/le_gen_stringtable.o
                0x24467ba8                fontList
 .data.leGlobalPalette_data
                0x24467bb4      0x200 build/lcdc_rgba888_mxt_9x60_wvga/debug/_ext/706129189/le_gen_globalpalette.o
                0x24467bb4                leGlobalPalette_data
 .data.fixedPoolDefs
                0x24467db4       0x54 build/lcdc_rgba888_mxt_9x60_wvga/debug/_ext/28088523/legato_memory.o
 .data.paintEvt
                0x24467e08        0x1 build/lcdc_rgba888_mxt_9x60_wvga/debug/_ext/1081070089/legato_renderer.o
 *fill*         0x24467e09        0x3 
 .data.decodeGlyph
                0x24467e0c        0xc build/lcdc_rgba888_mxt_9x60_wvga/debug/_ext/157682245/legato_stringutils.o
                0x24467e0c                decodeGlyph
 .data._moveEvent
                0x24467e18       0x14 build/lcdc_rgba888_mxt_9x60_wvga/debug/_ext/261620856/legato_widget.o
 .data._resizeEvent
                0x24467e2c       0x14 build/lcdc_rgba888_mxt_9x60_wvga/debug/_ext/261620856/legato_widget.o
 .data.gSysTimeTokenCount
                0x24467e40        0x2 build/lcdc_rgba888_mxt_9x60_wvga/debug/_ext/1812361045/sys_time.o
 .data.animate_cable
                0x24467e42        0x1 build/lcdc_rgba888_mxt_9x60_wvga/debug/_ext/1360937237/app.o
                0x24467e42                animate_cable
 *fill*         0x24467e43        0x1 
 .data.j        0x24467e44        0x4 build/lcdc_rgba888_mxt_9x60_wvga/debug/_ext/1360937237/app.o
                0x24467e44                j
 .data.right    0x24467e48        0x1 build/lcdc_rgba888_mxt_9x60_wvga/debug/_ext/1360937237/app.o
                0x24467e48                right
 *fill*         0x24467e49        0x3 
 .data          0x24467e4c       0x20 c:/program files/microchip/xc32/v4.35/bin/bin/../../lib/gcc/pic32c/8.3.1/../../../../pic32c/lib/arm/v5te/nofp\libg-musl.a(stdout.o)
                0x24467e68                _stdout
                0x24467e6c                . = ALIGN (0x4)
                [!provide]                PROVIDE (_efixed = .)
                [!provide]                PROVIDE (__exidx_start = .)

.ARM.exidx      0x24467e6c        0x8
 *(.ARM.exidx* .gnu.linkonce.armexidx.*)
 .ARM.exidx     0x24467e6c        0x8 c:/program files/microchip/xc32/v4.35/bin/bin/../../lib/gcc/pic32c/8.3.1/arm/v5te/nofp\libgcc.a(_udivmoddi4.o)
                [!provide]                PROVIDE (__exidx_end = .)
                0x24467e74                . = ALIGN (0x4)
                0x24467e74                PROVIDE (_etext = .)

.relocate       0x00300000       0x3c load address 0x24467e74
                0x00300000                . = ALIGN (0x4)
                0x00300000                PROVIDE (_srelocate = .)
 *(.vectors .vectors.*)
 .vectors       0x00300000       0x3c build/lcdc_rgba888_mxt_9x60_wvga/debug/_ext/2052985144/cstartup.o
 *(.ramfunc)
                0x0030003c                . = ALIGN (0x4)
                0x0030003c                PROVIDE (_erelocate = .)

.region_cache_aligned_const
                0x24467e74        0xc
                0x24467e80                . = ALIGN (0x20)
 *fill*         0x24467e74        0xc 
 *(.region_cache_aligned_const .region_cache_aligned_const.*)
                0x24467e80                . = ALIGN (0x20)

.region_sram    0x0030003c        0x0
                0x0030003c                . = ALIGN (0x4)
 *(.region_sram .region_sram.*)

.region_ram     0x24467e80        0x0
                0x24467e80                . = ALIGN (0x4)
 *(.region_ram .region_ram.*)

.region_nocache
                0x20000000        0x0
                0x20000000                . = ALIGN (0x4)
 *(.region_nocache .region_nocache.*)

.bss            0x24468000    0x90ac0
                0x24468000                . = ALIGN (0x4)
                0x24468000                PROVIDE (_szero = .)
 *(.bss .bss.*)
 .bss           0x24468000       0x1c c:/program files/microchip/xc32/v4.35/bin/bin/../../lib/gcc/pic32c/8.3.1/arm/v5te/nofp/crtbegin.o
 .bss.activeCanvasID
                0x2446801c        0x4 build/lcdc_rgba888_mxt_9x60_wvga/debug/_ext/1121151461/gfx_canvas.o
 .bss.baseCanvasID
                0x24468020        0x4 build/lcdc_rgba888_mxt_9x60_wvga/debug/_ext/1121151461/gfx_canvas.o
 .bss.canvas    0x24468024      0x138 build/lcdc_rgba888_mxt_9x60_wvga/debug/_ext/1121151461/gfx_canvas.o
                0x24468024                canvas
 .bss.displayHeight
                0x2446815c        0x4 build/lcdc_rgba888_mxt_9x60_wvga/debug/_ext/1121151461/gfx_canvas.o
 .bss.displayWidth
                0x24468160        0x4 build/lcdc_rgba888_mxt_9x60_wvga/debug/_ext/1121151461/gfx_canvas.o
 .bss.effectsTick
                0x24468164        0x4 build/lcdc_rgba888_mxt_9x60_wvga/debug/_ext/1121151461/gfx_canvas.o
 .bss.effectsTimer
                0x24468168        0x4 build/lcdc_rgba888_mxt_9x60_wvga/debug/_ext/1121151461/gfx_canvas.o
 .bss.gfxcState
                0x2446816c        0x1 build/lcdc_rgba888_mxt_9x60_wvga/debug/_ext/1121151461/gfx_canvas.o
 *fill*         0x2446816d        0x3 
 .bss.oldEffectsTick
                0x24468170        0x4 build/lcdc_rgba888_mxt_9x60_wvga/debug/_ext/1121151461/gfx_canvas.o
 .bss._state    0x24468174       0x24 build/lcdc_rgba888_mxt_9x60_wvga/debug/_ext/1618192685/legato_input.o
 .bss._state    0x24468198       0x10 build/lcdc_rgba888_mxt_9x60_wvga/debug/_ext/1618192685/legato_event.o
 .bss._initialized
                0x244681a8        0x4 build/lcdc_rgba888_mxt_9x60_wvga/debug/_ext/1618192685/legato_state.o
                0x244681a8                _initialized
 .bss._state    0x244681ac      0x2ec build/lcdc_rgba888_mxt_9x60_wvga/debug/_ext/1618192685/legato_state.o
 .bss.Screen0_BackgroundPanel
                0x24468498        0x4 build/lcdc_rgba888_mxt_9x60_wvga/debug/_ext/534613472/le_gen_screen_Screen0.o
                0x24468498                Screen0_BackgroundPanel
 .bss.Screen0_ButtonWidget1
                0x2446849c        0x4 build/lcdc_rgba888_mxt_9x60_wvga/debug/_ext/534613472/le_gen_screen_Screen0.o
                0x2446849c                Screen0_ButtonWidget1
 .bss.Screen0_ButtonWidget_minus
                0x244684a0        0x4 build/lcdc_rgba888_mxt_9x60_wvga/debug/_ext/534613472/le_gen_screen_Screen0.o
                0x244684a0                Screen0_ButtonWidget_minus
 .bss.Screen0_ButtonWidget_plus
                0x244684a4        0x4 build/lcdc_rgba888_mxt_9x60_wvga/debug/_ext/534613472/le_gen_screen_Screen0.o
                0x244684a4                Screen0_ButtonWidget_plus
 .bss.Screen0_ButtonWidget_scene1
                0x244684a8        0x4 build/lcdc_rgba888_mxt_9x60_wvga/debug/_ext/534613472/le_gen_screen_Screen0.o
                0x244684a8                Screen0_ButtonWidget_scene1
 .bss.Screen0_ImageSequenceWidget_0
                0x244684ac        0x4 build/lcdc_rgba888_mxt_9x60_wvga/debug/_ext/534613472/le_gen_screen_Screen0.o
                0x244684ac                Screen0_ImageSequenceWidget_0
 .bss.Screen0_ImageWidget1
                0x244684b0        0x4 build/lcdc_rgba888_mxt_9x60_wvga/debug/_ext/534613472/le_gen_screen_Screen0.o
                0x244684b0                Screen0_ImageWidget1
 .bss.Screen0_ImageWidget_2
                0x244684b4        0x4 build/lcdc_rgba888_mxt_9x60_wvga/debug/_ext/534613472/le_gen_screen_Screen0.o
                0x244684b4                Screen0_ImageWidget_2
 .bss.Screen0_ImageWidget_3
                0x244684b8        0x4 build/lcdc_rgba888_mxt_9x60_wvga/debug/_ext/534613472/le_gen_screen_Screen0.o
                0x244684b8                Screen0_ImageWidget_3
 .bss.Screen0_ImageWidget_batteryLevel
                0x244684bc        0x4 build/lcdc_rgba888_mxt_9x60_wvga/debug/_ext/534613472/le_gen_screen_Screen0.o
                0x244684bc                Screen0_ImageWidget_batteryLevel
 .bss.Screen0_ImageWidget_logo_animate
                0x244684c0        0x4 build/lcdc_rgba888_mxt_9x60_wvga/debug/_ext/534613472/le_gen_screen_Screen0.o
                0x244684c0                Screen0_ImageWidget_logo_animate
 .bss.Screen0_LabelWidget_0
                0x244684c4        0x4 build/lcdc_rgba888_mxt_9x60_wvga/debug/_ext/534613472/le_gen_screen_Screen0.o
                0x244684c4                Screen0_LabelWidget_0
 .bss.Screen0_LabelWidget_1
                0x244684c8        0x4 build/lcdc_rgba888_mxt_9x60_wvga/debug/_ext/534613472/le_gen_screen_Screen0.o
                0x244684c8                Screen0_LabelWidget_1
 .bss.Screen0_LabelWidget_10
                0x244684cc        0x4 build/lcdc_rgba888_mxt_9x60_wvga/debug/_ext/534613472/le_gen_screen_Screen0.o
                0x244684cc                Screen0_LabelWidget_10
 .bss.Screen0_LabelWidget_11
                0x244684d0        0x4 build/lcdc_rgba888_mxt_9x60_wvga/debug/_ext/534613472/le_gen_screen_Screen0.o
                0x244684d0                Screen0_LabelWidget_11
 .bss.Screen0_LabelWidget_12
                0x244684d4        0x4 build/lcdc_rgba888_mxt_9x60_wvga/debug/_ext/534613472/le_gen_screen_Screen0.o
                0x244684d4                Screen0_LabelWidget_12
 .bss.Screen0_LabelWidget_13
                0x244684d8        0x4 build/lcdc_rgba888_mxt_9x60_wvga/debug/_ext/534613472/le_gen_screen_Screen0.o
                0x244684d8                Screen0_LabelWidget_13
 .bss.Screen0_LabelWidget_14
                0x244684dc        0x4 build/lcdc_rgba888_mxt_9x60_wvga/debug/_ext/534613472/le_gen_screen_Screen0.o
                0x244684dc                Screen0_LabelWidget_14
 .bss.Screen0_LabelWidget_15
                0x244684e0        0x4 build/lcdc_rgba888_mxt_9x60_wvga/debug/_ext/534613472/le_gen_screen_Screen0.o
                0x244684e0                Screen0_LabelWidget_15
 .bss.Screen0_LabelWidget_2
                0x244684e4        0x4 build/lcdc_rgba888_mxt_9x60_wvga/debug/_ext/534613472/le_gen_screen_Screen0.o
                0x244684e4                Screen0_LabelWidget_2
 .bss.Screen0_LabelWidget_3
                0x244684e8        0x4 build/lcdc_rgba888_mxt_9x60_wvga/debug/_ext/534613472/le_gen_screen_Screen0.o
                0x244684e8                Screen0_LabelWidget_3
 .bss.Screen0_LabelWidget_4
                0x244684ec        0x4 build/lcdc_rgba888_mxt_9x60_wvga/debug/_ext/534613472/le_gen_screen_Screen0.o
                0x244684ec                Screen0_LabelWidget_4
 .bss.Screen0_LabelWidget_5
                0x244684f0        0x4 build/lcdc_rgba888_mxt_9x60_wvga/debug/_ext/534613472/le_gen_screen_Screen0.o
                0x244684f0                Screen0_LabelWidget_5
 .bss.Screen0_LabelWidget_6
                0x244684f4        0x4 build/lcdc_rgba888_mxt_9x60_wvga/debug/_ext/534613472/le_gen_screen_Screen0.o
                0x244684f4                Screen0_LabelWidget_6
 .bss.Screen0_LabelWidget_7
                0x244684f8        0x4 build/lcdc_rgba888_mxt_9x60_wvga/debug/_ext/534613472/le_gen_screen_Screen0.o
                0x244684f8                Screen0_LabelWidget_7
 .bss.Screen0_LabelWidget_8
                0x244684fc        0x4 build/lcdc_rgba888_mxt_9x60_wvga/debug/_ext/534613472/le_gen_screen_Screen0.o
                0x244684fc                Screen0_LabelWidget_8
 .bss.Screen0_LabelWidget_9
                0x24468500        0x4 build/lcdc_rgba888_mxt_9x60_wvga/debug/_ext/534613472/le_gen_screen_Screen0.o
                0x24468500                Screen0_LabelWidget_9
 .bss.Screen0_LabelWidget_percent
                0x24468504        0x4 build/lcdc_rgba888_mxt_9x60_wvga/debug/_ext/534613472/le_gen_screen_Screen0.o
                0x24468504                Screen0_LabelWidget_percent
 .bss.Screen0_LabelWidget_rtime
                0x24468508        0x4 build/lcdc_rgba888_mxt_9x60_wvga/debug/_ext/534613472/le_gen_screen_Screen0.o
                0x24468508                Screen0_LabelWidget_rtime
 .bss.Screen0_LabelWidget_scene0
                0x2446850c        0x4 build/lcdc_rgba888_mxt_9x60_wvga/debug/_ext/534613472/le_gen_screen_Screen0.o
                0x2446850c                Screen0_LabelWidget_scene0
 .bss.Screen0_PanelWidget_0
                0x24468510        0x4 build/lcdc_rgba888_mxt_9x60_wvga/debug/_ext/534613472/le_gen_screen_Screen0.o
                0x24468510                Screen0_PanelWidget_0
 .bss.Screen0_PanelWidget_battery
                0x24468514        0x4 build/lcdc_rgba888_mxt_9x60_wvga/debug/_ext/534613472/le_gen_screen_Screen0.o
                0x24468514                Screen0_PanelWidget_battery
 .bss.Screen0_RectangleWidget_0
                0x24468518        0x4 build/lcdc_rgba888_mxt_9x60_wvga/debug/_ext/534613472/le_gen_screen_Screen0.o
                0x24468518                Screen0_RectangleWidget_0
 .bss.Screen0_RectangleWidget_1
                0x2446851c        0x4 build/lcdc_rgba888_mxt_9x60_wvga/debug/_ext/534613472/le_gen_screen_Screen0.o
                0x2446851c                Screen0_RectangleWidget_1
 .bss.Screen0_RectangleWidget_2
                0x24468520        0x4 build/lcdc_rgba888_mxt_9x60_wvga/debug/_ext/534613472/le_gen_screen_Screen0.o
                0x24468520                Screen0_RectangleWidget_2
 .bss.Screen0_RectangleWidget_3
                0x24468524        0x4 build/lcdc_rgba888_mxt_9x60_wvga/debug/_ext/534613472/le_gen_screen_Screen0.o
                0x24468524                Screen0_RectangleWidget_3
 .bss.Screen0_RectangleWidget_4
                0x24468528        0x4 build/lcdc_rgba888_mxt_9x60_wvga/debug/_ext/534613472/le_gen_screen_Screen0.o
                0x24468528                Screen0_RectangleWidget_4
 .bss.Screen0_RectangleWidget_5
                0x2446852c        0x4 build/lcdc_rgba888_mxt_9x60_wvga/debug/_ext/534613472/le_gen_screen_Screen0.o
                0x2446852c                Screen0_RectangleWidget_5
 .bss.Screen0_RectangleWidget_6
                0x24468530        0x4 build/lcdc_rgba888_mxt_9x60_wvga/debug/_ext/534613472/le_gen_screen_Screen0.o
                0x24468530                Screen0_RectangleWidget_6
 .bss.Screen0_RectangleWidget_7
                0x24468534        0x4 build/lcdc_rgba888_mxt_9x60_wvga/debug/_ext/534613472/le_gen_screen_Screen0.o
                0x24468534                Screen0_RectangleWidget_7
 .bss.Screen0_rtc_label
                0x24468538        0x4 build/lcdc_rgba888_mxt_9x60_wvga/debug/_ext/534613472/le_gen_screen_Screen0.o
                0x24468538                Screen0_rtc_label
 .bss.initialized
                0x2446853c        0x1 build/lcdc_rgba888_mxt_9x60_wvga/debug/_ext/534613472/le_gen_screen_Screen0.o
 *fill*         0x2446853d        0x3 
 .bss.root0     0x24468540        0x4 build/lcdc_rgba888_mxt_9x60_wvga/debug/_ext/534613472/le_gen_screen_Screen0.o
 .bss.root1     0x24468544        0x4 build/lcdc_rgba888_mxt_9x60_wvga/debug/_ext/534613472/le_gen_screen_Screen0.o
 .bss.root2     0x24468548        0x4 build/lcdc_rgba888_mxt_9x60_wvga/debug/_ext/534613472/le_gen_screen_Screen0.o
 .bss.root3     0x2446854c        0x4 build/lcdc_rgba888_mxt_9x60_wvga/debug/_ext/534613472/le_gen_screen_Screen0.o
 .bss.showing   0x24468550        0x1 build/lcdc_rgba888_mxt_9x60_wvga/debug/_ext/534613472/le_gen_screen_Screen0.o
 *fill*         0x24468551        0x3 
 .bss.string_Notice
                0x24468554       0x1c build/lcdc_rgba888_mxt_9x60_wvga/debug/_ext/706129189/le_gen_stringtable.o
                0x24468554                string_Notice
 .bss.string_charge_percent
                0x24468570       0x1c build/lcdc_rgba888_mxt_9x60_wvga/debug/_ext/706129189/le_gen_stringtable.o
                0x24468570                string_charge_percent
 .bss.string_charged_notice
                0x2446858c       0x1c build/lcdc_rgba888_mxt_9x60_wvga/debug/_ext/706129189/le_gen_stringtable.o
                0x2446858c                string_charged_notice
 .bss.string_charging_notice
                0x244685a8       0x1c build/lcdc_rgba888_mxt_9x60_wvga/debug/_ext/706129189/le_gen_stringtable.o
                0x244685a8                string_charging_notice
 .bss.string_ctime
                0x244685c4       0x1c build/lcdc_rgba888_mxt_9x60_wvga/debug/_ext/706129189/le_gen_stringtable.o
                0x244685c4                string_ctime
 .bss.string_ctime_label
                0x244685e0       0x1c build/lcdc_rgba888_mxt_9x60_wvga/debug/_ext/706129189/le_gen_stringtable.o
                0x244685e0                string_ctime_label
 .bss.string_ctime_unit
                0x244685fc       0x1c build/lcdc_rgba888_mxt_9x60_wvga/debug/_ext/706129189/le_gen_stringtable.o
                0x244685fc                string_ctime_unit
 .bss.string_denergy_label
                0x24468618       0x1c build/lcdc_rgba888_mxt_9x60_wvga/debug/_ext/706129189/le_gen_stringtable.o
                0x24468618                string_denergy_label
 .bss.string_energy
                0x24468634       0x1c build/lcdc_rgba888_mxt_9x60_wvga/debug/_ext/706129189/le_gen_stringtable.o
                0x24468634                string_energy
 .bss.string_energy_unit
                0x24468650       0x1c build/lcdc_rgba888_mxt_9x60_wvga/debug/_ext/706129189/le_gen_stringtable.o
                0x24468650                string_energy_unit
 .bss.string_evcharger
                0x2446866c       0x1c build/lcdc_rgba888_mxt_9x60_wvga/debug/_ext/706129189/le_gen_stringtable.o
                0x2446866c                string_evcharger
 .bss.string_op_label
                0x24468688       0x1c build/lcdc_rgba888_mxt_9x60_wvga/debug/_ext/706129189/le_gen_stringtable.o
                0x24468688                string_op_label
 .bss.string_pwr
                0x244686a4       0x1c build/lcdc_rgba888_mxt_9x60_wvga/debug/_ext/706129189/le_gen_stringtable.o
                0x244686a4                string_pwr
 .bss.string_pwr_unit
                0x244686c0       0x1c build/lcdc_rgba888_mxt_9x60_wvga/debug/_ext/706129189/le_gen_stringtable.o
                0x244686c0                string_pwr_unit
 .bss.string_remaining_charge
                0x244686dc       0x1c build/lcdc_rgba888_mxt_9x60_wvga/debug/_ext/706129189/le_gen_stringtable.o
                0x244686dc                string_remaining_charge
 .bss.string_remaining_time
                0x244686f8       0x1c build/lcdc_rgba888_mxt_9x60_wvga/debug/_ext/706129189/le_gen_stringtable.o
                0x244686f8                string_remaining_time
 .bss.string_rtc
                0x24468714       0x1c build/lcdc_rgba888_mxt_9x60_wvga/debug/_ext/706129189/le_gen_stringtable.o
                0x24468714                string_rtc
 .bss.string_rtime
                0x24468730       0x1c build/lcdc_rgba888_mxt_9x60_wvga/debug/_ext/706129189/le_gen_stringtable.o
                0x24468730                string_rtime
 .bss.string_rtime_unit
                0x2446874c       0x1c build/lcdc_rgba888_mxt_9x60_wvga/debug/_ext/706129189/le_gen_stringtable.o
                0x2446874c                string_rtime_unit
 .bss.string_time_label
                0x24468768       0x1c build/lcdc_rgba888_mxt_9x60_wvga/debug/_ext/706129189/le_gen_stringtable.o
                0x24468768                string_time_label
 .bss.changingToScreen
                0x24468784        0x4 build/lcdc_rgba888_mxt_9x60_wvga/debug/_ext/706129189/le_gen_init.o
 .bss.currentScreen
                0x24468788        0x4 build/lcdc_rgba888_mxt_9x60_wvga/debug/_ext/706129189/le_gen_init.o
 .bss.gfxGPUInterface
                0x2446878c       0x1c build/lcdc_rgba888_mxt_9x60_wvga/debug/_ext/706129189/le_gen_harmony.o
 .bss.inputListener
                0x244687a8       0x34 build/lcdc_rgba888_mxt_9x60_wvga/debug/_ext/706129189/le_gen_harmony.o
                0x244687a8                inputListener
 .bss.legatoState
                0x244687dc        0x1 build/lcdc_rgba888_mxt_9x60_wvga/debug/_ext/706129189/le_gen_harmony.o
 *fill*         0x244687dd        0x3 
 .bss.JPEG_JpegDecoder.7409
                0x244687e0      0xa10 build/lcdc_rgba888_mxt_9x60_wvga/debug/_ext/2086705360/legato_imagedecoder_jpeg.o
 .bss.JPEG_JpegDecoder.7426
                0x244691f0      0xa10 build/lcdc_rgba888_mxt_9x60_wvga/debug/_ext/2086705360/legato_imagedecoder_jpeg.o
 .bss.decoder   0x24469c00       0x2c build/lcdc_rgba888_mxt_9x60_wvga/debug/_ext/2086705360/legato_imagedecoder_jpeg.o
 .bss.whblocks.7405
                0x24469c2c        0x2 build/lcdc_rgba888_mxt_9x60_wvga/debug/_ext/2086705360/legato_imagedecoder_jpeg.o
 .bss.whblocks.7422
                0x24469c2e        0x2 build/lcdc_rgba888_mxt_9x60_wvga/debug/_ext/2086705360/legato_imagedecoder_jpeg.o
 .bss.wi.7407   0x24469c30        0x2 build/lcdc_rgba888_mxt_9x60_wvga/debug/_ext/2086705360/legato_imagedecoder_jpeg.o
 .bss.wi.7424   0x24469c32        0x2 build/lcdc_rgba888_mxt_9x60_wvga/debug/_ext/2086705360/legato_imagedecoder_jpeg.o
 .bss.wj.7408   0x24469c34        0x2 build/lcdc_rgba888_mxt_9x60_wvga/debug/_ext/2086705360/legato_imagedecoder_jpeg.o
 .bss.wj.7425   0x24469c36        0x2 build/lcdc_rgba888_mxt_9x60_wvga/debug/_ext/2086705360/legato_imagedecoder_jpeg.o
 .bss.wvblocks.7406
                0x24469c38        0x2 build/lcdc_rgba888_mxt_9x60_wvga/debug/_ext/2086705360/legato_imagedecoder_jpeg.o
 .bss.wvblocks.7423
                0x24469c3a        0x2 build/lcdc_rgba888_mxt_9x60_wvga/debug/_ext/2086705360/legato_imagedecoder_jpeg.o
 .bss.bBlock.5351
                0x24469c3c        0x1 build/lcdc_rgba888_mxt_9x60_wvga/debug/_ext/2086705360/legato_imagedecoder_jpeg_common.o
 *fill*         0x24469c3d        0x3 
 .bss.psCb.5346
                0x24469c40        0x4 build/lcdc_rgba888_mxt_9x60_wvga/debug/_ext/2086705360/legato_imagedecoder_jpeg_common.o
 .bss.psCr.5347
                0x24469c44        0x4 build/lcdc_rgba888_mxt_9x60_wvga/debug/_ext/2086705360/legato_imagedecoder_jpeg_common.o
 .bss.psY.5345  0x24469c48        0x4 build/lcdc_rgba888_mxt_9x60_wvga/debug/_ext/2086705360/legato_imagedecoder_jpeg_common.o
 .bss.s2.5349   0x24469c4c        0x4 build/lcdc_rgba888_mxt_9x60_wvga/debug/_ext/2086705360/legato_imagedecoder_jpeg_common.o
 .bss.s3.5350   0x24469c50        0x4 build/lcdc_rgba888_mxt_9x60_wvga/debug/_ext/2086705360/legato_imagedecoder_jpeg_common.o
 .bss.shiftX.5358
                0x24469c54        0x1 build/lcdc_rgba888_mxt_9x60_wvga/debug/_ext/2086705360/legato_imagedecoder_jpeg_common.o
 .bss.shiftY.5359
                0x24469c55        0x1 build/lcdc_rgba888_mxt_9x60_wvga/debug/_ext/2086705360/legato_imagedecoder_jpeg_common.o
 .bss.wX.5338   0x24469c56        0x2 build/lcdc_rgba888_mxt_9x60_wvga/debug/_ext/2086705360/legato_imagedecoder_jpeg_common.o
 .bss.wX2.5340  0x24469c58        0x2 build/lcdc_rgba888_mxt_9x60_wvga/debug/_ext/2086705360/legato_imagedecoder_jpeg_common.o
 .bss.wXPos.5355
                0x24469c5a        0x2 build/lcdc_rgba888_mxt_9x60_wvga/debug/_ext/2086705360/legato_imagedecoder_jpeg_common.o
 .bss.wY.5339   0x24469c5c        0x2 build/lcdc_rgba888_mxt_9x60_wvga/debug/_ext/2086705360/legato_imagedecoder_jpeg_common.o
 .bss.wYPos.5356
                0x24469c5e        0x2 build/lcdc_rgba888_mxt_9x60_wvga/debug/_ext/2086705360/legato_imagedecoder_jpeg_common.o
 .bss.wYPos2.5357
                0x24469c60        0x2 build/lcdc_rgba888_mxt_9x60_wvga/debug/_ext/2086705360/legato_imagedecoder_jpeg_common.o
 *fill*         0x24469c62       0x1e 
 .bss.internalReadStage
                0x24469c80        0xc build/lcdc_rgba888_mxt_9x60_wvga/debug/_ext/2086794059/legato_imagedecoder_mono_read_internal.o
 *fill*         0x24469c8c       0x14 
 .bss._decoder  0x24469ca0       0x2c build/lcdc_rgba888_mxt_9x60_wvga/debug/_ext/2086794059/legato_imagedecoder_mono.o
 *fill*         0x24469ccc       0x14 
 .bss._state    0x24469ce0       0xc8 build/lcdc_rgba888_mxt_9x60_wvga/debug/_ext/2086794059/legato_imagedecoder_mono.o
 .bss.frameBufferWriteStage
                0x24469da8        0xc build/lcdc_rgba888_mxt_9x60_wvga/debug/_ext/2086794059/legato_imagedecoder_mono.o
 .bss.imageWriteStage
                0x24469db4        0xc build/lcdc_rgba888_mxt_9x60_wvga/debug/_ext/2086794059/legato_imagedecoder_mono.o
 .bss.setupStage
                0x24469dc0        0xc build/lcdc_rgba888_mxt_9x60_wvga/debug/_ext/2086794059/legato_imagedecoder_mono.o
 *fill*         0x24469dcc       0x14 
 .bss.decodedImage
                0x24469de0       0x3c build/lcdc_rgba888_mxt_9x60_wvga/debug/_ext/1872343871/legato_imagedecoder_png.o
 *fill*         0x24469e1c        0x4 
 .bss.decoder   0x24469e20       0x2c build/lcdc_rgba888_mxt_9x60_wvga/debug/_ext/1872343871/legato_imagedecoder_png.o
 *fill*         0x24469e4c       0x14 
 .bss.internalReadStage
                0x24469e60       0x20 build/lcdc_rgba888_mxt_9x60_wvga/debug/_ext/1872342336/legato_imagedecoder_raw_read_internal.o
 .bss.postReadStage
                0x24469e80        0xc build/lcdc_rgba888_mxt_9x60_wvga/debug/_ext/1872342336/legato_imagedecoder_raw_scale.o
 .bss.scaledBilinearPostReadStage
                0x24469e8c        0xc build/lcdc_rgba888_mxt_9x60_wvga/debug/_ext/1872342336/legato_imagedecoder_raw_scale.o
 .bss.scaledBilinearPreReadStage
                0x24469e98       0x1c build/lcdc_rgba888_mxt_9x60_wvga/debug/_ext/1872342336/legato_imagedecoder_raw_scale.o
 .bss.scaledNearestNeighborPreReadStage
                0x24469eb4       0x14 build/lcdc_rgba888_mxt_9x60_wvga/debug/_ext/1872342336/legato_imagedecoder_raw_scale.o
 *fill*         0x24469ec8       0x18 
 .bss._decoder  0x24469ee0       0x2c build/lcdc_rgba888_mxt_9x60_wvga/debug/_ext/1872342336/legato_imagedecoder_raw.o
 *fill*         0x24469f0c       0x14 
 .bss._state    0x24469f20       0xf4 build/lcdc_rgba888_mxt_9x60_wvga/debug/_ext/1872342336/legato_imagedecoder_raw.o
 .bss.lePoint_Zero
                0x2446a014        0x8 build/lcdc_rgba888_mxt_9x60_wvga/debug/_ext/1872342336/legato_imagedecoder_raw_rotate.o
 .bss.rotateBilinearPostReadStage
                0x2446a01c        0xc build/lcdc_rgba888_mxt_9x60_wvga/debug/_ext/1872342336/legato_imagedecoder_raw_rotate.o
 .bss.rotateBilinearPreReadStage
                0x2446a028       0x14 build/lcdc_rgba888_mxt_9x60_wvga/debug/_ext/1872342336/legato_imagedecoder_raw_rotate.o
 .bss.rotateNearestNeighborPreReadStage
                0x2446a03c        0xc build/lcdc_rgba888_mxt_9x60_wvga/debug/_ext/1872342336/legato_imagedecoder_raw_rotate.o
 .bss.maskStage
                0x2446a048        0xc build/lcdc_rgba888_mxt_9x60_wvga/debug/_ext/1872342336/legato_imagedecoder_raw_mask.o
                0x2446a048                maskStage
 .bss.frameBufferWriteStage
                0x2446a054        0xc build/lcdc_rgba888_mxt_9x60_wvga/debug/_ext/1872342336/legato_imagedecoder_raw_write.o
 .bss.imageWriteStage
                0x2446a060        0xc build/lcdc_rgba888_mxt_9x60_wvga/debug/_ext/1872342336/legato_imagedecoder_raw_write.o
 .bss.imageRenderPostLookupStage
                0x2446a06c        0xc build/lcdc_rgba888_mxt_9x60_wvga/debug/_ext/1872342336/legato_imagedecoder_raw_palette_internal.o
 *fill*         0x2446a078        0x8 
 .bss.paletteStage
                0x2446a080       0x14 build/lcdc_rgba888_mxt_9x60_wvga/debug/_ext/1872342336/legato_imagedecoder_raw_palette_internal.o
 .bss.setupStage
                0x2446a094        0xc build/lcdc_rgba888_mxt_9x60_wvga/debug/_ext/1872342336/legato_imagedecoder_raw_setup.o
 .bss.blendStage
                0x2446a0a0        0xc build/lcdc_rgba888_mxt_9x60_wvga/debug/_ext/1872342336/legato_imagedecoder_raw_blend.o
 *fill*         0x2446a0ac       0x14 
 .bss.convertStage
                0x2446a0c0       0x10 build/lcdc_rgba888_mxt_9x60_wvga/debug/_ext/1872342336/legato_imagedecoder_raw_convert.o
 .bss.decoders  0x2446a0d0       0x28 build/lcdc_rgba888_mxt_9x60_wvga/debug/_ext/1381099687/legato_image.o
 *fill*         0x2446a0f8        0x8 
 .bss.fixedHeap128
                0x2446a100     0x1000 build/lcdc_rgba888_mxt_9x60_wvga/debug/_ext/28088523/legato_memory.o
 .bss.fixedHeap16
                0x2446b100     0x12c0 build/lcdc_rgba888_mxt_9x60_wvga/debug/_ext/28088523/legato_memory.o
 .bss.fixedHeap196
                0x2446c3c0     0x24c0 build/lcdc_rgba888_mxt_9x60_wvga/debug/_ext/28088523/legato_memory.o
 .bss.fixedHeap256
                0x2446e880     0x1800 build/lcdc_rgba888_mxt_9x60_wvga/debug/_ext/28088523/legato_memory.o
 .bss.fixedHeap32
                0x24470080      0xc00 build/lcdc_rgba888_mxt_9x60_wvga/debug/_ext/28088523/legato_memory.o
 .bss.fixedHeap64
                0x24470c80     0x1800 build/lcdc_rgba888_mxt_9x60_wvga/debug/_ext/28088523/legato_memory.o
 .bss.fixedHeaps
                0x24472480       0xe0 build/lcdc_rgba888_mxt_9x60_wvga/debug/_ext/28088523/legato_memory.o
 .bss.variableHeap
                0x24472560       0x24 build/lcdc_rgba888_mxt_9x60_wvga/debug/_ext/28088523/legato_memory.o
 *fill*         0x24472584       0x1c 
 .bss.variableHeapData
                0x244725a0    0x40000 build/lcdc_rgba888_mxt_9x60_wvga/debug/_ext/28088523/legato_memory.o
 *fill*         0x244b25a0       0x20 
 .bss._dataBuffers
                0x244b25c0    0x40000 build/lcdc_rgba888_mxt_9x60_wvga/debug/_ext/1081070089/legato_renderer.o
 .bss._rendererState
                0x244f25c0       0x48 build/lcdc_rgba888_mxt_9x60_wvga/debug/_ext/1081070089/legato_renderer.o
                0x244f25c0                _rendererState
 *fill*         0x244f2608       0x18 
 .bss._scratchBuffers
                0x244f2620       0x3c build/lcdc_rgba888_mxt_9x60_wvga/debug/_ext/1081070089/legato_renderer.o
 .bss._state    0x244f265c        0x4 build/lcdc_rgba888_mxt_9x60_wvga/debug/_ext/1081070089/legato_renderer.o
 .bss.maxScratchPixels
                0x244f2660        0x4 build/lcdc_rgba888_mxt_9x60_wvga/debug/_ext/1081070089/legato_renderer.o
 .bss._alphaColorMode
                0x244f2664        0x1 build/lcdc_rgba888_mxt_9x60_wvga/debug/_ext/1081070089/legato_draw.o
 .bss._currentMode
                0x244f2665        0x1 build/lcdc_rgba888_mxt_9x60_wvga/debug/_ext/1081070089/legato_draw.o
 *fill*         0x244f2666        0x2 
 .bss._drawFunction
                0x244f2668       0x10 build/lcdc_rgba888_mxt_9x60_wvga/debug/_ext/1081070089/legato_draw.o
 .bss.paintState
                0x244f2678        0x4 build/lcdc_rgba888_mxt_9x60_wvga/debug/_ext/1339002025/legato_widget_button_skin_classic.o
 .bss.leRect_Zero
                0x244f267c        0x8 build/lcdc_rgba888_mxt_9x60_wvga/debug/_ext/1197524732/legato_widget_image_skin_classic.o
 .bss.paintState
                0x244f2684        0x4 build/lcdc_rgba888_mxt_9x60_wvga/debug/_ext/1197524732/legato_widget_image_skin_classic.o
 .bss.leRect_Zero
                0x244f2688        0x8 build/lcdc_rgba888_mxt_9x60_wvga/debug/_ext/2015859515/legato_widget_imagesequence_skin_classic.o
 .bss.paintState
                0x244f2690        0x4 build/lcdc_rgba888_mxt_9x60_wvga/debug/_ext/2015859515/legato_widget_imagesequence_skin_classic.o
 .bss.leRect_Zero
                0x244f2694        0x8 build/lcdc_rgba888_mxt_9x60_wvga/debug/_ext/1195110755/legato_widget_label_skin_classic.o
 .bss.paintState
                0x244f269c        0x4 build/lcdc_rgba888_mxt_9x60_wvga/debug/_ext/1195110755/legato_widget_label_skin_classic.o
 .bss.paintState
                0x244f26a0        0x4 build/lcdc_rgba888_mxt_9x60_wvga/debug/_ext/337100648/legato_widget_rectangle_skin_classic.o
 .bss.paintState
                0x244f26a4        0x4 build/lcdc_rgba888_mxt_9x60_wvga/debug/_ext/261620856/legato_widget_skin_classic.o
 *fill*         0x244f26a8     0x1958 
 .bss.trns_tbl  0x244f4000     0x4000 build/lcdc_rgba888_mxt_9x60_wvga/debug/_ext/4998521/plib_mmu.o
 .bss.eventCount
                0x244f8000        0x4 build/lcdc_rgba888_mxt_9x60_wvga/debug/_ext/1414187873/sys_input.o
                0x244f8000                eventCount
 .bss.generalEvents
                0x244f8004      0x200 build/lcdc_rgba888_mxt_9x60_wvga/debug/_ext/1414187873/sys_input.o
                0x244f8004                generalEvents
 .bss.listenerFlags
                0x244f8204        0x2 build/lcdc_rgba888_mxt_9x60_wvga/debug/_ext/1414187873/sys_input.o
                0x244f8204                listenerFlags
 *fill*         0x244f8206        0x2 
 .bss.listeners
                0x244f8208       0x68 build/lcdc_rgba888_mxt_9x60_wvga/debug/_ext/1414187873/sys_input.o
                0x244f8208                listeners
 .bss.gSystemCounterObj
                0x244f8270       0x40 build/lcdc_rgba888_mxt_9x60_wvga/debug/_ext/1812361045/sys_time.o
 .bss.timers    0x244f82b0       0xa0 build/lcdc_rgba888_mxt_9x60_wvga/debug/_ext/1812361045/sys_time.o
 .bss.sysObj    0x244f8350        0x4 build/lcdc_rgba888_mxt_9x60_wvga/debug/_ext/2052985144/initialization.o
                0x244f8350                sysObj
 .bss.anim_cnt  0x244f8354        0x1 build/lcdc_rgba888_mxt_9x60_wvga/debug/_ext/1360937237/app.o
 *fill*         0x244f8355        0x3 
 .bss.appData   0x244f8358        0x2 build/lcdc_rgba888_mxt_9x60_wvga/debug/_ext/1360937237/app.o
                0x244f8358                appData
 *fill*         0x244f835a        0x2 
 .bss.app_inputListener
                0x244f835c       0x34 build/lcdc_rgba888_mxt_9x60_wvga/debug/_ext/1360937237/app.o
 .bss.battery_image
                0x244f8390        0x4 build/lcdc_rgba888_mxt_9x60_wvga/debug/_ext/1360937237/app.o
                0x244f8390                battery_image
 .bss.battery_tick
                0x244f8394        0x4 build/lcdc_rgba888_mxt_9x60_wvga/debug/_ext/1360937237/app.o
 .bss.charged_time
                0x244f8398        0x4 build/lcdc_rgba888_mxt_9x60_wvga/debug/_ext/1360937237/app.o
                0x244f8398                charged_time
 .bss.delivered_energy
                0x244f839c        0x4 build/lcdc_rgba888_mxt_9x60_wvga/debug/_ext/1360937237/app.o
                0x244f839c                delivered_energy
 .bss.i         0x244f83a0        0x4 build/lcdc_rgba888_mxt_9x60_wvga/debug/_ext/1360937237/app.o
                0x244f83a0                i
 .bss.imgAnim   0x244f83a4      0x348 build/lcdc_rgba888_mxt_9x60_wvga/debug/_ext/1360937237/app.o
                0x244f83a4                imgAnim
 .bss.p_BatPercentcharbuff
                0x244f86ec        0x4 build/lcdc_rgba888_mxt_9x60_wvga/debug/_ext/1360937237/app.o
 .bss.p_BattPercentage
                0x244f86f0       0x24 build/lcdc_rgba888_mxt_9x60_wvga/debug/_ext/1360937237/app.o
                0x244f86f0                p_BattPercentage
 .bss.p_BattPercentageBuff
                0x244f8714        0x8 build/lcdc_rgba888_mxt_9x60_wvga/debug/_ext/1360937237/app.o
 .bss.p_chargeT
                0x244f871c       0x24 build/lcdc_rgba888_mxt_9x60_wvga/debug/_ext/1360937237/app.o
                0x244f871c                p_chargeT
 .bss.p_chargeTcharbuff
                0x244f8740        0x4 build/lcdc_rgba888_mxt_9x60_wvga/debug/_ext/1360937237/app.o
 .bss.p_deliveredE
                0x244f8744       0x24 build/lcdc_rgba888_mxt_9x60_wvga/debug/_ext/1360937237/app.o
                0x244f8744                p_deliveredE
 .bss.p_deliveredEcharbuff
                0x244f8768        0x4 build/lcdc_rgba888_mxt_9x60_wvga/debug/_ext/1360937237/app.o
 .bss.p_legato_chargeT_Buff
                0x244f876c        0x8 build/lcdc_rgba888_mxt_9x60_wvga/debug/_ext/1360937237/app.o
 .bss.p_legato_deliveredE_Buff
                0x244f8774        0x8 build/lcdc_rgba888_mxt_9x60_wvga/debug/_ext/1360937237/app.o
 .bss.p_legato_percentageBuff
                0x244f877c        0xa build/lcdc_rgba888_mxt_9x60_wvga/debug/_ext/1360937237/app.o
 *fill*         0x244f8786        0x2 
 .bss.p_legato_remainingT_Buff
                0x244f8788        0x8 build/lcdc_rgba888_mxt_9x60_wvga/debug/_ext/1360937237/app.o
 .bss.p_percentage
                0x244f8790       0x24 build/lcdc_rgba888_mxt_9x60_wvga/debug/_ext/1360937237/app.o
                0x244f8790                p_percentage
 .bss.p_percentcharbuff
                0x244f87b4        0x5 build/lcdc_rgba888_mxt_9x60_wvga/debug/_ext/1360937237/app.o
 *fill*         0x244f87b9        0x3 
 .bss.p_remainingT
                0x244f87bc       0x24 build/lcdc_rgba888_mxt_9x60_wvga/debug/_ext/1360937237/app.o
                0x244f87bc                p_remainingT
 .bss.p_remainingtimecharbuff
                0x244f87e0        0x4 build/lcdc_rgba888_mxt_9x60_wvga/debug/_ext/1360937237/app.o
 .bss.p_rtString
                0x244f87e4       0x24 build/lcdc_rgba888_mxt_9x60_wvga/debug/_ext/1360937237/app.o
                0x244f87e4                p_rtString
 .bss.p_rtStringBuff
                0x244f8808       0x10 build/lcdc_rgba888_mxt_9x60_wvga/debug/_ext/1360937237/app.o
 .bss.p_rtStringcharbuff
                0x244f8818        0x8 build/lcdc_rgba888_mxt_9x60_wvga/debug/_ext/1360937237/app.o
 .bss.percent_battery_charge
                0x244f8820        0x1 build/lcdc_rgba888_mxt_9x60_wvga/debug/_ext/1360937237/app.o
                0x244f8820                percent_battery_charge
 *fill*         0x244f8821        0x3 
 .bss.prev_batt_tick
                0x244f8824        0x4 build/lcdc_rgba888_mxt_9x60_wvga/debug/_ext/1360937237/app.o
 .bss.prev_percent_battery_charge
                0x244f8828        0x1 build/lcdc_rgba888_mxt_9x60_wvga/debug/_ext/1360937237/app.o
                0x244f8828                prev_percent_battery_charge
 *fill*         0x244f8829        0x3 
 .bss.prev_tick
                0x244f882c        0x4 build/lcdc_rgba888_mxt_9x60_wvga/debug/_ext/1360937237/app.o
 .bss.remaining_time
                0x244f8830        0x4 build/lcdc_rgba888_mxt_9x60_wvga/debug/_ext/1360937237/app.o
                0x244f8830                remaining_time
 .bss.scene1_FC
                0x244f8834        0x1 build/lcdc_rgba888_mxt_9x60_wvga/debug/_ext/1360937237/app.o
                0x244f8834                scene1_FC
 .bss.screensaver_cnt
                0x244f8835        0x1 build/lcdc_rgba888_mxt_9x60_wvga/debug/_ext/1360937237/app.o
                0x244f8835                screensaver_cnt
 *fill*         0x244f8836        0x2 
 .bss.sec_cntr  0x244f8838        0x4 build/lcdc_rgba888_mxt_9x60_wvga/debug/_ext/1360937237/app.o
                0x244f8838                sec_cntr
 .bss.ssTimer   0x244f883c        0x4 build/lcdc_rgba888_mxt_9x60_wvga/debug/_ext/1360937237/app.o
 .bss.tick      0x244f8840        0x4 build/lcdc_rgba888_mxt_9x60_wvga/debug/_ext/1360937237/app.o
 .bss.tick2Timer
                0x244f8844        0x4 build/lcdc_rgba888_mxt_9x60_wvga/debug/_ext/1360937237/app.o
 .bss.userTouchScreen2
                0x244f8848        0x1 build/lcdc_rgba888_mxt_9x60_wvga/debug/_ext/1360937237/app.o
                0x244f8848                userTouchScreen2
 *fill*         0x244f8849        0x3 
 .bss           0x244f884c       0x50 c:/program files/microchip/xc32/v4.35/bin/bin/../../lib/gcc/pic32c/8.3.1/../../../../pic32c/lib/arm/v5te/nofp\libg-musl.a(libc.o)
                0x244f884c                __progname_full
                0x244f884c                program_invocation_name
                0x244f8850                program_invocation_short_name
                0x244f8850                __progname
                0x244f8854                __sysinfo
                0x244f8858                __hwcap
                0x244f885c                __libc
 *fill*         0x244f889c        0x4 
 .bss           0x244f88a0      0x20c c:/program files/microchip/xc32/v4.35/bin/bin/../../lib/gcc/pic32c/8.3.1/../../../../pic32c/lib/arm/v5te/nofp\libg-musl.a(malloc.o)
 .bss           0x244f8aac        0x8 c:/program files/microchip/xc32/v4.35/bin/bin/../../lib/gcc/pic32c/8.3.1/../../../../pic32c/lib/arm/v5te/nofp\libg-musl.a(stdout.o)
                0x244f8ab0                __stdout_used
 .bss           0x244f8ab4        0x4 c:/program files/microchip/xc32/v4.35/bin/bin/../../lib/gcc/pic32c/8.3.1/../../../../pic32c/lib/arm/v5te/nofp\libg-musl.a(__environ.o)
                0x244f8ab4                __environ
                0x244f8ab4                environ
                0x244f8ab4                ___environ
                0x244f8ab4                _environ
 .bss           0x244f8ab8        0x4 c:/program files/microchip/xc32/v4.35/bin/bin/../../lib/gcc/pic32c/8.3.1/../../../../pic32c/lib/arm/v5te/nofp\libg-musl.a(__errno_location.o)
                0x244f8ab8                __errno_val
 .bss           0x244f8abc        0x4 c:/program files/microchip/xc32/v4.35/bin/bin/../../lib/gcc/pic32c/8.3.1/../../../../pic32c/lib/arm/v5te/nofp\libpic32c.a(sbrk.o)
 *(COMMON)
                0x244f8ac0                . = ALIGN (0x4)
                0x244f8ac0                PROVIDE (_ezero = .)

.region_cache_aligned
                0x244f8ac0        0x0
                0x244f8ac0                . = ALIGN (0x20)
 *(.region_cache_aligned .region_cache_aligned.*)
                0x244f8ac0                . = ALIGN (0x20)

.stacks         0x244f8ac0     0x2140
                0x244f8b20                . = (. + IRQ_STACK_SIZE)
 *fill*         0x244f8ac0       0x60 
                0x244f8b20                . = ALIGN (0x8)
                0x244f8b20                _irqstack = .
                0x244f8b80                . = (. + FIQ_STACK_SIZE)
 *fill*         0x244f8b20       0x60 
                0x244f8b80                . = ALIGN (0x8)
                0x244f8b80                _fiqstack = .
                0x244f8bc0                . = (. + ABT_STACK_SIZE)
 *fill*         0x244f8b80       0x40 
                0x244f8bc0                . = ALIGN (0x8)
                0x244f8bc0                _abtstack = .
                0x244f8c00                . = (. + UND_STACK_SIZE)
 *fill*         0x244f8bc0       0x40 
                0x244f8c00                . = ALIGN (0x8)
                0x244f8c00                _undstack = .
                0x244f9c00                . = (. + SVC_STACK_SIZE)
 *fill*         0x244f8c00     0x1000 
                0x244f9c00                . = ALIGN (0x8)
                0x244f9c00                _svcstack = .
                0x244fac00                . = (. + C_STACK_SIZE)
 *fill*         0x244f9c00     0x1000 
                0x244fac00                . = ALIGN (0x8)
                0x244fac00                _cstack = .
                0x244fac00                _end = .
                0x244fac00                _ramcode_lma = _end

.ramcode        0x0030003c        0x0 load address 0x244fac00
                0x0030003c                _sramcode = .
 *(.ramcode_section .ramcode_section.*)
                0x0030003c                _eramcode = .
                0x244fac00                _ramdata_lma = ((_end + _eramcode) - _sramcode)

.ramdata        0x0030003c        0x0 load address 0x244fac00
                0x0030003c                _sramdata = .
 *(.ramdata_section .ramdata_section.*)
                0x0030003c                _eramdata = .
                0x00000001                __ICD2RAM = 0x1
                0x00000001                __MPLAB_DEBUG = 0x1
                0x00000001                __DEBUG = 0x1
                0x00000200                _min_heap_size = 0x200
START GROUP
LOAD c:/program files/microchip/xc32/v4.35/bin/bin/../../lib/gcc/pic32c/8.3.1/../../../../pic32c/lib/arm/v5te/nofp\libpic32c.a
LOAD c:/program files/microchip/xc32/v4.35/bin/bin/../../lib/gcc/pic32c/8.3.1/arm/v5te/nofp\libgcc.a
LOAD c:/program files/microchip/xc32/v4.35/bin/bin/../../lib/gcc/pic32c/8.3.1/../../../../pic32c/lib/arm/v5te/nofp\libm-musl.a
LOAD c:/program files/microchip/xc32/v4.35/bin/bin/../../lib/gcc/pic32c/8.3.1/../../../../pic32c/lib/arm/v5te/nofp\libg-musl.a
LOAD c:/program files/microchip/xc32/v4.35/bin/bin/../../lib/gcc/pic32c/8.3.1/../../../../pic32c/lib/arm/v5te/nofp\libc-musl.a
LOAD c:/program files/microchip/xc32/v4.35/bin/bin/../../lib/gcc/pic32c/8.3.1/../../../../pic32c/lib/arm/v5te/nofp\libm-musl.a
END GROUP
LOAD c:/program files/microchip/xc32/v4.35/bin/bin/../../lib/gcc/pic32c/8.3.1/arm/v5te/nofp/crtend.o
LOAD c:/program files/microchip/xc32/v4.35/bin/bin/../../lib/gcc/pic32c/8.3.1/arm/v5te/nofp/crtn.o
OUTPUT(dist/lcdc_rgba888_mxt_9x60_wvga/debug/EVC_sam9x60Cur_tm5000.X.debug.elf elf32-littlearm)
LOAD stack

.ARM.attributes
                0x00000000       0x2a
 .ARM.attributes
                0x00000000       0x1d c:/program files/microchip/xc32/v4.35/bin/bin/../../lib/gcc/pic32c/8.3.1/arm/v5te/nofp/crti.o
 .ARM.attributes
                0x0000001d       0x2b c:/program files/microchip/xc32/v4.35/bin/bin/../../lib/gcc/pic32c/8.3.1/arm/v5te/nofp/crtbegin.o
 .ARM.attributes
                0x00000048       0x2c build/lcdc_rgba888_mxt_9x60_wvga/debug/_ext/1121151461/gfx_canvas_api.o
 .ARM.attributes
                0x00000074       0x2c build/lcdc_rgba888_mxt_9x60_wvga/debug/_ext/1121151461/gfx_canvas.o
 .ARM.attributes
                0x000000a0       0x2c build/lcdc_rgba888_mxt_9x60_wvga/debug/_ext/1165331637/gfx_driver.o
 .ARM.attributes
                0x000000cc       0x2c build/lcdc_rgba888_mxt_9x60_wvga/debug/_ext/305146849/legato_pixelbuffer.o
 .ARM.attributes
                0x000000f8       0x2c build/lcdc_rgba888_mxt_9x60_wvga/debug/_ext/305146849/legato_utils.o
 .ARM.attributes
                0x00000124       0x2c build/lcdc_rgba888_mxt_9x60_wvga/debug/_ext/305146849/legato_color_convert.o
 .ARM.attributes
                0x00000150       0x2c build/lcdc_rgba888_mxt_9x60_wvga/debug/_ext/305146849/legato_rect.o
 .ARM.attributes
                0x0000017c       0x2c build/lcdc_rgba888_mxt_9x60_wvga/debug/_ext/305146849/legato_color_lerp.o
 .ARM.attributes
                0x000001a8       0x2c build/lcdc_rgba888_mxt_9x60_wvga/debug/_ext/305146849/legato_math.o
 .ARM.attributes
                0x000001d4       0x2c build/lcdc_rgba888_mxt_9x60_wvga/debug/_ext/305146849/legato_color_blend.o
 .ARM.attributes
                0x00000200       0x2c build/lcdc_rgba888_mxt_9x60_wvga/debug/_ext/305146849/legato_color.o
 .ARM.attributes
                0x0000022c       0x2c build/lcdc_rgba888_mxt_9x60_wvga/debug/_ext/1618192685/legato_scheme.o
 .ARM.attributes
                0x00000258       0x2c build/lcdc_rgba888_mxt_9x60_wvga/debug/_ext/1618192685/legato_input.o
 .ARM.attributes
                0x00000284       0x2c build/lcdc_rgba888_mxt_9x60_wvga/debug/_ext/1618192685/legato_event.o
 .ARM.attributes
                0x000002b0       0x2c build/lcdc_rgba888_mxt_9x60_wvga/debug/_ext/1618192685/legato_state.o
 .ARM.attributes
                0x000002dc       0x2c build/lcdc_rgba888_mxt_9x60_wvga/debug/_ext/109670485/legato_list.o
 .ARM.attributes
                0x00000308       0x2c build/lcdc_rgba888_mxt_9x60_wvga/debug/_ext/109670485/legato_rectarray.o
 .ARM.attributes
                0x00000334       0x2c build/lcdc_rgba888_mxt_9x60_wvga/debug/_ext/109670485/legato_array.o
 .ARM.attributes
                0x00000360       0x2c build/lcdc_rgba888_mxt_9x60_wvga/debug/_ext/1618103421/legato_font.o
 .ARM.attributes
                0x0000038c       0x32 build/lcdc_rgba888_mxt_9x60_wvga/debug/_ext/644506877/le_gen_fonts.o
 .ARM.attributes
                0x000003be       0x32 build/lcdc_rgba888_mxt_9x60_wvga/debug/_ext/1497821479/le_gen_images.o
 .ARM.attributes
                0x000003f0       0x2c build/lcdc_rgba888_mxt_9x60_wvga/debug/_ext/534613472/le_gen_screen_Screen0.o
 .ARM.attributes
                0x0000041c       0x2c build/lcdc_rgba888_mxt_9x60_wvga/debug/_ext/706129189/le_gen_stringtable.o
 .ARM.attributes
                0x00000448       0x2c build/lcdc_rgba888_mxt_9x60_wvga/debug/_ext/706129189/le_gen_init.o
 .ARM.attributes
                0x00000474       0x2c build/lcdc_rgba888_mxt_9x60_wvga/debug/_ext/706129189/le_gen_harmony.o
 .ARM.attributes
                0x000004a0       0x32 build/lcdc_rgba888_mxt_9x60_wvga/debug/_ext/706129189/le_gen_globalpalette.o
 .ARM.attributes
                0x000004d2       0x32 build/lcdc_rgba888_mxt_9x60_wvga/debug/_ext/706129189/le_gen_scheme.o
 .ARM.attributes
                0x00000504       0x2c build/lcdc_rgba888_mxt_9x60_wvga/debug/_ext/2086705360/legato_imagedecoder_jpeg.o
 .ARM.attributes
                0x00000530       0x2c build/lcdc_rgba888_mxt_9x60_wvga/debug/_ext/2086705360/legato_imagedecoder_jpeg_common.o
 .ARM.attributes
                0x0000055c       0x2c build/lcdc_rgba888_mxt_9x60_wvga/debug/_ext/2086705360/jidctint.o
 .ARM.attributes
                0x00000588       0x2c build/lcdc_rgba888_mxt_9x60_wvga/debug/_ext/2086794059/legato_imagedecoder_mono_read_internal.o
 .ARM.attributes
                0x000005b4       0x2c build/lcdc_rgba888_mxt_9x60_wvga/debug/_ext/2086794059/legato_imagedecoder_mono.o
 .ARM.attributes
                0x000005e0       0x2c build/lcdc_rgba888_mxt_9x60_wvga/debug/_ext/1872343871/lodepng.o
 .ARM.attributes
                0x0000060c       0x2c build/lcdc_rgba888_mxt_9x60_wvga/debug/_ext/1872343871/legato_imagedecoder_png.o
 .ARM.attributes
                0x00000638       0x2c build/lcdc_rgba888_mxt_9x60_wvga/debug/_ext/1872342336/legato_imagedecoder_raw_read_internal.o
 .ARM.attributes
                0x00000664       0x2c build/lcdc_rgba888_mxt_9x60_wvga/debug/_ext/1872342336/legato_imagedecoder_raw_scale.o
 .ARM.attributes
                0x00000690       0x2c build/lcdc_rgba888_mxt_9x60_wvga/debug/_ext/1872342336/legato_imagedecoder_raw.o
 .ARM.attributes
                0x000006bc       0x2c build/lcdc_rgba888_mxt_9x60_wvga/debug/_ext/1872342336/legato_imagedecoder_raw_rotate.o
 .ARM.attributes
                0x000006e8       0x2c build/lcdc_rgba888_mxt_9x60_wvga/debug/_ext/1872342336/legato_imagedecoder_raw_mask.o
 .ARM.attributes
                0x00000714       0x2c build/lcdc_rgba888_mxt_9x60_wvga/debug/_ext/1872342336/legato_imagedecoder_raw_write.o
 .ARM.attributes
                0x00000740       0x2c build/lcdc_rgba888_mxt_9x60_wvga/debug/_ext/1872342336/legato_imagedecoder_raw_palette_internal.o
 .ARM.attributes
                0x0000076c       0x2c build/lcdc_rgba888_mxt_9x60_wvga/debug/_ext/1872342336/legato_imagedecoder_raw_setup.o
 .ARM.attributes
                0x00000798       0x2c build/lcdc_rgba888_mxt_9x60_wvga/debug/_ext/1872342336/legato_imagedecoder_raw_blend.o
 .ARM.attributes
                0x000007c4       0x2c build/lcdc_rgba888_mxt_9x60_wvga/debug/_ext/1872342336/legato_imagedecoder_raw_convert.o
 .ARM.attributes
                0x000007f0       0x2c build/lcdc_rgba888_mxt_9x60_wvga/debug/_ext/1381099687/legato_image.o
 .ARM.attributes
                0x0000081c       0x2c build/lcdc_rgba888_mxt_9x60_wvga/debug/_ext/1381099687/legato_image_utils.o
 .ARM.attributes
                0x00000848       0x2c build/lcdc_rgba888_mxt_9x60_wvga/debug/_ext/28088523/legato_fixedheap.o
 .ARM.attributes
                0x00000874       0x2c build/lcdc_rgba888_mxt_9x60_wvga/debug/_ext/28088523/legato_memory.o
 .ARM.attributes
                0x000008a0       0x2c build/lcdc_rgba888_mxt_9x60_wvga/debug/_ext/28088523/legato_variableheap.o
 .ARM.attributes
                0x000008cc       0x2c build/lcdc_rgba888_mxt_9x60_wvga/debug/_ext/1081070089/legato_draw_rect.o
 .ARM.attributes
                0x000008f8       0x2c build/lcdc_rgba888_mxt_9x60_wvga/debug/_ext/1081070089/legato_draw_line.o
 .ARM.attributes
                0x00000924       0x2c build/lcdc_rgba888_mxt_9x60_wvga/debug/_ext/1081070089/legato_draw_arc.o
 .ARM.attributes
                0x00000950       0x2c build/lcdc_rgba888_mxt_9x60_wvga/debug/_ext/1081070089/legato_renderer.o
 .ARM.attributes
                0x0000097c       0x2c build/lcdc_rgba888_mxt_9x60_wvga/debug/_ext/1081070089/legato_draw.o
 .ARM.attributes
                0x000009a8       0x2c build/lcdc_rgba888_mxt_9x60_wvga/debug/_ext/1081070089/legato_gpu.o
 .ARM.attributes
                0x000009d4       0x2c build/lcdc_rgba888_mxt_9x60_wvga/debug/_ext/157682245/legato_stringutils.o
 .ARM.attributes
                0x00000a00       0x2c build/lcdc_rgba888_mxt_9x60_wvga/debug/_ext/157682245/legato_string.o
 .ARM.attributes
                0x00000a2c       0x2c build/lcdc_rgba888_mxt_9x60_wvga/debug/_ext/157682245/legato_tablestring.o
 .ARM.attributes
                0x00000a58       0x2c build/lcdc_rgba888_mxt_9x60_wvga/debug/_ext/157682245/legato_stringtable.o
 .ARM.attributes
                0x00000a84       0x2c build/lcdc_rgba888_mxt_9x60_wvga/debug/_ext/157682245/legato_string_renderer.o
 .ARM.attributes
                0x00000ab0       0x2c build/lcdc_rgba888_mxt_9x60_wvga/debug/_ext/157682245/legato_fixedstring.o
 .ARM.attributes
                0x00000adc       0x2c build/lcdc_rgba888_mxt_9x60_wvga/debug/_ext/1339002025/legato_widget_button.o
 .ARM.attributes
                0x00000b08       0x2c build/lcdc_rgba888_mxt_9x60_wvga/debug/_ext/1339002025/legato_widget_button_skin_classic.o
 .ARM.attributes
                0x00000b34       0x2c build/lcdc_rgba888_mxt_9x60_wvga/debug/_ext/1197524732/legato_widget_image_skin_classic.o
 .ARM.attributes
                0x00000b60       0x2c build/lcdc_rgba888_mxt_9x60_wvga/debug/_ext/1197524732/legato_widget_image.o
 .ARM.attributes
                0x00000b8c       0x2c build/lcdc_rgba888_mxt_9x60_wvga/debug/_ext/2015859515/legato_widget_imagesequence.o
 .ARM.attributes
                0x00000bb8       0x2c build/lcdc_rgba888_mxt_9x60_wvga/debug/_ext/2015859515/legato_widget_imagesequence_skin_classic.o
 .ARM.attributes
                0x00000be4       0x2c build/lcdc_rgba888_mxt_9x60_wvga/debug/_ext/1195110755/legato_widget_label_skin_classic.o
 .ARM.attributes
                0x00000c10       0x2c build/lcdc_rgba888_mxt_9x60_wvga/debug/_ext/1195110755/legato_widget_label.o
 .ARM.attributes
                0x00000c3c       0x2c build/lcdc_rgba888_mxt_9x60_wvga/debug/_ext/337100648/legato_widget_rectangle_skin_classic.o
 .ARM.attributes
                0x00000c68       0x2c build/lcdc_rgba888_mxt_9x60_wvga/debug/_ext/337100648/legato_widget_rectangle.o
 .ARM.attributes
                0x00000c94       0x2c build/lcdc_rgba888_mxt_9x60_wvga/debug/_ext/261620856/legato_widget_skin_classic.o
 .ARM.attributes
                0x00000cc0       0x2c build/lcdc_rgba888_mxt_9x60_wvga/debug/_ext/261620856/legato_widget.o
 .ARM.attributes
                0x00000cec       0x2c build/lcdc_rgba888_mxt_9x60_wvga/debug/_ext/261620856/legato_widget_skin_classic_common.o
 .ARM.attributes
                0x00000d18       0x2c build/lcdc_rgba888_mxt_9x60_wvga/debug/_ext/440801193/gfx_simulator.o
 .ARM.attributes
                0x00000d44       0x2c build/lcdc_rgba888_mxt_9x60_wvga/debug/_ext/4986847/plib_aic.o
 .ARM.attributes
                0x00000d70       0x2c build/lcdc_rgba888_mxt_9x60_wvga/debug/_ext/4988870/plib_clk.o
 .ARM.attributes
                0x00000d9c       0x2c build/lcdc_rgba888_mxt_9x60_wvga/debug/_ext/4998521/plib_mmu.o
 .ARM.attributes
                0x00000dc8       0x2c build/lcdc_rgba888_mxt_9x60_wvga/debug/_ext/5001274/plib_pio.o
 .ARM.attributes
                0x00000df4       0x2c build/lcdc_rgba888_mxt_9x60_wvga/debug/_ext/286729486/xc32_monitor.o
 .ARM.attributes
                0x00000e20       0x2c build/lcdc_rgba888_mxt_9x60_wvga/debug/_ext/1414187873/sys_input.o
 .ARM.attributes
                0x00000e4c       0x2c build/lcdc_rgba888_mxt_9x60_wvga/debug/_ext/1826491803/sys_int.o
 .ARM.attributes
                0x00000e78       0x2c build/lcdc_rgba888_mxt_9x60_wvga/debug/_ext/1812361045/sys_time.o
 .ARM.attributes
                0x00000ea4       0x2c build/lcdc_rgba888_mxt_9x60_wvga/debug/_ext/2052985144/fault_handlers.o
 .ARM.attributes
                0x00000ed0       0x2c build/lcdc_rgba888_mxt_9x60_wvga/debug/_ext/2052985144/tasks.o
 .ARM.attributes
                0x00000efc       0x2c build/lcdc_rgba888_mxt_9x60_wvga/debug/_ext/2052985144/initialization.o
 .ARM.attributes
                0x00000f28       0x1c build/lcdc_rgba888_mxt_9x60_wvga/debug/_ext/2052985144/cstartup.o
 .ARM.attributes
                0x00000f44       0x2c build/lcdc_rgba888_mxt_9x60_wvga/debug/_ext/1360937237/app.o
 .ARM.attributes
                0x00000f70       0x2c build/lcdc_rgba888_mxt_9x60_wvga/debug/_ext/1360937237/main.o
 .ARM.attributes
                0x00000f9c       0x1d c:/program files/microchip/xc32/v4.35/bin/bin/../../lib/gcc/pic32c/8.3.1/arm/v5te/nofp\libgcc.a(_udivsi3.o)
 .ARM.attributes
                0x00000fb9       0x1d c:/program files/microchip/xc32/v4.35/bin/bin/../../lib/gcc/pic32c/8.3.1/arm/v5te/nofp\libgcc.a(_divsi3.o)
 .ARM.attributes
                0x00000fd6       0x1d c:/program files/microchip/xc32/v4.35/bin/bin/../../lib/gcc/pic32c/8.3.1/arm/v5te/nofp\libgcc.a(_dvmd_tls.o)
 .ARM.attributes
                0x00000ff3       0x1d c:/program files/microchip/xc32/v4.35/bin/bin/../../lib/gcc/pic32c/8.3.1/arm/v5te/nofp\libgcc.a(_arm_addsubdf3.o)
 .ARM.attributes
                0x00001010       0x1d c:/program files/microchip/xc32/v4.35/bin/bin/../../lib/gcc/pic32c/8.3.1/arm/v5te/nofp\libgcc.a(_arm_muldivdf3.o)
 .ARM.attributes
                0x0000102d       0x1d c:/program files/microchip/xc32/v4.35/bin/bin/../../lib/gcc/pic32c/8.3.1/arm/v5te/nofp\libgcc.a(_arm_fixunsdfsi.o)
 .ARM.attributes
                0x0000104a       0x1d c:/program files/microchip/xc32/v4.35/bin/bin/../../lib/gcc/pic32c/8.3.1/arm/v5te/nofp\libgcc.a(_arm_addsubsf3.o)
 .ARM.attributes
                0x00001067       0x1d c:/program files/microchip/xc32/v4.35/bin/bin/../../lib/gcc/pic32c/8.3.1/arm/v5te/nofp\libgcc.a(_arm_muldivsf3.o)
 .ARM.attributes
                0x00001084       0x1d c:/program files/microchip/xc32/v4.35/bin/bin/../../lib/gcc/pic32c/8.3.1/arm/v5te/nofp\libgcc.a(_arm_cmpsf2.o)
 .ARM.attributes
                0x000010a1       0x1d c:/program files/microchip/xc32/v4.35/bin/bin/../../lib/gcc/pic32c/8.3.1/arm/v5te/nofp\libgcc.a(_arm_fixsfsi.o)
 .ARM.attributes
                0x000010be       0x1d c:/program files/microchip/xc32/v4.35/bin/bin/../../lib/gcc/pic32c/8.3.1/arm/v5te/nofp\libgcc.a(_arm_fixunssfsi.o)
 .ARM.attributes
                0x000010db       0x1d c:/program files/microchip/xc32/v4.35/bin/bin/../../lib/gcc/pic32c/8.3.1/arm/v5te/nofp\libgcc.a(_aeabi_uldivmod.o)
 .ARM.attributes
                0x000010f8       0x2b c:/program files/microchip/xc32/v4.35/bin/bin/../../lib/gcc/pic32c/8.3.1/arm/v5te/nofp\libgcc.a(_udivmoddi4.o)
 .ARM.attributes
                0x00001123       0x2d c:/program files/microchip/xc32/v4.35/bin/bin/../../lib/gcc/pic32c/8.3.1/../../../../pic32c/lib/arm/v5te/nofp\libg-musl.a(__libc_start_main.o)
 .ARM.attributes
                0x00001150       0x2d c:/program files/microchip/xc32/v4.35/bin/bin/../../lib/gcc/pic32c/8.3.1/../../../../pic32c/lib/arm/v5te/nofp\libg-musl.a(libc.o)
 .ARM.attributes
                0x0000117d       0x2d c:/program files/microchip/xc32/v4.35/bin/bin/../../lib/gcc/pic32c/8.3.1/../../../../pic32c/lib/arm/v5te/nofp\libg-musl.a(malloc.o)
 .ARM.attributes
                0x000011aa       0x2d c:/program files/microchip/xc32/v4.35/bin/bin/../../lib/gcc/pic32c/8.3.1/../../../../pic32c/lib/arm/v5te/nofp\libg-musl.a(expand_heap.o)
 .ARM.attributes
                0x000011d7       0x2d c:/program files/microchip/xc32/v4.35/bin/bin/../../lib/gcc/pic32c/8.3.1/../../../../pic32c/lib/arm/v5te/nofp\libg-musl.a(__sio_sprintf_dnpuxX.o)
 .ARM.attributes
                0x00001204       0x2d c:/program files/microchip/xc32/v4.35/bin/bin/../../lib/gcc/pic32c/8.3.1/../../../../pic32c/lib/arm/v5te/nofp\libg-musl.a(__fmt_d.o)
 .ARM.attributes
                0x00001231       0x2d c:/program files/microchip/xc32/v4.35/bin/bin/../../lib/gcc/pic32c/8.3.1/../../../../pic32c/lib/arm/v5te/nofp\libg-musl.a(__fmt_u.o)
 .ARM.attributes
                0x0000125e       0x2d c:/program files/microchip/xc32/v4.35/bin/bin/../../lib/gcc/pic32c/8.3.1/../../../../pic32c/lib/arm/v5te/nofp\libg-musl.a(__fmt_x.o)
 .ARM.attributes
                0x0000128b       0x2d c:/program files/microchip/xc32/v4.35/bin/bin/../../lib/gcc/pic32c/8.3.1/../../../../pic32c/lib/arm/v5te/nofp\libg-musl.a(__pop_int.o)
 .ARM.attributes
                0x000012b8       0x2d c:/program files/microchip/xc32/v4.35/bin/bin/../../lib/gcc/pic32c/8.3.1/../../../../pic32c/lib/arm/v5te/nofp\libg-musl.a(__pop_ptr.o)
 .ARM.attributes
                0x000012e5       0x2d c:/program files/microchip/xc32/v4.35/bin/bin/../../lib/gcc/pic32c/8.3.1/../../../../pic32c/lib/arm/v5te/nofp\libg-musl.a(__printf_core.o)
 .ARM.attributes
                0x00001312       0x2d c:/program files/microchip/xc32/v4.35/bin/bin/../../lib/gcc/pic32c/8.3.1/../../../../pic32c/lib/arm/v5te/nofp\libg-musl.a(stdout.o)
 .ARM.attributes
                0x0000133f       0x2d c:/program files/microchip/xc32/v4.35/bin/bin/../../lib/gcc/pic32c/8.3.1/../../../../pic32c/lib/arm/v5te/nofp\libg-musl.a(atoi.o)
 .ARM.attributes
                0x0000136c       0x2d c:/program files/microchip/xc32/v4.35/bin/bin/../../lib/gcc/pic32c/8.3.1/../../../../pic32c/lib/arm/v5te/nofp\libg-musl.a(memcpy.o)
 .ARM.attributes
                0x00001399       0x2d c:/program files/microchip/xc32/v4.35/bin/bin/../../lib/gcc/pic32c/8.3.1/../../../../pic32c/lib/arm/v5te/nofp\libg-musl.a(memset.o)
 .ARM.attributes
                0x000013c6       0x2d c:/program files/microchip/xc32/v4.35/bin/bin/../../lib/gcc/pic32c/8.3.1/../../../../pic32c/lib/arm/v5te/nofp\libg-musl.a(strlen.o)
 .ARM.attributes
                0x000013f3       0x2d c:/program files/microchip/xc32/v4.35/bin/bin/../../lib/gcc/pic32c/8.3.1/../../../../pic32c/lib/arm/v5te/nofp\libg-musl.a(tolower.o)
 .ARM.attributes
                0x00001420       0x2d c:/program files/microchip/xc32/v4.35/bin/bin/../../lib/gcc/pic32c/8.3.1/../../../../pic32c/lib/arm/v5te/nofp\libg-musl.a(toupper.o)
 .ARM.attributes
                0x0000144d       0x2d c:/program files/microchip/xc32/v4.35/bin/bin/../../lib/gcc/pic32c/8.3.1/../../../../pic32c/lib/arm/v5te/nofp\libg-musl.a(__environ.o)
 .ARM.attributes
                0x0000147a       0x2d c:/program files/microchip/xc32/v4.35/bin/bin/../../lib/gcc/pic32c/8.3.1/../../../../pic32c/lib/arm/v5te/nofp\libg-musl.a(__errno_location.o)
 .ARM.attributes
                0x000014a7       0x2d c:/program files/microchip/xc32/v4.35/bin/bin/../../lib/gcc/pic32c/8.3.1/../../../../pic32c/lib/arm/v5te/nofp\libg-musl.a(__int_vfprintf.o)
 .ARM.attributes
                0x000014d4       0x2d c:/program files/microchip/xc32/v4.35/bin/bin/../../lib/gcc/pic32c/8.3.1/../../../../pic32c/lib/arm/v5te/nofp\libg-musl.a(__int_vsprintf.o)
 .ARM.attributes
                0x00001501       0x2d c:/program files/microchip/xc32/v4.35/bin/bin/../../lib/gcc/pic32c/8.3.1/../../../../pic32c/lib/arm/v5te/nofp\libg-musl.a(__cvt_u.o)
 .ARM.attributes
                0x0000152e       0x2d c:/program files/microchip/xc32/v4.35/bin/bin/../../lib/gcc/pic32c/8.3.1/../../../../pic32c/lib/arm/v5te/nofp\libg-musl.a(__pop_float.o)
 .ARM.attributes
                0x0000155b       0x2d c:/program files/microchip/xc32/v4.35/bin/bin/../../lib/gcc/pic32c/8.3.1/../../../../pic32c/lib/arm/v5te/nofp\libg-musl.a(fwrite.o)
 .ARM.attributes
                0x00001588       0x2d c:/program files/microchip/xc32/v4.35/bin/bin/../../lib/gcc/pic32c/8.3.1/../../../../pic32c/lib/arm/v5te/nofp\libg-musl.a(__int_vsnprintf.o)
 .ARM.attributes
                0x000015b5       0x2d c:/program files/microchip/xc32/v4.35/bin/bin/../../lib/gcc/pic32c/8.3.1/../../../../pic32c/lib/arm/v5te/nofp\libg-musl.a(__init_stdio.o)
 .ARM.attributes
                0x000015e2       0x2d c:/program files/microchip/xc32/v4.35/bin/bin/../../lib/gcc/pic32c/8.3.1/../../../../pic32c/lib/arm/v5te/nofp\libg-musl.a(__out.o)
 .ARM.attributes
                0x0000160f       0x2b c:/program files/microchip/xc32/v4.35/bin/bin/../../lib/gcc/pic32c/8.3.1/../../../../pic32c/lib/arm/v5te/nofp\libpic32c.a(sbrk.o)
 .ARM.attributes
                0x0000163a       0x1d c:/program files/microchip/xc32/v4.35/bin/bin/../../lib/gcc/pic32c/8.3.1/arm/v5te/nofp/crtn.o

.comment        0x00000000       0x2b
 .comment       0x00000000       0x2b c:/program files/microchip/xc32/v4.35/bin/bin/../../lib/gcc/pic32c/8.3.1/arm/v5te/nofp/crtbegin.o
                                 0x2c (size before relaxing)
 .comment       0x0000002b       0x2c build/lcdc_rgba888_mxt_9x60_wvga/debug/_ext/1121151461/gfx_canvas_api.o
 .comment       0x0000002b       0x2c build/lcdc_rgba888_mxt_9x60_wvga/debug/_ext/1121151461/gfx_canvas.o
 .comment       0x0000002b       0x2c build/lcdc_rgba888_mxt_9x60_wvga/debug/_ext/1165331637/gfx_driver.o
 .comment       0x0000002b       0x2c build/lcdc_rgba888_mxt_9x60_wvga/debug/_ext/305146849/legato_pixelbuffer.o
 .comment       0x0000002b       0x2c build/lcdc_rgba888_mxt_9x60_wvga/debug/_ext/305146849/legato_utils.o
 .comment       0x0000002b       0x2c build/lcdc_rgba888_mxt_9x60_wvga/debug/_ext/305146849/legato_color_convert.o
 .comment       0x0000002b       0x2c build/lcdc_rgba888_mxt_9x60_wvga/debug/_ext/305146849/legato_rect.o
 .comment       0x0000002b       0x2c build/lcdc_rgba888_mxt_9x60_wvga/debug/_ext/305146849/legato_color_lerp.o
 .comment       0x0000002b       0x2c build/lcdc_rgba888_mxt_9x60_wvga/debug/_ext/305146849/legato_math.o
 .comment       0x0000002b       0x2c build/lcdc_rgba888_mxt_9x60_wvga/debug/_ext/305146849/legato_color_blend.o
 .comment       0x0000002b       0x2c build/lcdc_rgba888_mxt_9x60_wvga/debug/_ext/305146849/legato_color.o
 .comment       0x0000002b       0x2c build/lcdc_rgba888_mxt_9x60_wvga/debug/_ext/1618192685/legato_scheme.o
 .comment       0x0000002b       0x2c build/lcdc_rgba888_mxt_9x60_wvga/debug/_ext/1618192685/legato_input.o
 .comment       0x0000002b       0x2c build/lcdc_rgba888_mxt_9x60_wvga/debug/_ext/1618192685/legato_event.o
 .comment       0x0000002b       0x2c build/lcdc_rgba888_mxt_9x60_wvga/debug/_ext/1618192685/legato_state.o
 .comment       0x0000002b       0x2c build/lcdc_rgba888_mxt_9x60_wvga/debug/_ext/109670485/legato_list.o
 .comment       0x0000002b       0x2c build/lcdc_rgba888_mxt_9x60_wvga/debug/_ext/109670485/legato_rectarray.o
 .comment       0x0000002b       0x2c build/lcdc_rgba888_mxt_9x60_wvga/debug/_ext/109670485/legato_array.o
 .comment       0x0000002b       0x2c build/lcdc_rgba888_mxt_9x60_wvga/debug/_ext/1618103421/legato_font.o
 .comment       0x0000002b       0x2c build/lcdc_rgba888_mxt_9x60_wvga/debug/_ext/644506877/le_gen_fonts.o
 .comment       0x0000002b       0x2c build/lcdc_rgba888_mxt_9x60_wvga/debug/_ext/1497821479/le_gen_images.o
 .comment       0x0000002b       0x2c build/lcdc_rgba888_mxt_9x60_wvga/debug/_ext/534613472/le_gen_screen_Screen0.o
 .comment       0x0000002b       0x2c build/lcdc_rgba888_mxt_9x60_wvga/debug/_ext/706129189/le_gen_stringtable.o
 .comment       0x0000002b       0x2c build/lcdc_rgba888_mxt_9x60_wvga/debug/_ext/706129189/le_gen_init.o
 .comment       0x0000002b       0x2c build/lcdc_rgba888_mxt_9x60_wvga/debug/_ext/706129189/le_gen_harmony.o
 .comment       0x0000002b       0x2c build/lcdc_rgba888_mxt_9x60_wvga/debug/_ext/706129189/le_gen_globalpalette.o
 .comment       0x0000002b       0x2c build/lcdc_rgba888_mxt_9x60_wvga/debug/_ext/706129189/le_gen_scheme.o
 .comment       0x0000002b       0x2c build/lcdc_rgba888_mxt_9x60_wvga/debug/_ext/2086705360/legato_imagedecoder_jpeg.o
 .comment       0x0000002b       0x2c build/lcdc_rgba888_mxt_9x60_wvga/debug/_ext/2086705360/legato_imagedecoder_jpeg_common.o
 .comment       0x0000002b       0x2c build/lcdc_rgba888_mxt_9x60_wvga/debug/_ext/2086705360/jidctint.o
 .comment       0x0000002b       0x2c build/lcdc_rgba888_mxt_9x60_wvga/debug/_ext/2086794059/legato_imagedecoder_mono_read_internal.o
 .comment       0x0000002b       0x2c build/lcdc_rgba888_mxt_9x60_wvga/debug/_ext/2086794059/legato_imagedecoder_mono.o
 .comment       0x0000002b       0x2c build/lcdc_rgba888_mxt_9x60_wvga/debug/_ext/1872343871/lodepng.o
 .comment       0x0000002b       0x2c build/lcdc_rgba888_mxt_9x60_wvga/debug/_ext/1872343871/legato_imagedecoder_png.o
 .comment       0x0000002b       0x2c build/lcdc_rgba888_mxt_9x60_wvga/debug/_ext/1872342336/legato_imagedecoder_raw_read_internal.o
 .comment       0x0000002b       0x2c build/lcdc_rgba888_mxt_9x60_wvga/debug/_ext/1872342336/legato_imagedecoder_raw_scale.o
 .comment       0x0000002b       0x2c build/lcdc_rgba888_mxt_9x60_wvga/debug/_ext/1872342336/legato_imagedecoder_raw.o
 .comment       0x0000002b       0x2c build/lcdc_rgba888_mxt_9x60_wvga/debug/_ext/1872342336/legato_imagedecoder_raw_rotate.o
 .comment       0x0000002b       0x2c build/lcdc_rgba888_mxt_9x60_wvga/debug/_ext/1872342336/legato_imagedecoder_raw_mask.o
 .comment       0x0000002b       0x2c build/lcdc_rgba888_mxt_9x60_wvga/debug/_ext/1872342336/legato_imagedecoder_raw_write.o
 .comment       0x0000002b       0x2c build/lcdc_rgba888_mxt_9x60_wvga/debug/_ext/1872342336/legato_imagedecoder_raw_palette_internal.o
 .comment       0x0000002b       0x2c build/lcdc_rgba888_mxt_9x60_wvga/debug/_ext/1872342336/legato_imagedecoder_raw_setup.o
 .comment       0x0000002b       0x2c build/lcdc_rgba888_mxt_9x60_wvga/debug/_ext/1872342336/legato_imagedecoder_raw_blend.o
 .comment       0x0000002b       0x2c build/lcdc_rgba888_mxt_9x60_wvga/debug/_ext/1872342336/legato_imagedecoder_raw_convert.o
 .comment       0x0000002b       0x2c build/lcdc_rgba888_mxt_9x60_wvga/debug/_ext/1381099687/legato_image.o
 .comment       0x0000002b       0x2c build/lcdc_rgba888_mxt_9x60_wvga/debug/_ext/1381099687/legato_image_utils.o
 .comment       0x0000002b       0x2c build/lcdc_rgba888_mxt_9x60_wvga/debug/_ext/28088523/legato_fixedheap.o
 .comment       0x0000002b       0x2c build/lcdc_rgba888_mxt_9x60_wvga/debug/_ext/28088523/legato_memory.o
 .comment       0x0000002b       0x2c build/lcdc_rgba888_mxt_9x60_wvga/debug/_ext/28088523/legato_variableheap.o
 .comment       0x0000002b       0x2c build/lcdc_rgba888_mxt_9x60_wvga/debug/_ext/1081070089/legato_draw_rect.o
 .comment       0x0000002b       0x2c build/lcdc_rgba888_mxt_9x60_wvga/debug/_ext/1081070089/legato_draw_line.o
 .comment       0x0000002b       0x2c build/lcdc_rgba888_mxt_9x60_wvga/debug/_ext/1081070089/legato_draw_arc.o
 .comment       0x0000002b       0x2c build/lcdc_rgba888_mxt_9x60_wvga/debug/_ext/1081070089/legato_renderer.o
 .comment       0x0000002b       0x2c build/lcdc_rgba888_mxt_9x60_wvga/debug/_ext/1081070089/legato_draw.o
 .comment       0x0000002b       0x2c build/lcdc_rgba888_mxt_9x60_wvga/debug/_ext/1081070089/legato_gpu.o
 .comment       0x0000002b       0x2c build/lcdc_rgba888_mxt_9x60_wvga/debug/_ext/157682245/legato_stringutils.o
 .comment       0x0000002b       0x2c build/lcdc_rgba888_mxt_9x60_wvga/debug/_ext/157682245/legato_string.o
 .comment       0x0000002b       0x2c build/lcdc_rgba888_mxt_9x60_wvga/debug/_ext/157682245/legato_tablestring.o
 .comment       0x0000002b       0x2c build/lcdc_rgba888_mxt_9x60_wvga/debug/_ext/157682245/legato_stringtable.o
 .comment       0x0000002b       0x2c build/lcdc_rgba888_mxt_9x60_wvga/debug/_ext/157682245/legato_string_renderer.o
 .comment       0x0000002b       0x2c build/lcdc_rgba888_mxt_9x60_wvga/debug/_ext/157682245/legato_fixedstring.o
 .comment       0x0000002b       0x2c build/lcdc_rgba888_mxt_9x60_wvga/debug/_ext/1339002025/legato_widget_button.o
 .comment       0x0000002b       0x2c build/lcdc_rgba888_mxt_9x60_wvga/debug/_ext/1339002025/legato_widget_button_skin_classic.o
 .comment       0x0000002b       0x2c build/lcdc_rgba888_mxt_9x60_wvga/debug/_ext/1197524732/legato_widget_image_skin_classic.o
 .comment       0x0000002b       0x2c build/lcdc_rgba888_mxt_9x60_wvga/debug/_ext/1197524732/legato_widget_image.o
 .comment       0x0000002b       0x2c build/lcdc_rgba888_mxt_9x60_wvga/debug/_ext/2015859515/legato_widget_imagesequence.o
 .comment       0x0000002b       0x2c build/lcdc_rgba888_mxt_9x60_wvga/debug/_ext/2015859515/legato_widget_imagesequence_skin_classic.o
 .comment       0x0000002b       0x2c build/lcdc_rgba888_mxt_9x60_wvga/debug/_ext/1195110755/legato_widget_label_skin_classic.o
 .comment       0x0000002b       0x2c build/lcdc_rgba888_mxt_9x60_wvga/debug/_ext/1195110755/legato_widget_label.o
 .comment       0x0000002b       0x2c build/lcdc_rgba888_mxt_9x60_wvga/debug/_ext/337100648/legato_widget_rectangle_skin_classic.o
 .comment       0x0000002b       0x2c build/lcdc_rgba888_mxt_9x60_wvga/debug/_ext/337100648/legato_widget_rectangle.o
 .comment       0x0000002b       0x2c build/lcdc_rgba888_mxt_9x60_wvga/debug/_ext/261620856/legato_widget_skin_classic.o
 .comment       0x0000002b       0x2c build/lcdc_rgba888_mxt_9x60_wvga/debug/_ext/261620856/legato_widget.o
 .comment       0x0000002b       0x2c build/lcdc_rgba888_mxt_9x60_wvga/debug/_ext/261620856/legato_widget_skin_classic_common.o
 .comment       0x0000002b       0x2c build/lcdc_rgba888_mxt_9x60_wvga/debug/_ext/440801193/gfx_simulator.o
 .comment       0x0000002b       0x2c build/lcdc_rgba888_mxt_9x60_wvga/debug/_ext/4986847/plib_aic.o
 .comment       0x0000002b       0x2c build/lcdc_rgba888_mxt_9x60_wvga/debug/_ext/4988870/plib_clk.o
 .comment       0x0000002b       0x2c build/lcdc_rgba888_mxt_9x60_wvga/debug/_ext/4998521/plib_mmu.o
 .comment       0x0000002b       0x2c build/lcdc_rgba888_mxt_9x60_wvga/debug/_ext/5001274/plib_pio.o
 .comment       0x0000002b       0x2c build/lcdc_rgba888_mxt_9x60_wvga/debug/_ext/286729486/xc32_monitor.o
 .comment       0x0000002b       0x2c build/lcdc_rgba888_mxt_9x60_wvga/debug/_ext/1414187873/sys_input.o
 .comment       0x0000002b       0x2c build/lcdc_rgba888_mxt_9x60_wvga/debug/_ext/1826491803/sys_int.o
 .comment       0x0000002b       0x2c build/lcdc_rgba888_mxt_9x60_wvga/debug/_ext/1812361045/sys_time.o
 .comment       0x0000002b       0x2c build/lcdc_rgba888_mxt_9x60_wvga/debug/_ext/2052985144/fault_handlers.o
 .comment       0x0000002b       0x2c build/lcdc_rgba888_mxt_9x60_wvga/debug/_ext/2052985144/tasks.o
 .comment       0x0000002b       0x2c build/lcdc_rgba888_mxt_9x60_wvga/debug/_ext/2052985144/initialization.o
 .comment       0x0000002b       0x2c build/lcdc_rgba888_mxt_9x60_wvga/debug/_ext/1360937237/app.o
 .comment       0x0000002b       0x2c build/lcdc_rgba888_mxt_9x60_wvga/debug/_ext/1360937237/main.o
 .comment       0x0000002b       0x2c c:/program files/microchip/xc32/v4.35/bin/bin/../../lib/gcc/pic32c/8.3.1/arm/v5te/nofp\libgcc.a(_udivmoddi4.o)
 .comment       0x0000002b       0x2c c:/program files/microchip/xc32/v4.35/bin/bin/../../lib/gcc/pic32c/8.3.1/../../../../pic32c/lib/arm/v5te/nofp\libg-musl.a(__libc_start_main.o)
 .comment       0x0000002b       0x2c c:/program files/microchip/xc32/v4.35/bin/bin/../../lib/gcc/pic32c/8.3.1/../../../../pic32c/lib/arm/v5te/nofp\libg-musl.a(libc.o)
 .comment       0x0000002b       0x2c c:/program files/microchip/xc32/v4.35/bin/bin/../../lib/gcc/pic32c/8.3.1/../../../../pic32c/lib/arm/v5te/nofp\libg-musl.a(malloc.o)
 .comment       0x0000002b       0x2c c:/program files/microchip/xc32/v4.35/bin/bin/../../lib/gcc/pic32c/8.3.1/../../../../pic32c/lib/arm/v5te/nofp\libg-musl.a(expand_heap.o)
 .comment       0x0000002b       0x2c c:/program files/microchip/xc32/v4.35/bin/bin/../../lib/gcc/pic32c/8.3.1/../../../../pic32c/lib/arm/v5te/nofp\libg-musl.a(__sio_sprintf_dnpuxX.o)
 .comment       0x0000002b       0x2c c:/program files/microchip/xc32/v4.35/bin/bin/../../lib/gcc/pic32c/8.3.1/../../../../pic32c/lib/arm/v5te/nofp\libg-musl.a(__fmt_d.o)
 .comment       0x0000002b       0x2c c:/program files/microchip/xc32/v4.35/bin/bin/../../lib/gcc/pic32c/8.3.1/../../../../pic32c/lib/arm/v5te/nofp\libg-musl.a(__fmt_u.o)
 .comment       0x0000002b       0x2c c:/program files/microchip/xc32/v4.35/bin/bin/../../lib/gcc/pic32c/8.3.1/../../../../pic32c/lib/arm/v5te/nofp\libg-musl.a(__fmt_x.o)
 .comment       0x0000002b       0x2c c:/program files/microchip/xc32/v4.35/bin/bin/../../lib/gcc/pic32c/8.3.1/../../../../pic32c/lib/arm/v5te/nofp\libg-musl.a(__pop_int.o)
 .comment       0x0000002b       0x2c c:/program files/microchip/xc32/v4.35/bin/bin/../../lib/gcc/pic32c/8.3.1/../../../../pic32c/lib/arm/v5te/nofp\libg-musl.a(__pop_ptr.o)
 .comment       0x0000002b       0x2c c:/program files/microchip/xc32/v4.35/bin/bin/../../lib/gcc/pic32c/8.3.1/../../../../pic32c/lib/arm/v5te/nofp\libg-musl.a(__printf_core.o)
 .comment       0x0000002b       0x2c c:/program files/microchip/xc32/v4.35/bin/bin/../../lib/gcc/pic32c/8.3.1/../../../../pic32c/lib/arm/v5te/nofp\libg-musl.a(stdout.o)
 .comment       0x0000002b       0x2c c:/program files/microchip/xc32/v4.35/bin/bin/../../lib/gcc/pic32c/8.3.1/../../../../pic32c/lib/arm/v5te/nofp\libg-musl.a(atoi.o)
 .comment       0x0000002b       0x2c c:/program files/microchip/xc32/v4.35/bin/bin/../../lib/gcc/pic32c/8.3.1/../../../../pic32c/lib/arm/v5te/nofp\libg-musl.a(memcpy.o)
 .comment       0x0000002b       0x2c c:/program files/microchip/xc32/v4.35/bin/bin/../../lib/gcc/pic32c/8.3.1/../../../../pic32c/lib/arm/v5te/nofp\libg-musl.a(memset.o)
 .comment       0x0000002b       0x2c c:/program files/microchip/xc32/v4.35/bin/bin/../../lib/gcc/pic32c/8.3.1/../../../../pic32c/lib/arm/v5te/nofp\libg-musl.a(strlen.o)
 .comment       0x0000002b       0x2c c:/program files/microchip/xc32/v4.35/bin/bin/../../lib/gcc/pic32c/8.3.1/../../../../pic32c/lib/arm/v5te/nofp\libg-musl.a(tolower.o)
 .comment       0x0000002b       0x2c c:/program files/microchip/xc32/v4.35/bin/bin/../../lib/gcc/pic32c/8.3.1/../../../../pic32c/lib/arm/v5te/nofp\libg-musl.a(toupper.o)
 .comment       0x0000002b       0x2c c:/program files/microchip/xc32/v4.35/bin/bin/../../lib/gcc/pic32c/8.3.1/../../../../pic32c/lib/arm/v5te/nofp\libg-musl.a(__environ.o)
 .comment       0x0000002b       0x2c c:/program files/microchip/xc32/v4.35/bin/bin/../../lib/gcc/pic32c/8.3.1/../../../../pic32c/lib/arm/v5te/nofp\libg-musl.a(__errno_location.o)
 .comment       0x0000002b       0x2c c:/program files/microchip/xc32/v4.35/bin/bin/../../lib/gcc/pic32c/8.3.1/../../../../pic32c/lib/arm/v5te/nofp\libg-musl.a(__int_vfprintf.o)
 .comment       0x0000002b       0x2c c:/program files/microchip/xc32/v4.35/bin/bin/../../lib/gcc/pic32c/8.3.1/../../../../pic32c/lib/arm/v5te/nofp\libg-musl.a(__int_vsprintf.o)
 .comment       0x0000002b       0x2c c:/program files/microchip/xc32/v4.35/bin/bin/../../lib/gcc/pic32c/8.3.1/../../../../pic32c/lib/arm/v5te/nofp\libg-musl.a(__cvt_u.o)
 .comment       0x0000002b       0x2c c:/program files/microchip/xc32/v4.35/bin/bin/../../lib/gcc/pic32c/8.3.1/../../../../pic32c/lib/arm/v5te/nofp\libg-musl.a(__pop_float.o)
 .comment       0x0000002b       0x2c c:/program files/microchip/xc32/v4.35/bin/bin/../../lib/gcc/pic32c/8.3.1/../../../../pic32c/lib/arm/v5te/nofp\libg-musl.a(fwrite.o)
 .comment       0x0000002b       0x2c c:/program files/microchip/xc32/v4.35/bin/bin/../../lib/gcc/pic32c/8.3.1/../../../../pic32c/lib/arm/v5te/nofp\libg-musl.a(__int_vsnprintf.o)
 .comment       0x0000002b       0x2c c:/program files/microchip/xc32/v4.35/bin/bin/../../lib/gcc/pic32c/8.3.1/../../../../pic32c/lib/arm/v5te/nofp\libg-musl.a(__init_stdio.o)
 .comment       0x0000002b       0x2c c:/program files/microchip/xc32/v4.35/bin/bin/../../lib/gcc/pic32c/8.3.1/../../../../pic32c/lib/arm/v5te/nofp\libg-musl.a(__out.o)
 .comment       0x0000002b       0x2c c:/program files/microchip/xc32/v4.35/bin/bin/../../lib/gcc/pic32c/8.3.1/../../../../pic32c/lib/arm/v5te/nofp\libpic32c.a(sbrk.o)

.debug_info     0x00000000    0xc7516
 .debug_info    0x00000000     0x1865 build/lcdc_rgba888_mxt_9x60_wvga/debug/_ext/1121151461/gfx_canvas_api.o
 .debug_info    0x00001865     0x2b60 build/lcdc_rgba888_mxt_9x60_wvga/debug/_ext/1121151461/gfx_canvas.o
 .debug_info    0x000043c5     0x2c9f build/lcdc_rgba888_mxt_9x60_wvga/debug/_ext/1165331637/gfx_driver.o
 .debug_info    0x00007064     0x193f build/lcdc_rgba888_mxt_9x60_wvga/debug/_ext/305146849/legato_pixelbuffer.o
 .debug_info    0x000089a3     0x316b build/lcdc_rgba888_mxt_9x60_wvga/debug/_ext/305146849/legato_utils.o
 .debug_info    0x0000bb0e     0x203c build/lcdc_rgba888_mxt_9x60_wvga/debug/_ext/305146849/legato_color_convert.o
 .debug_info    0x0000db4a      0xa4c build/lcdc_rgba888_mxt_9x60_wvga/debug/_ext/305146849/legato_rect.o
 .debug_info    0x0000e596      0xfad build/lcdc_rgba888_mxt_9x60_wvga/debug/_ext/305146849/legato_color_lerp.o
 .debug_info    0x0000f543     0x19a8 build/lcdc_rgba888_mxt_9x60_wvga/debug/_ext/305146849/legato_math.o
 .debug_info    0x00010eeb      0x8aa build/lcdc_rgba888_mxt_9x60_wvga/debug/_ext/305146849/legato_color_blend.o
 .debug_info    0x00011795      0xa45 build/lcdc_rgba888_mxt_9x60_wvga/debug/_ext/305146849/legato_color.o
 .debug_info    0x000121da     0x1402 build/lcdc_rgba888_mxt_9x60_wvga/debug/_ext/1618192685/legato_scheme.o
 .debug_info    0x000135dc     0x4498 build/lcdc_rgba888_mxt_9x60_wvga/debug/_ext/1618192685/legato_input.o
 .debug_info    0x00017a74     0x2371 build/lcdc_rgba888_mxt_9x60_wvga/debug/_ext/1618192685/legato_event.o
 .debug_info    0x00019de5     0x51fd build/lcdc_rgba888_mxt_9x60_wvga/debug/_ext/1618192685/legato_state.o
 .debug_info    0x0001efe2      0xc36 build/lcdc_rgba888_mxt_9x60_wvga/debug/_ext/109670485/legato_list.o
 .debug_info    0x0001fc18     0x1471 build/lcdc_rgba888_mxt_9x60_wvga/debug/_ext/109670485/legato_rectarray.o
 .debug_info    0x00021089      0xb7a build/lcdc_rgba888_mxt_9x60_wvga/debug/_ext/109670485/legato_array.o
 .debug_info    0x00021c03     0x216b build/lcdc_rgba888_mxt_9x60_wvga/debug/_ext/1618103421/legato_font.o
 .debug_info    0x00023d6e     0x1015 build/lcdc_rgba888_mxt_9x60_wvga/debug/_ext/644506877/le_gen_fonts.o
 .debug_info    0x00024d83     0x1a26 build/lcdc_rgba888_mxt_9x60_wvga/debug/_ext/1497821479/le_gen_images.o
 .debug_info    0x000267a9     0x8a18 build/lcdc_rgba888_mxt_9x60_wvga/debug/_ext/534613472/le_gen_screen_Screen0.o
 .debug_info    0x0002f1c1     0x20a9 build/lcdc_rgba888_mxt_9x60_wvga/debug/_ext/706129189/le_gen_stringtable.o
 .debug_info    0x0003126a     0x1119 build/lcdc_rgba888_mxt_9x60_wvga/debug/_ext/706129189/le_gen_init.o
 .debug_info    0x00032383     0x288a build/lcdc_rgba888_mxt_9x60_wvga/debug/_ext/706129189/le_gen_harmony.o
 .debug_info    0x00034c0d      0xf2a build/lcdc_rgba888_mxt_9x60_wvga/debug/_ext/706129189/le_gen_globalpalette.o
 .debug_info    0x00035b37     0x11a4 build/lcdc_rgba888_mxt_9x60_wvga/debug/_ext/706129189/le_gen_scheme.o
 .debug_info    0x00036cdb     0x23d3 build/lcdc_rgba888_mxt_9x60_wvga/debug/_ext/2086705360/legato_imagedecoder_jpeg.o
 .debug_info    0x000390ae     0x22a5 build/lcdc_rgba888_mxt_9x60_wvga/debug/_ext/2086705360/legato_imagedecoder_jpeg_common.o
 .debug_info    0x0003b353      0x638 build/lcdc_rgba888_mxt_9x60_wvga/debug/_ext/2086705360/jidctint.o
 .debug_info    0x0003b98b      0xd55 build/lcdc_rgba888_mxt_9x60_wvga/debug/_ext/2086794059/legato_imagedecoder_mono_read_internal.o
 .debug_info    0x0003c6e0     0x20db build/lcdc_rgba888_mxt_9x60_wvga/debug/_ext/2086794059/legato_imagedecoder_mono.o
 .debug_info    0x0003e7bb     0x8dbb build/lcdc_rgba888_mxt_9x60_wvga/debug/_ext/1872343871/lodepng.o
 .debug_info    0x00047576     0x1a13 build/lcdc_rgba888_mxt_9x60_wvga/debug/_ext/1872343871/legato_imagedecoder_png.o
 .debug_info    0x00048f89     0x1bf5 build/lcdc_rgba888_mxt_9x60_wvga/debug/_ext/1872342336/legato_imagedecoder_raw_read_internal.o
 .debug_info    0x0004ab7e     0x13bd build/lcdc_rgba888_mxt_9x60_wvga/debug/_ext/1872342336/legato_imagedecoder_raw_scale.o
 .debug_info    0x0004bf3b     0x31a0 build/lcdc_rgba888_mxt_9x60_wvga/debug/_ext/1872342336/legato_imagedecoder_raw.o
 .debug_info    0x0004f0db     0x1299 build/lcdc_rgba888_mxt_9x60_wvga/debug/_ext/1872342336/legato_imagedecoder_raw_rotate.o
 .debug_info    0x00050374      0xf44 build/lcdc_rgba888_mxt_9x60_wvga/debug/_ext/1872342336/legato_imagedecoder_raw_mask.o
 .debug_info    0x000512b8     0x1865 build/lcdc_rgba888_mxt_9x60_wvga/debug/_ext/1872342336/legato_imagedecoder_raw_write.o
 .debug_info    0x00052b1d     0x1a45 build/lcdc_rgba888_mxt_9x60_wvga/debug/_ext/1872342336/legato_imagedecoder_raw_palette_internal.o
 .debug_info    0x00054562     0x1027 build/lcdc_rgba888_mxt_9x60_wvga/debug/_ext/1872342336/legato_imagedecoder_raw_setup.o
 .debug_info    0x00055589     0x18f9 build/lcdc_rgba888_mxt_9x60_wvga/debug/_ext/1872342336/legato_imagedecoder_raw_blend.o
 .debug_info    0x00056e82     0x174e build/lcdc_rgba888_mxt_9x60_wvga/debug/_ext/1872342336/legato_imagedecoder_raw_convert.o
 .debug_info    0x000585d0     0x2090 build/lcdc_rgba888_mxt_9x60_wvga/debug/_ext/1381099687/legato_image.o
 .debug_info    0x0005a660      0xb62 build/lcdc_rgba888_mxt_9x60_wvga/debug/_ext/1381099687/legato_image_utils.o
 .debug_info    0x0005b1c2      0x8d3 build/lcdc_rgba888_mxt_9x60_wvga/debug/_ext/28088523/legato_fixedheap.o
 .debug_info    0x0005ba95     0x142d build/lcdc_rgba888_mxt_9x60_wvga/debug/_ext/28088523/legato_memory.o
 .debug_info    0x0005cec2     0x1fbc build/lcdc_rgba888_mxt_9x60_wvga/debug/_ext/28088523/legato_variableheap.o
 .debug_info    0x0005ee7e     0x11d8 build/lcdc_rgba888_mxt_9x60_wvga/debug/_ext/1081070089/legato_draw_rect.o
 .debug_info    0x00060056     0x140e build/lcdc_rgba888_mxt_9x60_wvga/debug/_ext/1081070089/legato_draw_line.o
 .debug_info    0x00061464     0x1ee7 build/lcdc_rgba888_mxt_9x60_wvga/debug/_ext/1081070089/legato_draw_arc.o
 .debug_info    0x0006334b     0x5b8f build/lcdc_rgba888_mxt_9x60_wvga/debug/_ext/1081070089/legato_renderer.o
 .debug_info    0x00068eda     0x1d4f build/lcdc_rgba888_mxt_9x60_wvga/debug/_ext/1081070089/legato_draw.o
 .debug_info    0x0006ac29     0x18cc build/lcdc_rgba888_mxt_9x60_wvga/debug/_ext/1081070089/legato_gpu.o
 .debug_info    0x0006c4f5     0x192c build/lcdc_rgba888_mxt_9x60_wvga/debug/_ext/157682245/legato_stringutils.o
 .debug_info    0x0006de21     0x2272 build/lcdc_rgba888_mxt_9x60_wvga/debug/_ext/157682245/legato_string.o
 .debug_info    0x00070093     0x25d3 build/lcdc_rgba888_mxt_9x60_wvga/debug/_ext/157682245/legato_tablestring.o
 .debug_info    0x00072666     0x148c build/lcdc_rgba888_mxt_9x60_wvga/debug/_ext/157682245/legato_stringtable.o
 .debug_info    0x00073af2     0x1a01 build/lcdc_rgba888_mxt_9x60_wvga/debug/_ext/157682245/legato_string_renderer.o
 .debug_info    0x000754f3     0x1a78 build/lcdc_rgba888_mxt_9x60_wvga/debug/_ext/157682245/legato_fixedstring.o
 .debug_info    0x00076f6b     0x47b1 build/lcdc_rgba888_mxt_9x60_wvga/debug/_ext/1339002025/legato_widget_button.o
 .debug_info    0x0007b71c     0x46df build/lcdc_rgba888_mxt_9x60_wvga/debug/_ext/1339002025/legato_widget_button_skin_classic.o
 .debug_info    0x0007fdfb     0x33cf build/lcdc_rgba888_mxt_9x60_wvga/debug/_ext/1197524732/legato_widget_image_skin_classic.o
 .debug_info    0x000831ca     0x3355 build/lcdc_rgba888_mxt_9x60_wvga/debug/_ext/1197524732/legato_widget_image.o
 .debug_info    0x0008651f     0x3365 build/lcdc_rgba888_mxt_9x60_wvga/debug/_ext/2015859515/legato_widget_imagesequence.o
 .debug_info    0x00089884     0x3845 build/lcdc_rgba888_mxt_9x60_wvga/debug/_ext/2015859515/legato_widget_imagesequence_skin_classic.o
 .debug_info    0x0008d0c9     0x3bee build/lcdc_rgba888_mxt_9x60_wvga/debug/_ext/1195110755/legato_widget_label_skin_classic.o
 .debug_info    0x00090cb7     0x381f build/lcdc_rgba888_mxt_9x60_wvga/debug/_ext/1195110755/legato_widget_label.o
 .debug_info    0x000944d6     0x3364 build/lcdc_rgba888_mxt_9x60_wvga/debug/_ext/337100648/legato_widget_rectangle_skin_classic.o
 .debug_info    0x0009783a     0x2792 build/lcdc_rgba888_mxt_9x60_wvga/debug/_ext/337100648/legato_widget_rectangle.o
 .debug_info    0x00099fcc     0x2a62 build/lcdc_rgba888_mxt_9x60_wvga/debug/_ext/261620856/legato_widget_skin_classic.o
 .debug_info    0x0009ca2e     0x4fb8 build/lcdc_rgba888_mxt_9x60_wvga/debug/_ext/261620856/legato_widget.o
 .debug_info    0x000a19e6     0x3cb9 build/lcdc_rgba888_mxt_9x60_wvga/debug/_ext/261620856/legato_widget_skin_classic_common.o
 .debug_info    0x000a569f     0x1277 build/lcdc_rgba888_mxt_9x60_wvga/debug/_ext/440801193/gfx_simulator.o
 .debug_info    0x000a6916     0x1967 build/lcdc_rgba888_mxt_9x60_wvga/debug/_ext/4986847/plib_aic.o
 .debug_info    0x000a827d      0x88c build/lcdc_rgba888_mxt_9x60_wvga/debug/_ext/4988870/plib_clk.o
 .debug_info    0x000a8b09      0xea2 build/lcdc_rgba888_mxt_9x60_wvga/debug/_ext/4998521/plib_mmu.o
 .debug_info    0x000a99ab      0xb8e build/lcdc_rgba888_mxt_9x60_wvga/debug/_ext/5001274/plib_pio.o
 .debug_info    0x000aa539      0x2fb build/lcdc_rgba888_mxt_9x60_wvga/debug/_ext/286729486/xc32_monitor.o
 .debug_info    0x000aa834     0x1eb9 build/lcdc_rgba888_mxt_9x60_wvga/debug/_ext/1414187873/sys_input.o
 .debug_info    0x000ac6ed     0x1119 build/lcdc_rgba888_mxt_9x60_wvga/debug/_ext/1826491803/sys_int.o
 .debug_info    0x000ad806     0x2a06 build/lcdc_rgba888_mxt_9x60_wvga/debug/_ext/1812361045/sys_time.o
 .debug_info    0x000b020c      0x369 build/lcdc_rgba888_mxt_9x60_wvga/debug/_ext/2052985144/fault_handlers.o
 .debug_info    0x000b0575     0x119e build/lcdc_rgba888_mxt_9x60_wvga/debug/_ext/2052985144/tasks.o
 .debug_info    0x000b1713     0x1ffa build/lcdc_rgba888_mxt_9x60_wvga/debug/_ext/2052985144/initialization.o
 .debug_info    0x000b370d       0x22 build/lcdc_rgba888_mxt_9x60_wvga/debug/_ext/2052985144/cstartup.o
 .debug_info    0x000b372f     0x9b71 build/lcdc_rgba888_mxt_9x60_wvga/debug/_ext/1360937237/app.o
 .debug_info    0x000bd2a0     0x1155 build/lcdc_rgba888_mxt_9x60_wvga/debug/_ext/1360937237/main.o
 .debug_info    0x000be3f5       0x26 c:/program files/microchip/xc32/v4.35/bin/bin/../../lib/gcc/pic32c/8.3.1/arm/v5te/nofp\libgcc.a(_udivsi3.o)
 .debug_info    0x000be41b       0x26 c:/program files/microchip/xc32/v4.35/bin/bin/../../lib/gcc/pic32c/8.3.1/arm/v5te/nofp\libgcc.a(_divsi3.o)
 .debug_info    0x000be441       0x26 c:/program files/microchip/xc32/v4.35/bin/bin/../../lib/gcc/pic32c/8.3.1/arm/v5te/nofp\libgcc.a(_dvmd_tls.o)
 .debug_info    0x000be467       0x26 c:/program files/microchip/xc32/v4.35/bin/bin/../../lib/gcc/pic32c/8.3.1/arm/v5te/nofp\libgcc.a(_arm_addsubdf3.o)
 .debug_info    0x000be48d       0x26 c:/program files/microchip/xc32/v4.35/bin/bin/../../lib/gcc/pic32c/8.3.1/arm/v5te/nofp\libgcc.a(_arm_muldivdf3.o)
 .debug_info    0x000be4b3       0x26 c:/program files/microchip/xc32/v4.35/bin/bin/../../lib/gcc/pic32c/8.3.1/arm/v5te/nofp\libgcc.a(_arm_fixunsdfsi.o)
 .debug_info    0x000be4d9       0x26 c:/program files/microchip/xc32/v4.35/bin/bin/../../lib/gcc/pic32c/8.3.1/arm/v5te/nofp\libgcc.a(_arm_addsubsf3.o)
 .debug_info    0x000be4ff       0x26 c:/program files/microchip/xc32/v4.35/bin/bin/../../lib/gcc/pic32c/8.3.1/arm/v5te/nofp\libgcc.a(_arm_muldivsf3.o)
 .debug_info    0x000be525       0x26 c:/program files/microchip/xc32/v4.35/bin/bin/../../lib/gcc/pic32c/8.3.1/arm/v5te/nofp\libgcc.a(_arm_cmpsf2.o)
 .debug_info    0x000be54b       0x26 c:/program files/microchip/xc32/v4.35/bin/bin/../../lib/gcc/pic32c/8.3.1/arm/v5te/nofp\libgcc.a(_arm_fixsfsi.o)
 .debug_info    0x000be571       0x26 c:/program files/microchip/xc32/v4.35/bin/bin/../../lib/gcc/pic32c/8.3.1/arm/v5te/nofp\libgcc.a(_arm_fixunssfsi.o)
 .debug_info    0x000be597       0x26 c:/program files/microchip/xc32/v4.35/bin/bin/../../lib/gcc/pic32c/8.3.1/arm/v5te/nofp\libgcc.a(_aeabi_uldivmod.o)
 .debug_info    0x000be5bd      0x3d9 c:/program files/microchip/xc32/v4.35/bin/bin/../../lib/gcc/pic32c/8.3.1/arm/v5te/nofp\libgcc.a(_udivmoddi4.o)
 .debug_info    0x000be996      0x610 c:/program files/microchip/xc32/v4.35/bin/bin/../../lib/gcc/pic32c/8.3.1/../../../../pic32c/lib/arm/v5te/nofp\libg-musl.a(__libc_start_main.o)
 .debug_info    0x000befa6      0x522 c:/program files/microchip/xc32/v4.35/bin/bin/../../lib/gcc/pic32c/8.3.1/../../../../pic32c/lib/arm/v5te/nofp\libg-musl.a(libc.o)
 .debug_info    0x000bf4c8     0x138d c:/program files/microchip/xc32/v4.35/bin/bin/../../lib/gcc/pic32c/8.3.1/../../../../pic32c/lib/arm/v5te/nofp\libg-musl.a(malloc.o)
 .debug_info    0x000c0855      0x369 c:/program files/microchip/xc32/v4.35/bin/bin/../../lib/gcc/pic32c/8.3.1/../../../../pic32c/lib/arm/v5te/nofp\libg-musl.a(expand_heap.o)
 .debug_info    0x000c0bbe      0x443 c:/program files/microchip/xc32/v4.35/bin/bin/../../lib/gcc/pic32c/8.3.1/../../../../pic32c/lib/arm/v5te/nofp\libg-musl.a(__sio_sprintf_dnpuxX.o)
 .debug_info    0x000c1001      0x5af c:/program files/microchip/xc32/v4.35/bin/bin/../../lib/gcc/pic32c/8.3.1/../../../../pic32c/lib/arm/v5te/nofp\libg-musl.a(__fmt_d.o)
 .debug_info    0x000c15b0      0x580 c:/program files/microchip/xc32/v4.35/bin/bin/../../lib/gcc/pic32c/8.3.1/../../../../pic32c/lib/arm/v5te/nofp\libg-musl.a(__fmt_u.o)
 .debug_info    0x000c1b30      0x5ee c:/program files/microchip/xc32/v4.35/bin/bin/../../lib/gcc/pic32c/8.3.1/../../../../pic32c/lib/arm/v5te/nofp\libg-musl.a(__fmt_x.o)
 .debug_info    0x000c211e      0x3ed c:/program files/microchip/xc32/v4.35/bin/bin/../../lib/gcc/pic32c/8.3.1/../../../../pic32c/lib/arm/v5te/nofp\libg-musl.a(__pop_int.o)
 .debug_info    0x000c250b      0x3f3 c:/program files/microchip/xc32/v4.35/bin/bin/../../lib/gcc/pic32c/8.3.1/../../../../pic32c/lib/arm/v5te/nofp\libg-musl.a(__pop_ptr.o)
 .debug_info    0x000c28fe      0xd36 c:/program files/microchip/xc32/v4.35/bin/bin/../../lib/gcc/pic32c/8.3.1/../../../../pic32c/lib/arm/v5te/nofp\libg-musl.a(__printf_core.o)
 .debug_info    0x000c3634      0x470 c:/program files/microchip/xc32/v4.35/bin/bin/../../lib/gcc/pic32c/8.3.1/../../../../pic32c/lib/arm/v5te/nofp\libg-musl.a(stdout.o)
 .debug_info    0x000c3aa4      0x2e8 c:/program files/microchip/xc32/v4.35/bin/bin/../../lib/gcc/pic32c/8.3.1/../../../../pic32c/lib/arm/v5te/nofp\libg-musl.a(atoi.o)
 .debug_info    0x000c3d8c      0x2e7 c:/program files/microchip/xc32/v4.35/bin/bin/../../lib/gcc/pic32c/8.3.1/../../../../pic32c/lib/arm/v5te/nofp\libg-musl.a(memcpy.o)
 .debug_info    0x000c4073      0x2ac c:/program files/microchip/xc32/v4.35/bin/bin/../../lib/gcc/pic32c/8.3.1/../../../../pic32c/lib/arm/v5te/nofp\libg-musl.a(memset.o)
 .debug_info    0x000c431f      0x297 c:/program files/microchip/xc32/v4.35/bin/bin/../../lib/gcc/pic32c/8.3.1/../../../../pic32c/lib/arm/v5te/nofp\libg-musl.a(strlen.o)
 .debug_info    0x000c45b6      0x340 c:/program files/microchip/xc32/v4.35/bin/bin/../../lib/gcc/pic32c/8.3.1/../../../../pic32c/lib/arm/v5te/nofp\libg-musl.a(tolower.o)
 .debug_info    0x000c48f6      0x340 c:/program files/microchip/xc32/v4.35/bin/bin/../../lib/gcc/pic32c/8.3.1/../../../../pic32c/lib/arm/v5te/nofp\libg-musl.a(toupper.o)
 .debug_info    0x000c4c36      0x29c c:/program files/microchip/xc32/v4.35/bin/bin/../../lib/gcc/pic32c/8.3.1/../../../../pic32c/lib/arm/v5te/nofp\libg-musl.a(__environ.o)
 .debug_info    0x000c4ed2      0x260 c:/program files/microchip/xc32/v4.35/bin/bin/../../lib/gcc/pic32c/8.3.1/../../../../pic32c/lib/arm/v5te/nofp\libg-musl.a(__errno_location.o)
 .debug_info    0x000c5132      0x466 c:/program files/microchip/xc32/v4.35/bin/bin/../../lib/gcc/pic32c/8.3.1/../../../../pic32c/lib/arm/v5te/nofp\libg-musl.a(__int_vfprintf.o)
 .debug_info    0x000c5598      0x391 c:/program files/microchip/xc32/v4.35/bin/bin/../../lib/gcc/pic32c/8.3.1/../../../../pic32c/lib/arm/v5te/nofp\libg-musl.a(__int_vsprintf.o)
 .debug_info    0x000c5929      0x426 c:/program files/microchip/xc32/v4.35/bin/bin/../../lib/gcc/pic32c/8.3.1/../../../../pic32c/lib/arm/v5te/nofp\libg-musl.a(__cvt_u.o)
 .debug_info    0x000c5d4f      0x3ca c:/program files/microchip/xc32/v4.35/bin/bin/../../lib/gcc/pic32c/8.3.1/../../../../pic32c/lib/arm/v5te/nofp\libg-musl.a(__pop_float.o)
 .debug_info    0x000c6119      0x4c0 c:/program files/microchip/xc32/v4.35/bin/bin/../../lib/gcc/pic32c/8.3.1/../../../../pic32c/lib/arm/v5te/nofp\libg-musl.a(fwrite.o)
 .debug_info    0x000c65d9      0x494 c:/program files/microchip/xc32/v4.35/bin/bin/../../lib/gcc/pic32c/8.3.1/../../../../pic32c/lib/arm/v5te/nofp\libg-musl.a(__int_vsnprintf.o)
 .debug_info    0x000c6a6d      0x319 c:/program files/microchip/xc32/v4.35/bin/bin/../../lib/gcc/pic32c/8.3.1/../../../../pic32c/lib/arm/v5te/nofp\libg-musl.a(__init_stdio.o)
 .debug_info    0x000c6d86      0x51d c:/program files/microchip/xc32/v4.35/bin/bin/../../lib/gcc/pic32c/8.3.1/../../../../pic32c/lib/arm/v5te/nofp\libg-musl.a(__out.o)
 .debug_info    0x000c72a3      0x273 c:/program files/microchip/xc32/v4.35/bin/bin/../../lib/gcc/pic32c/8.3.1/../../../../pic32c/lib/arm/v5te/nofp\libpic32c.a(sbrk.o)

.debug_abbrev   0x00000000    0x12aab
 .debug_abbrev  0x00000000      0x3a7 build/lcdc_rgba888_mxt_9x60_wvga/debug/_ext/1121151461/gfx_canvas_api.o
 .debug_abbrev  0x000003a7      0x5ae build/lcdc_rgba888_mxt_9x60_wvga/debug/_ext/1121151461/gfx_canvas.o
 .debug_abbrev  0x00000955      0x491 build/lcdc_rgba888_mxt_9x60_wvga/debug/_ext/1165331637/gfx_driver.o
 .debug_abbrev  0x00000de6      0x385 build/lcdc_rgba888_mxt_9x60_wvga/debug/_ext/305146849/legato_pixelbuffer.o
 .debug_abbrev  0x0000116b      0x400 build/lcdc_rgba888_mxt_9x60_wvga/debug/_ext/305146849/legato_utils.o
 .debug_abbrev  0x0000156b      0x2f3 build/lcdc_rgba888_mxt_9x60_wvga/debug/_ext/305146849/legato_color_convert.o
 .debug_abbrev  0x0000185e      0x25d build/lcdc_rgba888_mxt_9x60_wvga/debug/_ext/305146849/legato_rect.o
 .debug_abbrev  0x00001abb      0x231 build/lcdc_rgba888_mxt_9x60_wvga/debug/_ext/305146849/legato_color_lerp.o
 .debug_abbrev  0x00001cec      0x3c2 build/lcdc_rgba888_mxt_9x60_wvga/debug/_ext/305146849/legato_math.o
 .debug_abbrev  0x000020ae      0x184 build/lcdc_rgba888_mxt_9x60_wvga/debug/_ext/305146849/legato_color_blend.o
 .debug_abbrev  0x00002232      0x1dc build/lcdc_rgba888_mxt_9x60_wvga/debug/_ext/305146849/legato_color.o
 .debug_abbrev  0x0000240e      0x2bf build/lcdc_rgba888_mxt_9x60_wvga/debug/_ext/1618192685/legato_scheme.o
 .debug_abbrev  0x000026cd      0x3cd build/lcdc_rgba888_mxt_9x60_wvga/debug/_ext/1618192685/legato_input.o
 .debug_abbrev  0x00002a9a      0x38a build/lcdc_rgba888_mxt_9x60_wvga/debug/_ext/1618192685/legato_event.o
 .debug_abbrev  0x00002e24      0x510 build/lcdc_rgba888_mxt_9x60_wvga/debug/_ext/1618192685/legato_state.o
 .debug_abbrev  0x00003334      0x275 build/lcdc_rgba888_mxt_9x60_wvga/debug/_ext/109670485/legato_list.o
 .debug_abbrev  0x000035a9      0x2cc build/lcdc_rgba888_mxt_9x60_wvga/debug/_ext/109670485/legato_rectarray.o
 .debug_abbrev  0x00003875      0x247 build/lcdc_rgba888_mxt_9x60_wvga/debug/_ext/109670485/legato_array.o
 .debug_abbrev  0x00003abc      0x3a9 build/lcdc_rgba888_mxt_9x60_wvga/debug/_ext/1618103421/legato_font.o
 .debug_abbrev  0x00003e65      0x1d5 build/lcdc_rgba888_mxt_9x60_wvga/debug/_ext/644506877/le_gen_fonts.o
 .debug_abbrev  0x0000403a      0x20f build/lcdc_rgba888_mxt_9x60_wvga/debug/_ext/1497821479/le_gen_images.o
 .debug_abbrev  0x00004249      0x3aa build/lcdc_rgba888_mxt_9x60_wvga/debug/_ext/534613472/le_gen_screen_Screen0.o
 .debug_abbrev  0x000045f3      0x241 build/lcdc_rgba888_mxt_9x60_wvga/debug/_ext/706129189/le_gen_stringtable.o
 .debug_abbrev  0x00004834      0x27b build/lcdc_rgba888_mxt_9x60_wvga/debug/_ext/706129189/le_gen_init.o
 .debug_abbrev  0x00004aaf      0x2aa build/lcdc_rgba888_mxt_9x60_wvga/debug/_ext/706129189/le_gen_harmony.o
 .debug_abbrev  0x00004d59      0x1c2 build/lcdc_rgba888_mxt_9x60_wvga/debug/_ext/706129189/le_gen_globalpalette.o
 .debug_abbrev  0x00004f1b      0x1f4 build/lcdc_rgba888_mxt_9x60_wvga/debug/_ext/706129189/le_gen_scheme.o
 .debug_abbrev  0x0000510f      0x3cc build/lcdc_rgba888_mxt_9x60_wvga/debug/_ext/2086705360/legato_imagedecoder_jpeg.o
 .debug_abbrev  0x000054db      0x494 build/lcdc_rgba888_mxt_9x60_wvga/debug/_ext/2086705360/legato_imagedecoder_jpeg_common.o
 .debug_abbrev  0x0000596f      0x132 build/lcdc_rgba888_mxt_9x60_wvga/debug/_ext/2086705360/jidctint.o
 .debug_abbrev  0x00005aa1      0x223 build/lcdc_rgba888_mxt_9x60_wvga/debug/_ext/2086794059/legato_imagedecoder_mono_read_internal.o
 .debug_abbrev  0x00005cc4      0x426 build/lcdc_rgba888_mxt_9x60_wvga/debug/_ext/2086794059/legato_imagedecoder_mono.o
 .debug_abbrev  0x000060ea      0x64e build/lcdc_rgba888_mxt_9x60_wvga/debug/_ext/1872343871/lodepng.o
 .debug_abbrev  0x00006738      0x335 build/lcdc_rgba888_mxt_9x60_wvga/debug/_ext/1872343871/legato_imagedecoder_png.o
 .debug_abbrev  0x00006a6d      0x2e1 build/lcdc_rgba888_mxt_9x60_wvga/debug/_ext/1872342336/legato_imagedecoder_raw_read_internal.o
 .debug_abbrev  0x00006d4e      0x261 build/lcdc_rgba888_mxt_9x60_wvga/debug/_ext/1872342336/legato_imagedecoder_raw_scale.o
 .debug_abbrev  0x00006faf      0x498 build/lcdc_rgba888_mxt_9x60_wvga/debug/_ext/1872342336/legato_imagedecoder_raw.o
 .debug_abbrev  0x00007447      0x25f build/lcdc_rgba888_mxt_9x60_wvga/debug/_ext/1872342336/legato_imagedecoder_raw_rotate.o
 .debug_abbrev  0x000076a6      0x1ef build/lcdc_rgba888_mxt_9x60_wvga/debug/_ext/1872342336/legato_imagedecoder_raw_mask.o
 .debug_abbrev  0x00007895      0x263 build/lcdc_rgba888_mxt_9x60_wvga/debug/_ext/1872342336/legato_imagedecoder_raw_write.o
 .debug_abbrev  0x00007af8      0x2b8 build/lcdc_rgba888_mxt_9x60_wvga/debug/_ext/1872342336/legato_imagedecoder_raw_palette_internal.o
 .debug_abbrev  0x00007db0      0x242 build/lcdc_rgba888_mxt_9x60_wvga/debug/_ext/1872342336/legato_imagedecoder_raw_setup.o
 .debug_abbrev  0x00007ff2      0x2a3 build/lcdc_rgba888_mxt_9x60_wvga/debug/_ext/1872342336/legato_imagedecoder_raw_blend.o
 .debug_abbrev  0x00008295      0x266 build/lcdc_rgba888_mxt_9x60_wvga/debug/_ext/1872342336/legato_imagedecoder_raw_convert.o
 .debug_abbrev  0x000084fb      0x3d7 build/lcdc_rgba888_mxt_9x60_wvga/debug/_ext/1381099687/legato_image.o
 .debug_abbrev  0x000088d2      0x1c4 build/lcdc_rgba888_mxt_9x60_wvga/debug/_ext/1381099687/legato_image_utils.o
 .debug_abbrev  0x00008a96      0x220 build/lcdc_rgba888_mxt_9x60_wvga/debug/_ext/28088523/legato_fixedheap.o
 .debug_abbrev  0x00008cb6      0x392 build/lcdc_rgba888_mxt_9x60_wvga/debug/_ext/28088523/legato_memory.o
 .debug_abbrev  0x00009048      0x42d build/lcdc_rgba888_mxt_9x60_wvga/debug/_ext/28088523/legato_variableheap.o
 .debug_abbrev  0x00009475      0x243 build/lcdc_rgba888_mxt_9x60_wvga/debug/_ext/1081070089/legato_draw_rect.o
 .debug_abbrev  0x000096b8      0x246 build/lcdc_rgba888_mxt_9x60_wvga/debug/_ext/1081070089/legato_draw_line.o
 .debug_abbrev  0x000098fe      0x397 build/lcdc_rgba888_mxt_9x60_wvga/debug/_ext/1081070089/legato_draw_arc.o
 .debug_abbrev  0x00009c95      0x68d build/lcdc_rgba888_mxt_9x60_wvga/debug/_ext/1081070089/legato_renderer.o
 .debug_abbrev  0x0000a322      0x323 build/lcdc_rgba888_mxt_9x60_wvga/debug/_ext/1081070089/legato_draw.o
 .debug_abbrev  0x0000a645      0x334 build/lcdc_rgba888_mxt_9x60_wvga/debug/_ext/1081070089/legato_gpu.o
 .debug_abbrev  0x0000a979      0x393 build/lcdc_rgba888_mxt_9x60_wvga/debug/_ext/157682245/legato_stringutils.o
 .debug_abbrev  0x0000ad0c      0x38e build/lcdc_rgba888_mxt_9x60_wvga/debug/_ext/157682245/legato_string.o
 .debug_abbrev  0x0000b09a      0x385 build/lcdc_rgba888_mxt_9x60_wvga/debug/_ext/157682245/legato_tablestring.o
 .debug_abbrev  0x0000b41f      0x288 build/lcdc_rgba888_mxt_9x60_wvga/debug/_ext/157682245/legato_stringtable.o
 .debug_abbrev  0x0000b6a7      0x386 build/lcdc_rgba888_mxt_9x60_wvga/debug/_ext/157682245/legato_string_renderer.o
 .debug_abbrev  0x0000ba2d      0x2e4 build/lcdc_rgba888_mxt_9x60_wvga/debug/_ext/157682245/legato_fixedstring.o
 .debug_abbrev  0x0000bd11      0x479 build/lcdc_rgba888_mxt_9x60_wvga/debug/_ext/1339002025/legato_widget_button.o
 .debug_abbrev  0x0000c18a      0x3f9 build/lcdc_rgba888_mxt_9x60_wvga/debug/_ext/1339002025/legato_widget_button_skin_classic.o
 .debug_abbrev  0x0000c583      0x30f build/lcdc_rgba888_mxt_9x60_wvga/debug/_ext/1197524732/legato_widget_image_skin_classic.o
 .debug_abbrev  0x0000c892      0x35c build/lcdc_rgba888_mxt_9x60_wvga/debug/_ext/1197524732/legato_widget_image.o
 .debug_abbrev  0x0000cbee      0x40d build/lcdc_rgba888_mxt_9x60_wvga/debug/_ext/2015859515/legato_widget_imagesequence.o
 .debug_abbrev  0x0000cffb      0x346 build/lcdc_rgba888_mxt_9x60_wvga/debug/_ext/2015859515/legato_widget_imagesequence_skin_classic.o
 .debug_abbrev  0x0000d341      0x36d build/lcdc_rgba888_mxt_9x60_wvga/debug/_ext/1195110755/legato_widget_label_skin_classic.o
 .debug_abbrev  0x0000d6ae      0x367 build/lcdc_rgba888_mxt_9x60_wvga/debug/_ext/1195110755/legato_widget_label.o
 .debug_abbrev  0x0000da15      0x2ef build/lcdc_rgba888_mxt_9x60_wvga/debug/_ext/337100648/legato_widget_rectangle_skin_classic.o
 .debug_abbrev  0x0000dd04      0x324 build/lcdc_rgba888_mxt_9x60_wvga/debug/_ext/337100648/legato_widget_rectangle.o
 .debug_abbrev  0x0000e028      0x2db build/lcdc_rgba888_mxt_9x60_wvga/debug/_ext/261620856/legato_widget_skin_classic.o
 .debug_abbrev  0x0000e303      0x4cf build/lcdc_rgba888_mxt_9x60_wvga/debug/_ext/261620856/legato_widget.o
 .debug_abbrev  0x0000e7d2      0x39b build/lcdc_rgba888_mxt_9x60_wvga/debug/_ext/261620856/legato_widget_skin_classic_common.o
 .debug_abbrev  0x0000eb6d      0x213 build/lcdc_rgba888_mxt_9x60_wvga/debug/_ext/440801193/gfx_simulator.o
 .debug_abbrev  0x0000ed80      0x2d5 build/lcdc_rgba888_mxt_9x60_wvga/debug/_ext/4986847/plib_aic.o
 .debug_abbrev  0x0000f055      0x151 build/lcdc_rgba888_mxt_9x60_wvga/debug/_ext/4988870/plib_clk.o
 .debug_abbrev  0x0000f1a6      0x25d build/lcdc_rgba888_mxt_9x60_wvga/debug/_ext/4998521/plib_mmu.o
 .debug_abbrev  0x0000f403      0x139 build/lcdc_rgba888_mxt_9x60_wvga/debug/_ext/5001274/plib_pio.o
 .debug_abbrev  0x0000f53c       0x96 build/lcdc_rgba888_mxt_9x60_wvga/debug/_ext/286729486/xc32_monitor.o
 .debug_abbrev  0x0000f5d2      0x235 build/lcdc_rgba888_mxt_9x60_wvga/debug/_ext/1414187873/sys_input.o
 .debug_abbrev  0x0000f807      0x290 build/lcdc_rgba888_mxt_9x60_wvga/debug/_ext/1826491803/sys_int.o
 .debug_abbrev  0x0000fa97      0x58b build/lcdc_rgba888_mxt_9x60_wvga/debug/_ext/1812361045/sys_time.o
 .debug_abbrev  0x00010022       0x3e build/lcdc_rgba888_mxt_9x60_wvga/debug/_ext/2052985144/fault_handlers.o
 .debug_abbrev  0x00010060      0x1e6 build/lcdc_rgba888_mxt_9x60_wvga/debug/_ext/2052985144/tasks.o
 .debug_abbrev  0x00010246      0x304 build/lcdc_rgba888_mxt_9x60_wvga/debug/_ext/2052985144/initialization.o
 .debug_abbrev  0x0001054a       0x12 build/lcdc_rgba888_mxt_9x60_wvga/debug/_ext/2052985144/cstartup.o
 .debug_abbrev  0x0001055c      0x4fb build/lcdc_rgba888_mxt_9x60_wvga/debug/_ext/1360937237/app.o
 .debug_abbrev  0x00010a57      0x1ed build/lcdc_rgba888_mxt_9x60_wvga/debug/_ext/1360937237/main.o
 .debug_abbrev  0x00010c44       0x14 c:/program files/microchip/xc32/v4.35/bin/bin/../../lib/gcc/pic32c/8.3.1/arm/v5te/nofp\libgcc.a(_udivsi3.o)
 .debug_abbrev  0x00010c58       0x14 c:/program files/microchip/xc32/v4.35/bin/bin/../../lib/gcc/pic32c/8.3.1/arm/v5te/nofp\libgcc.a(_divsi3.o)
 .debug_abbrev  0x00010c6c       0x14 c:/program files/microchip/xc32/v4.35/bin/bin/../../lib/gcc/pic32c/8.3.1/arm/v5te/nofp\libgcc.a(_dvmd_tls.o)
 .debug_abbrev  0x00010c80       0x14 c:/program files/microchip/xc32/v4.35/bin/bin/../../lib/gcc/pic32c/8.3.1/arm/v5te/nofp\libgcc.a(_arm_addsubdf3.o)
 .debug_abbrev  0x00010c94       0x14 c:/program files/microchip/xc32/v4.35/bin/bin/../../lib/gcc/pic32c/8.3.1/arm/v5te/nofp\libgcc.a(_arm_muldivdf3.o)
 .debug_abbrev  0x00010ca8       0x14 c:/program files/microchip/xc32/v4.35/bin/bin/../../lib/gcc/pic32c/8.3.1/arm/v5te/nofp\libgcc.a(_arm_fixunsdfsi.o)
 .debug_abbrev  0x00010cbc       0x14 c:/program files/microchip/xc32/v4.35/bin/bin/../../lib/gcc/pic32c/8.3.1/arm/v5te/nofp\libgcc.a(_arm_addsubsf3.o)
 .debug_abbrev  0x00010cd0       0x14 c:/program files/microchip/xc32/v4.35/bin/bin/../../lib/gcc/pic32c/8.3.1/arm/v5te/nofp\libgcc.a(_arm_muldivsf3.o)
 .debug_abbrev  0x00010ce4       0x14 c:/program files/microchip/xc32/v4.35/bin/bin/../../lib/gcc/pic32c/8.3.1/arm/v5te/nofp\libgcc.a(_arm_cmpsf2.o)
 .debug_abbrev  0x00010cf8       0x14 c:/program files/microchip/xc32/v4.35/bin/bin/../../lib/gcc/pic32c/8.3.1/arm/v5te/nofp\libgcc.a(_arm_fixsfsi.o)
 .debug_abbrev  0x00010d0c       0x14 c:/program files/microchip/xc32/v4.35/bin/bin/../../lib/gcc/pic32c/8.3.1/arm/v5te/nofp\libgcc.a(_arm_fixunssfsi.o)
 .debug_abbrev  0x00010d20       0x14 c:/program files/microchip/xc32/v4.35/bin/bin/../../lib/gcc/pic32c/8.3.1/arm/v5te/nofp\libgcc.a(_aeabi_uldivmod.o)
 .debug_abbrev  0x00010d34       0x8e c:/program files/microchip/xc32/v4.35/bin/bin/../../lib/gcc/pic32c/8.3.1/arm/v5te/nofp\libgcc.a(_udivmoddi4.o)
 .debug_abbrev  0x00010dc2      0x117 c:/program files/microchip/xc32/v4.35/bin/bin/../../lib/gcc/pic32c/8.3.1/../../../../pic32c/lib/arm/v5te/nofp\libg-musl.a(__libc_start_main.o)
 .debug_abbrev  0x00010ed9       0xb8 c:/program files/microchip/xc32/v4.35/bin/bin/../../lib/gcc/pic32c/8.3.1/../../../../pic32c/lib/arm/v5te/nofp\libg-musl.a(libc.o)
 .debug_abbrev  0x00010f91      0x413 c:/program files/microchip/xc32/v4.35/bin/bin/../../lib/gcc/pic32c/8.3.1/../../../../pic32c/lib/arm/v5te/nofp\libg-musl.a(malloc.o)
 .debug_abbrev  0x000113a4       0xa5 c:/program files/microchip/xc32/v4.35/bin/bin/../../lib/gcc/pic32c/8.3.1/../../../../pic32c/lib/arm/v5te/nofp\libg-musl.a(expand_heap.o)
 .debug_abbrev  0x00011449      0x12e c:/program files/microchip/xc32/v4.35/bin/bin/../../lib/gcc/pic32c/8.3.1/../../../../pic32c/lib/arm/v5te/nofp\libg-musl.a(__sio_sprintf_dnpuxX.o)
 .debug_abbrev  0x00011577      0x120 c:/program files/microchip/xc32/v4.35/bin/bin/../../lib/gcc/pic32c/8.3.1/../../../../pic32c/lib/arm/v5te/nofp\libg-musl.a(__fmt_d.o)
 .debug_abbrev  0x00011697      0x120 c:/program files/microchip/xc32/v4.35/bin/bin/../../lib/gcc/pic32c/8.3.1/../../../../pic32c/lib/arm/v5te/nofp\libg-musl.a(__fmt_u.o)
 .debug_abbrev  0x000117b7      0x10f c:/program files/microchip/xc32/v4.35/bin/bin/../../lib/gcc/pic32c/8.3.1/../../../../pic32c/lib/arm/v5te/nofp\libg-musl.a(__fmt_x.o)
 .debug_abbrev  0x000118c6       0xbd c:/program files/microchip/xc32/v4.35/bin/bin/../../lib/gcc/pic32c/8.3.1/../../../../pic32c/lib/arm/v5te/nofp\libg-musl.a(__pop_int.o)
 .debug_abbrev  0x00011983       0xce c:/program files/microchip/xc32/v4.35/bin/bin/../../lib/gcc/pic32c/8.3.1/../../../../pic32c/lib/arm/v5te/nofp\libg-musl.a(__pop_ptr.o)
 .debug_abbrev  0x00011a51      0x2c5 c:/program files/microchip/xc32/v4.35/bin/bin/../../lib/gcc/pic32c/8.3.1/../../../../pic32c/lib/arm/v5te/nofp\libg-musl.a(__printf_core.o)
 .debug_abbrev  0x00011d16      0x135 c:/program files/microchip/xc32/v4.35/bin/bin/../../lib/gcc/pic32c/8.3.1/../../../../pic32c/lib/arm/v5te/nofp\libg-musl.a(stdout.o)
 .debug_abbrev  0x00011e4b       0xbb c:/program files/microchip/xc32/v4.35/bin/bin/../../lib/gcc/pic32c/8.3.1/../../../../pic32c/lib/arm/v5te/nofp\libg-musl.a(atoi.o)
 .debug_abbrev  0x00011f06       0x9c c:/program files/microchip/xc32/v4.35/bin/bin/../../lib/gcc/pic32c/8.3.1/../../../../pic32c/lib/arm/v5te/nofp\libg-musl.a(memcpy.o)
 .debug_abbrev  0x00011fa2       0x97 c:/program files/microchip/xc32/v4.35/bin/bin/../../lib/gcc/pic32c/8.3.1/../../../../pic32c/lib/arm/v5te/nofp\libg-musl.a(memset.o)
 .debug_abbrev  0x00012039       0x86 c:/program files/microchip/xc32/v4.35/bin/bin/../../lib/gcc/pic32c/8.3.1/../../../../pic32c/lib/arm/v5te/nofp\libg-musl.a(strlen.o)
 .debug_abbrev  0x000120bf       0xfd c:/program files/microchip/xc32/v4.35/bin/bin/../../lib/gcc/pic32c/8.3.1/../../../../pic32c/lib/arm/v5te/nofp\libg-musl.a(tolower.o)
 .debug_abbrev  0x000121bc       0xfd c:/program files/microchip/xc32/v4.35/bin/bin/../../lib/gcc/pic32c/8.3.1/../../../../pic32c/lib/arm/v5te/nofp\libg-musl.a(toupper.o)
 .debug_abbrev  0x000122b9       0x57 c:/program files/microchip/xc32/v4.35/bin/bin/../../lib/gcc/pic32c/8.3.1/../../../../pic32c/lib/arm/v5te/nofp\libg-musl.a(__environ.o)
 .debug_abbrev  0x00012310       0x2e c:/program files/microchip/xc32/v4.35/bin/bin/../../lib/gcc/pic32c/8.3.1/../../../../pic32c/lib/arm/v5te/nofp\libg-musl.a(__errno_location.o)
 .debug_abbrev  0x0001233e      0x111 c:/program files/microchip/xc32/v4.35/bin/bin/../../lib/gcc/pic32c/8.3.1/../../../../pic32c/lib/arm/v5te/nofp\libg-musl.a(__int_vfprintf.o)
 .debug_abbrev  0x0001244f       0xc3 c:/program files/microchip/xc32/v4.35/bin/bin/../../lib/gcc/pic32c/8.3.1/../../../../pic32c/lib/arm/v5te/nofp\libg-musl.a(__int_vsprintf.o)
 .debug_abbrev  0x00012512       0xb2 c:/program files/microchip/xc32/v4.35/bin/bin/../../lib/gcc/pic32c/8.3.1/../../../../pic32c/lib/arm/v5te/nofp\libg-musl.a(__cvt_u.o)
 .debug_abbrev  0x000125c4       0xbd c:/program files/microchip/xc32/v4.35/bin/bin/../../lib/gcc/pic32c/8.3.1/../../../../pic32c/lib/arm/v5te/nofp\libg-musl.a(__pop_float.o)
 .debug_abbrev  0x00012681      0x10f c:/program files/microchip/xc32/v4.35/bin/bin/../../lib/gcc/pic32c/8.3.1/../../../../pic32c/lib/arm/v5te/nofp\libg-musl.a(fwrite.o)
 .debug_abbrev  0x00012790      0x127 c:/program files/microchip/xc32/v4.35/bin/bin/../../lib/gcc/pic32c/8.3.1/../../../../pic32c/lib/arm/v5te/nofp\libg-musl.a(__int_vsnprintf.o)
 .debug_abbrev  0x000128b7       0x5a c:/program files/microchip/xc32/v4.35/bin/bin/../../lib/gcc/pic32c/8.3.1/../../../../pic32c/lib/arm/v5te/nofp\libg-musl.a(__init_stdio.o)
 .debug_abbrev  0x00012911      0x16c c:/program files/microchip/xc32/v4.35/bin/bin/../../lib/gcc/pic32c/8.3.1/../../../../pic32c/lib/arm/v5te/nofp\libg-musl.a(__out.o)
 .debug_abbrev  0x00012a7d       0x2e c:/program files/microchip/xc32/v4.35/bin/bin/../../lib/gcc/pic32c/8.3.1/../../../../pic32c/lib/arm/v5te/nofp\libpic32c.a(sbrk.o)

.debug_loc      0x00000000    0x3a494
 .debug_loc     0x00000000      0xbe3 build/lcdc_rgba888_mxt_9x60_wvga/debug/_ext/1121151461/gfx_canvas_api.o
 .debug_loc     0x00000be3      0xc18 build/lcdc_rgba888_mxt_9x60_wvga/debug/_ext/1121151461/gfx_canvas.o
 .debug_loc     0x000017fb     0x2c35 build/lcdc_rgba888_mxt_9x60_wvga/debug/_ext/1165331637/gfx_driver.o
 .debug_loc     0x00004430     0x13d7 build/lcdc_rgba888_mxt_9x60_wvga/debug/_ext/305146849/legato_pixelbuffer.o
 .debug_loc     0x00005807      0xf3f build/lcdc_rgba888_mxt_9x60_wvga/debug/_ext/305146849/legato_utils.o
 .debug_loc     0x00006746     0x19b1 build/lcdc_rgba888_mxt_9x60_wvga/debug/_ext/305146849/legato_color_convert.o
 .debug_loc     0x000080f7      0xe98 build/lcdc_rgba888_mxt_9x60_wvga/debug/_ext/305146849/legato_rect.o
 .debug_loc     0x00008f8f     0x12fd build/lcdc_rgba888_mxt_9x60_wvga/debug/_ext/305146849/legato_color_lerp.o
 .debug_loc     0x0000a28c     0x1843 build/lcdc_rgba888_mxt_9x60_wvga/debug/_ext/305146849/legato_math.o
 .debug_loc     0x0000bacf      0x98c build/lcdc_rgba888_mxt_9x60_wvga/debug/_ext/305146849/legato_color_blend.o
 .debug_loc     0x0000c45b      0x50f build/lcdc_rgba888_mxt_9x60_wvga/debug/_ext/305146849/legato_color.o
 .debug_loc     0x0000c96a      0x12d build/lcdc_rgba888_mxt_9x60_wvga/debug/_ext/1618192685/legato_scheme.o
 .debug_loc     0x0000ca97      0x95e build/lcdc_rgba888_mxt_9x60_wvga/debug/_ext/1618192685/legato_input.o
 .debug_loc     0x0000d3f5      0x1a6 build/lcdc_rgba888_mxt_9x60_wvga/debug/_ext/1618192685/legato_event.o
 .debug_loc     0x0000d59b     0x11a0 build/lcdc_rgba888_mxt_9x60_wvga/debug/_ext/1618192685/legato_state.o
 .debug_loc     0x0000e73b      0xe08 build/lcdc_rgba888_mxt_9x60_wvga/debug/_ext/109670485/legato_list.o
 .debug_loc     0x0000f543     0x1445 build/lcdc_rgba888_mxt_9x60_wvga/debug/_ext/109670485/legato_rectarray.o
 .debug_loc     0x00010988      0x8d5 build/lcdc_rgba888_mxt_9x60_wvga/debug/_ext/109670485/legato_array.o
 .debug_loc     0x0001125d     0x12fb build/lcdc_rgba888_mxt_9x60_wvga/debug/_ext/1618103421/legato_font.o
 .debug_loc     0x00012558      0x13a build/lcdc_rgba888_mxt_9x60_wvga/debug/_ext/534613472/le_gen_screen_Screen0.o
 .debug_loc     0x00012692       0x20 build/lcdc_rgba888_mxt_9x60_wvga/debug/_ext/706129189/le_gen_stringtable.o
 .debug_loc     0x000126b2       0x40 build/lcdc_rgba888_mxt_9x60_wvga/debug/_ext/706129189/le_gen_init.o
 .debug_loc     0x000126f2      0x127 build/lcdc_rgba888_mxt_9x60_wvga/debug/_ext/706129189/le_gen_harmony.o
 .debug_loc     0x00012819      0x63b build/lcdc_rgba888_mxt_9x60_wvga/debug/_ext/2086705360/legato_imagedecoder_jpeg.o
 .debug_loc     0x00012e54      0xe55 build/lcdc_rgba888_mxt_9x60_wvga/debug/_ext/2086705360/legato_imagedecoder_jpeg_common.o
 .debug_loc     0x00013ca9     0x1d9b build/lcdc_rgba888_mxt_9x60_wvga/debug/_ext/2086705360/jidctint.o
 .debug_loc     0x00015a44       0xcf build/lcdc_rgba888_mxt_9x60_wvga/debug/_ext/2086794059/legato_imagedecoder_mono_read_internal.o
 .debug_loc     0x00015b13      0x5c1 build/lcdc_rgba888_mxt_9x60_wvga/debug/_ext/2086794059/legato_imagedecoder_mono.o
 .debug_loc     0x000160d4     0xa512 build/lcdc_rgba888_mxt_9x60_wvga/debug/_ext/1872343871/lodepng.o
 .debug_loc     0x000205e6      0x36c build/lcdc_rgba888_mxt_9x60_wvga/debug/_ext/1872343871/legato_imagedecoder_png.o
 .debug_loc     0x00020952      0x3db build/lcdc_rgba888_mxt_9x60_wvga/debug/_ext/1872342336/legato_imagedecoder_raw_read_internal.o
 .debug_loc     0x00020d2d      0x28b build/lcdc_rgba888_mxt_9x60_wvga/debug/_ext/1872342336/legato_imagedecoder_raw_scale.o
 .debug_loc     0x00020fb8      0xe04 build/lcdc_rgba888_mxt_9x60_wvga/debug/_ext/1872342336/legato_imagedecoder_raw.o
 .debug_loc     0x00021dbc      0x2e0 build/lcdc_rgba888_mxt_9x60_wvga/debug/_ext/1872342336/legato_imagedecoder_raw_rotate.o
 .debug_loc     0x0002209c       0x6a build/lcdc_rgba888_mxt_9x60_wvga/debug/_ext/1872342336/legato_imagedecoder_raw_mask.o
 .debug_loc     0x00022106      0x114 build/lcdc_rgba888_mxt_9x60_wvga/debug/_ext/1872342336/legato_imagedecoder_raw_write.o
 .debug_loc     0x0002221a      0x101 build/lcdc_rgba888_mxt_9x60_wvga/debug/_ext/1872342336/legato_imagedecoder_raw_palette_internal.o
 .debug_loc     0x0002231b      0x147 build/lcdc_rgba888_mxt_9x60_wvga/debug/_ext/1872342336/legato_imagedecoder_raw_setup.o
 .debug_loc     0x00022462      0x206 build/lcdc_rgba888_mxt_9x60_wvga/debug/_ext/1872342336/legato_imagedecoder_raw_blend.o
 .debug_loc     0x00022668       0xb3 build/lcdc_rgba888_mxt_9x60_wvga/debug/_ext/1872342336/legato_imagedecoder_raw_convert.o
 .debug_loc     0x0002271b      0xb36 build/lcdc_rgba888_mxt_9x60_wvga/debug/_ext/1381099687/legato_image.o
 .debug_loc     0x00023251      0x553 build/lcdc_rgba888_mxt_9x60_wvga/debug/_ext/1381099687/legato_image_utils.o
 .debug_loc     0x000237a4      0x2fc build/lcdc_rgba888_mxt_9x60_wvga/debug/_ext/28088523/legato_fixedheap.o
 .debug_loc     0x00023aa0      0x712 build/lcdc_rgba888_mxt_9x60_wvga/debug/_ext/28088523/legato_memory.o
 .debug_loc     0x000241b2     0x1573 build/lcdc_rgba888_mxt_9x60_wvga/debug/_ext/28088523/legato_variableheap.o
 .debug_loc     0x00025725      0x51b build/lcdc_rgba888_mxt_9x60_wvga/debug/_ext/1081070089/legato_draw_rect.o
 .debug_loc     0x00025c40      0x87b build/lcdc_rgba888_mxt_9x60_wvga/debug/_ext/1081070089/legato_draw_line.o
 .debug_loc     0x000264bb     0x10ed build/lcdc_rgba888_mxt_9x60_wvga/debug/_ext/1081070089/legato_draw_arc.o
 .debug_loc     0x000275a8      0xc5e build/lcdc_rgba888_mxt_9x60_wvga/debug/_ext/1081070089/legato_renderer.o
 .debug_loc     0x00028206      0xf57 build/lcdc_rgba888_mxt_9x60_wvga/debug/_ext/1081070089/legato_draw.o
 .debug_loc     0x0002915d      0x862 build/lcdc_rgba888_mxt_9x60_wvga/debug/_ext/1081070089/legato_gpu.o
 .debug_loc     0x000299bf     0x22a8 build/lcdc_rgba888_mxt_9x60_wvga/debug/_ext/157682245/legato_stringutils.o
 .debug_loc     0x0002bc67      0x983 build/lcdc_rgba888_mxt_9x60_wvga/debug/_ext/157682245/legato_string.o
 .debug_loc     0x0002c5ea      0x7cf build/lcdc_rgba888_mxt_9x60_wvga/debug/_ext/157682245/legato_tablestring.o
 .debug_loc     0x0002cdb9      0x61b build/lcdc_rgba888_mxt_9x60_wvga/debug/_ext/157682245/legato_stringtable.o
 .debug_loc     0x0002d3d4      0x67b build/lcdc_rgba888_mxt_9x60_wvga/debug/_ext/157682245/legato_string_renderer.o
 .debug_loc     0x0002da4f      0xca5 build/lcdc_rgba888_mxt_9x60_wvga/debug/_ext/157682245/legato_fixedstring.o
 .debug_loc     0x0002e6f4      0xa94 build/lcdc_rgba888_mxt_9x60_wvga/debug/_ext/1339002025/legato_widget_button.o
 .debug_loc     0x0002f188      0x4c7 build/lcdc_rgba888_mxt_9x60_wvga/debug/_ext/1339002025/legato_widget_button_skin_classic.o
 .debug_loc     0x0002f64f      0x25d build/lcdc_rgba888_mxt_9x60_wvga/debug/_ext/1197524732/legato_widget_image_skin_classic.o
 .debug_loc     0x0002f8ac      0x235 build/lcdc_rgba888_mxt_9x60_wvga/debug/_ext/1197524732/legato_widget_image.o
 .debug_loc     0x0002fae1      0x963 build/lcdc_rgba888_mxt_9x60_wvga/debug/_ext/2015859515/legato_widget_imagesequence.o
 .debug_loc     0x00030444      0x28f build/lcdc_rgba888_mxt_9x60_wvga/debug/_ext/2015859515/legato_widget_imagesequence_skin_classic.o
 .debug_loc     0x000306d3      0x290 build/lcdc_rgba888_mxt_9x60_wvga/debug/_ext/1195110755/legato_widget_label_skin_classic.o
 .debug_loc     0x00030963      0x309 build/lcdc_rgba888_mxt_9x60_wvga/debug/_ext/1195110755/legato_widget_label.o
 .debug_loc     0x00030c6c      0x21a build/lcdc_rgba888_mxt_9x60_wvga/debug/_ext/337100648/legato_widget_rectangle_skin_classic.o
 .debug_loc     0x00030e86      0x1a7 build/lcdc_rgba888_mxt_9x60_wvga/debug/_ext/337100648/legato_widget_rectangle.o
 .debug_loc     0x0003102d      0x148 build/lcdc_rgba888_mxt_9x60_wvga/debug/_ext/261620856/legato_widget_skin_classic.o
 .debug_loc     0x00031175     0x244a build/lcdc_rgba888_mxt_9x60_wvga/debug/_ext/261620856/legato_widget.o
 .debug_loc     0x000335bf      0xc51 build/lcdc_rgba888_mxt_9x60_wvga/debug/_ext/261620856/legato_widget_skin_classic_common.o
 .debug_loc     0x00034210       0x6f build/lcdc_rgba888_mxt_9x60_wvga/debug/_ext/440801193/gfx_simulator.o
 .debug_loc     0x0003427f       0xfe build/lcdc_rgba888_mxt_9x60_wvga/debug/_ext/4986847/plib_aic.o
 .debug_loc     0x0003437d       0x4e build/lcdc_rgba888_mxt_9x60_wvga/debug/_ext/4988870/plib_clk.o
 .debug_loc     0x000343cb      0x6ce build/lcdc_rgba888_mxt_9x60_wvga/debug/_ext/4998521/plib_mmu.o
 .debug_loc     0x00034a99       0x94 build/lcdc_rgba888_mxt_9x60_wvga/debug/_ext/5001274/plib_pio.o
 .debug_loc     0x00034b2d       0x4a build/lcdc_rgba888_mxt_9x60_wvga/debug/_ext/286729486/xc32_monitor.o
 .debug_loc     0x00034b77      0x70e build/lcdc_rgba888_mxt_9x60_wvga/debug/_ext/1414187873/sys_input.o
 .debug_loc     0x00035285      0x53a build/lcdc_rgba888_mxt_9x60_wvga/debug/_ext/1826491803/sys_int.o
 .debug_loc     0x000357bf     0x1cd1 build/lcdc_rgba888_mxt_9x60_wvga/debug/_ext/1812361045/sys_time.o
 .debug_loc     0x00037490       0x20 build/lcdc_rgba888_mxt_9x60_wvga/debug/_ext/2052985144/tasks.o
 .debug_loc     0x000374b0       0xf8 build/lcdc_rgba888_mxt_9x60_wvga/debug/_ext/2052985144/initialization.o
 .debug_loc     0x000375a8      0x3bb build/lcdc_rgba888_mxt_9x60_wvga/debug/_ext/1360937237/app.o
 .debug_loc     0x00037963       0x20 build/lcdc_rgba888_mxt_9x60_wvga/debug/_ext/1360937237/main.o
 .debug_loc     0x00037983      0x318 c:/program files/microchip/xc32/v4.35/bin/bin/../../lib/gcc/pic32c/8.3.1/arm/v5te/nofp\libgcc.a(_udivmoddi4.o)
 .debug_loc     0x00037c9b       0x51 c:/program files/microchip/xc32/v4.35/bin/bin/../../lib/gcc/pic32c/8.3.1/../../../../pic32c/lib/arm/v5te/nofp\libg-musl.a(__libc_start_main.o)
 .debug_loc     0x00037cec      0xc42 c:/program files/microchip/xc32/v4.35/bin/bin/../../lib/gcc/pic32c/8.3.1/../../../../pic32c/lib/arm/v5te/nofp\libg-musl.a(malloc.o)
 .debug_loc     0x0003892e       0x8b c:/program files/microchip/xc32/v4.35/bin/bin/../../lib/gcc/pic32c/8.3.1/../../../../pic32c/lib/arm/v5te/nofp\libg-musl.a(expand_heap.o)
 .debug_loc     0x000389b9       0xb6 c:/program files/microchip/xc32/v4.35/bin/bin/../../lib/gcc/pic32c/8.3.1/../../../../pic32c/lib/arm/v5te/nofp\libg-musl.a(__sio_sprintf_dnpuxX.o)
 .debug_loc     0x00038a6f      0x1cf c:/program files/microchip/xc32/v4.35/bin/bin/../../lib/gcc/pic32c/8.3.1/../../../../pic32c/lib/arm/v5te/nofp\libg-musl.a(__fmt_d.o)
 .debug_loc     0x00038c3e      0x10a c:/program files/microchip/xc32/v4.35/bin/bin/../../lib/gcc/pic32c/8.3.1/../../../../pic32c/lib/arm/v5te/nofp\libg-musl.a(__fmt_u.o)
 .debug_loc     0x00038d48      0x29c c:/program files/microchip/xc32/v4.35/bin/bin/../../lib/gcc/pic32c/8.3.1/../../../../pic32c/lib/arm/v5te/nofp\libg-musl.a(__fmt_x.o)
 .debug_loc     0x00038fe4      0x2c8 c:/program files/microchip/xc32/v4.35/bin/bin/../../lib/gcc/pic32c/8.3.1/../../../../pic32c/lib/arm/v5te/nofp\libg-musl.a(__pop_int.o)
 .debug_loc     0x000392ac      0x181 c:/program files/microchip/xc32/v4.35/bin/bin/../../lib/gcc/pic32c/8.3.1/../../../../pic32c/lib/arm/v5te/nofp\libg-musl.a(__pop_ptr.o)
 .debug_loc     0x0003942d      0x594 c:/program files/microchip/xc32/v4.35/bin/bin/../../lib/gcc/pic32c/8.3.1/../../../../pic32c/lib/arm/v5te/nofp\libg-musl.a(__printf_core.o)
 .debug_loc     0x000399c1       0x20 c:/program files/microchip/xc32/v4.35/bin/bin/../../lib/gcc/pic32c/8.3.1/../../../../pic32c/lib/arm/v5te/nofp\libg-musl.a(stdout.o)
 .debug_loc     0x000399e1       0xe7 c:/program files/microchip/xc32/v4.35/bin/bin/../../lib/gcc/pic32c/8.3.1/../../../../pic32c/lib/arm/v5te/nofp\libg-musl.a(atoi.o)
 .debug_loc     0x00039ac8       0xb6 c:/program files/microchip/xc32/v4.35/bin/bin/../../lib/gcc/pic32c/8.3.1/../../../../pic32c/lib/arm/v5te/nofp\libg-musl.a(memcpy.o)
 .debug_loc     0x00039b7e       0x7d c:/program files/microchip/xc32/v4.35/bin/bin/../../lib/gcc/pic32c/8.3.1/../../../../pic32c/lib/arm/v5te/nofp\libg-musl.a(memset.o)
 .debug_loc     0x00039bfb       0x90 c:/program files/microchip/xc32/v4.35/bin/bin/../../lib/gcc/pic32c/8.3.1/../../../../pic32c/lib/arm/v5te/nofp\libg-musl.a(strlen.o)
 .debug_loc     0x00039c8b       0x4a c:/program files/microchip/xc32/v4.35/bin/bin/../../lib/gcc/pic32c/8.3.1/../../../../pic32c/lib/arm/v5te/nofp\libg-musl.a(tolower.o)
 .debug_loc     0x00039cd5       0x4a c:/program files/microchip/xc32/v4.35/bin/bin/../../lib/gcc/pic32c/8.3.1/../../../../pic32c/lib/arm/v5te/nofp\libg-musl.a(toupper.o)
 .debug_loc     0x00039d1f       0x88 c:/program files/microchip/xc32/v4.35/bin/bin/../../lib/gcc/pic32c/8.3.1/../../../../pic32c/lib/arm/v5te/nofp\libg-musl.a(__int_vfprintf.o)
 .debug_loc     0x00039da7       0x6c c:/program files/microchip/xc32/v4.35/bin/bin/../../lib/gcc/pic32c/8.3.1/../../../../pic32c/lib/arm/v5te/nofp\libg-musl.a(__int_vsprintf.o)
 .debug_loc     0x00039e13      0x165 c:/program files/microchip/xc32/v4.35/bin/bin/../../lib/gcc/pic32c/8.3.1/../../../../pic32c/lib/arm/v5te/nofp\libg-musl.a(__cvt_u.o)
 .debug_loc     0x00039f78       0xa6 c:/program files/microchip/xc32/v4.35/bin/bin/../../lib/gcc/pic32c/8.3.1/../../../../pic32c/lib/arm/v5te/nofp\libg-musl.a(__pop_float.o)
 .debug_loc     0x0003a01e      0x17e c:/program files/microchip/xc32/v4.35/bin/bin/../../lib/gcc/pic32c/8.3.1/../../../../pic32c/lib/arm/v5te/nofp\libg-musl.a(fwrite.o)
 .debug_loc     0x0003a19c      0x12a c:/program files/microchip/xc32/v4.35/bin/bin/../../lib/gcc/pic32c/8.3.1/../../../../pic32c/lib/arm/v5te/nofp\libg-musl.a(__int_vsnprintf.o)
 .debug_loc     0x0003a2c6       0x20 c:/program files/microchip/xc32/v4.35/bin/bin/../../lib/gcc/pic32c/8.3.1/../../../../pic32c/lib/arm/v5te/nofp\libg-musl.a(__init_stdio.o)
 .debug_loc     0x0003a2e6      0x1ae c:/program files/microchip/xc32/v4.35/bin/bin/../../lib/gcc/pic32c/8.3.1/../../../../pic32c/lib/arm/v5te/nofp\libg-musl.a(__out.o)

.debug_aranges  0x00000000     0x3160
 .debug_aranges
                0x00000000       0xc8 build/lcdc_rgba888_mxt_9x60_wvga/debug/_ext/1121151461/gfx_canvas_api.o
 .debug_aranges
                0x000000c8       0xa8 build/lcdc_rgba888_mxt_9x60_wvga/debug/_ext/1121151461/gfx_canvas.o
 .debug_aranges
                0x00000170      0x230 build/lcdc_rgba888_mxt_9x60_wvga/debug/_ext/1165331637/gfx_driver.o
 .debug_aranges
                0x000003a0       0xd8 build/lcdc_rgba888_mxt_9x60_wvga/debug/_ext/305146849/legato_pixelbuffer.o
 .debug_aranges
                0x00000478       0x90 build/lcdc_rgba888_mxt_9x60_wvga/debug/_ext/305146849/legato_utils.o
 .debug_aranges
                0x00000508      0x168 build/lcdc_rgba888_mxt_9x60_wvga/debug/_ext/305146849/legato_color_convert.o
 .debug_aranges
                0x00000670       0x70 build/lcdc_rgba888_mxt_9x60_wvga/debug/_ext/305146849/legato_rect.o
 .debug_aranges
                0x000006e0       0x60 build/lcdc_rgba888_mxt_9x60_wvga/debug/_ext/305146849/legato_color_lerp.o
 .debug_aranges
                0x00000740      0x138 build/lcdc_rgba888_mxt_9x60_wvga/debug/_ext/305146849/legato_math.o
 .debug_aranges
                0x00000878       0x28 build/lcdc_rgba888_mxt_9x60_wvga/debug/_ext/305146849/legato_color_blend.o
 .debug_aranges
                0x000008a0       0x40 build/lcdc_rgba888_mxt_9x60_wvga/debug/_ext/305146849/legato_color.o
 .debug_aranges
                0x000008e0       0x30 build/lcdc_rgba888_mxt_9x60_wvga/debug/_ext/1618192685/legato_scheme.o
 .debug_aranges
                0x00000910       0x78 build/lcdc_rgba888_mxt_9x60_wvga/debug/_ext/1618192685/legato_input.o
 .debug_aranges
                0x00000988       0x60 build/lcdc_rgba888_mxt_9x60_wvga/debug/_ext/1618192685/legato_event.o
 .debug_aranges
                0x000009e8      0x148 build/lcdc_rgba888_mxt_9x60_wvga/debug/_ext/1618192685/legato_state.o
 .debug_aranges
                0x00000b30       0x80 build/lcdc_rgba888_mxt_9x60_wvga/debug/_ext/109670485/legato_list.o
 .debug_aranges
                0x00000bb0       0xe0 build/lcdc_rgba888_mxt_9x60_wvga/debug/_ext/109670485/legato_rectarray.o
 .debug_aranges
                0x00000c90       0x98 build/lcdc_rgba888_mxt_9x60_wvga/debug/_ext/109670485/legato_array.o
 .debug_aranges
                0x00000d28       0x70 build/lcdc_rgba888_mxt_9x60_wvga/debug/_ext/1618103421/legato_font.o
 .debug_aranges
                0x00000d98       0x18 build/lcdc_rgba888_mxt_9x60_wvga/debug/_ext/644506877/le_gen_fonts.o
 .debug_aranges
                0x00000db0       0x18 build/lcdc_rgba888_mxt_9x60_wvga/debug/_ext/1497821479/le_gen_images.o
 .debug_aranges
                0x00000dc8       0x48 build/lcdc_rgba888_mxt_9x60_wvga/debug/_ext/534613472/le_gen_screen_Screen0.o
 .debug_aranges
                0x00000e10       0x20 build/lcdc_rgba888_mxt_9x60_wvga/debug/_ext/706129189/le_gen_stringtable.o
 .debug_aranges
                0x00000e30       0x40 build/lcdc_rgba888_mxt_9x60_wvga/debug/_ext/706129189/le_gen_init.o
 .debug_aranges
                0x00000e70       0x40 build/lcdc_rgba888_mxt_9x60_wvga/debug/_ext/706129189/le_gen_harmony.o
 .debug_aranges
                0x00000eb0       0x18 build/lcdc_rgba888_mxt_9x60_wvga/debug/_ext/706129189/le_gen_globalpalette.o
 .debug_aranges
                0x00000ec8       0x18 build/lcdc_rgba888_mxt_9x60_wvga/debug/_ext/706129189/le_gen_scheme.o
 .debug_aranges
                0x00000ee0       0x58 build/lcdc_rgba888_mxt_9x60_wvga/debug/_ext/2086705360/legato_imagedecoder_jpeg.o
 .debug_aranges
                0x00000f38       0x80 build/lcdc_rgba888_mxt_9x60_wvga/debug/_ext/2086705360/legato_imagedecoder_jpeg_common.o
 .debug_aranges
                0x00000fb8       0x20 build/lcdc_rgba888_mxt_9x60_wvga/debug/_ext/2086705360/jidctint.o
 .debug_aranges
                0x00000fd8       0x28 build/lcdc_rgba888_mxt_9x60_wvga/debug/_ext/2086794059/legato_imagedecoder_mono_read_internal.o
 .debug_aranges
                0x00001000       0x88 build/lcdc_rgba888_mxt_9x60_wvga/debug/_ext/2086794059/legato_imagedecoder_mono.o
 .debug_aranges
                0x00001088      0x270 build/lcdc_rgba888_mxt_9x60_wvga/debug/_ext/1872343871/lodepng.o
 .debug_aranges
                0x000012f8       0x50 build/lcdc_rgba888_mxt_9x60_wvga/debug/_ext/1872343871/legato_imagedecoder_png.o
 .debug_aranges
                0x00001348       0x58 build/lcdc_rgba888_mxt_9x60_wvga/debug/_ext/1872342336/legato_imagedecoder_raw_read_internal.o
 .debug_aranges
                0x000013a0       0x58 build/lcdc_rgba888_mxt_9x60_wvga/debug/_ext/1872342336/legato_imagedecoder_raw_scale.o
 .debug_aranges
                0x000013f8       0xa8 build/lcdc_rgba888_mxt_9x60_wvga/debug/_ext/1872342336/legato_imagedecoder_raw.o
 .debug_aranges
                0x000014a0       0x48 build/lcdc_rgba888_mxt_9x60_wvga/debug/_ext/1872342336/legato_imagedecoder_raw_rotate.o
 .debug_aranges
                0x000014e8       0x28 build/lcdc_rgba888_mxt_9x60_wvga/debug/_ext/1872342336/legato_imagedecoder_raw_mask.o
 .debug_aranges
                0x00001510       0x38 build/lcdc_rgba888_mxt_9x60_wvga/debug/_ext/1872342336/legato_imagedecoder_raw_write.o
 .debug_aranges
                0x00001548       0x38 build/lcdc_rgba888_mxt_9x60_wvga/debug/_ext/1872342336/legato_imagedecoder_raw_palette_internal.o
 .debug_aranges
                0x00001580       0x38 build/lcdc_rgba888_mxt_9x60_wvga/debug/_ext/1872342336/legato_imagedecoder_raw_setup.o
 .debug_aranges
                0x000015b8       0x38 build/lcdc_rgba888_mxt_9x60_wvga/debug/_ext/1872342336/legato_imagedecoder_raw_blend.o
 .debug_aranges
                0x000015f0       0x28 build/lcdc_rgba888_mxt_9x60_wvga/debug/_ext/1872342336/legato_imagedecoder_raw_convert.o
 .debug_aranges
                0x00001618       0x78 build/lcdc_rgba888_mxt_9x60_wvga/debug/_ext/1381099687/legato_image.o
 .debug_aranges
                0x00001690       0x78 build/lcdc_rgba888_mxt_9x60_wvga/debug/_ext/1381099687/legato_image_utils.o
 .debug_aranges
                0x00001708       0x48 build/lcdc_rgba888_mxt_9x60_wvga/debug/_ext/28088523/legato_fixedheap.o
 .debug_aranges
                0x00001750       0x60 build/lcdc_rgba888_mxt_9x60_wvga/debug/_ext/28088523/legato_memory.o
 .debug_aranges
                0x000017b0       0xa0 build/lcdc_rgba888_mxt_9x60_wvga/debug/_ext/28088523/legato_variableheap.o
 .debug_aranges
                0x00001850       0x38 build/lcdc_rgba888_mxt_9x60_wvga/debug/_ext/1081070089/legato_draw_rect.o
 .debug_aranges
                0x00001888       0x38 build/lcdc_rgba888_mxt_9x60_wvga/debug/_ext/1081070089/legato_draw_line.o
 .debug_aranges
                0x000018c0       0x58 build/lcdc_rgba888_mxt_9x60_wvga/debug/_ext/1081070089/legato_draw_arc.o
 .debug_aranges
                0x00001918       0xf0 build/lcdc_rgba888_mxt_9x60_wvga/debug/_ext/1081070089/legato_renderer.o
 .debug_aranges
                0x00001a08       0x88 build/lcdc_rgba888_mxt_9x60_wvga/debug/_ext/1081070089/legato_draw.o
 .debug_aranges
                0x00001a90       0x48 build/lcdc_rgba888_mxt_9x60_wvga/debug/_ext/1081070089/legato_gpu.o
 .debug_aranges
                0x00001ad8       0xb0 build/lcdc_rgba888_mxt_9x60_wvga/debug/_ext/157682245/legato_stringutils.o
 .debug_aranges
                0x00001b88       0x88 build/lcdc_rgba888_mxt_9x60_wvga/debug/_ext/157682245/legato_string.o
 .debug_aranges
                0x00001c10       0xb8 build/lcdc_rgba888_mxt_9x60_wvga/debug/_ext/157682245/legato_tablestring.o
 .debug_aranges
                0x00001cc8       0x50 build/lcdc_rgba888_mxt_9x60_wvga/debug/_ext/157682245/legato_stringtable.o
 .debug_aranges
                0x00001d18       0x30 build/lcdc_rgba888_mxt_9x60_wvga/debug/_ext/157682245/legato_string_renderer.o
 .debug_aranges
                0x00001d48       0xa0 build/lcdc_rgba888_mxt_9x60_wvga/debug/_ext/157682245/legato_fixedstring.o
 .debug_aranges
                0x00001de8      0x110 build/lcdc_rgba888_mxt_9x60_wvga/debug/_ext/1339002025/legato_widget_button.o
 .debug_aranges
                0x00001ef8       0x60 build/lcdc_rgba888_mxt_9x60_wvga/debug/_ext/1339002025/legato_widget_button_skin_classic.o
 .debug_aranges
                0x00001f58       0x48 build/lcdc_rgba888_mxt_9x60_wvga/debug/_ext/1197524732/legato_widget_image_skin_classic.o
 .debug_aranges
                0x00001fa0       0x50 build/lcdc_rgba888_mxt_9x60_wvga/debug/_ext/1197524732/legato_widget_image.o
 .debug_aranges
                0x00001ff0       0xe0 build/lcdc_rgba888_mxt_9x60_wvga/debug/_ext/2015859515/legato_widget_imagesequence.o
 .debug_aranges
                0x000020d0       0x48 build/lcdc_rgba888_mxt_9x60_wvga/debug/_ext/2015859515/legato_widget_imagesequence_skin_classic.o
 .debug_aranges
                0x00002118       0x48 build/lcdc_rgba888_mxt_9x60_wvga/debug/_ext/1195110755/legato_widget_label_skin_classic.o
 .debug_aranges
                0x00002160       0x60 build/lcdc_rgba888_mxt_9x60_wvga/debug/_ext/1195110755/legato_widget_label.o
 .debug_aranges
                0x000021c0       0x48 build/lcdc_rgba888_mxt_9x60_wvga/debug/_ext/337100648/legato_widget_rectangle_skin_classic.o
 .debug_aranges
                0x00002208       0x40 build/lcdc_rgba888_mxt_9x60_wvga/debug/_ext/337100648/legato_widget_rectangle.o
 .debug_aranges
                0x00002248       0x30 build/lcdc_rgba888_mxt_9x60_wvga/debug/_ext/261620856/legato_widget_skin_classic.o
 .debug_aranges
                0x00002278      0x2a0 build/lcdc_rgba888_mxt_9x60_wvga/debug/_ext/261620856/legato_widget.o
 .debug_aranges
                0x00002518       0xa0 build/lcdc_rgba888_mxt_9x60_wvga/debug/_ext/261620856/legato_widget_skin_classic_common.o
 .debug_aranges
                0x000025b8       0x70 build/lcdc_rgba888_mxt_9x60_wvga/debug/_ext/440801193/gfx_simulator.o
 .debug_aranges
                0x00002628       0x38 build/lcdc_rgba888_mxt_9x60_wvga/debug/_ext/4986847/plib_aic.o
 .debug_aranges
                0x00002660       0x20 build/lcdc_rgba888_mxt_9x60_wvga/debug/_ext/4988870/plib_clk.o
 .debug_aranges
                0x00002680       0x78 build/lcdc_rgba888_mxt_9x60_wvga/debug/_ext/4998521/plib_mmu.o
 .debug_aranges
                0x000026f8       0x60 build/lcdc_rgba888_mxt_9x60_wvga/debug/_ext/5001274/plib_pio.o
 .debug_aranges
                0x00002758       0x28 build/lcdc_rgba888_mxt_9x60_wvga/debug/_ext/286729486/xc32_monitor.o
 .debug_aranges
                0x00002780       0xa0 build/lcdc_rgba888_mxt_9x60_wvga/debug/_ext/1414187873/sys_input.o
 .debug_aranges
                0x00002820       0x70 build/lcdc_rgba888_mxt_9x60_wvga/debug/_ext/1826491803/sys_int.o
 .debug_aranges
                0x00002890      0x120 build/lcdc_rgba888_mxt_9x60_wvga/debug/_ext/1812361045/sys_time.o
 .debug_aranges
                0x000029b0       0x38 build/lcdc_rgba888_mxt_9x60_wvga/debug/_ext/2052985144/fault_handlers.o
 .debug_aranges
                0x000029e8       0x20 build/lcdc_rgba888_mxt_9x60_wvga/debug/_ext/2052985144/tasks.o
 .debug_aranges
                0x00002a08       0x20 build/lcdc_rgba888_mxt_9x60_wvga/debug/_ext/2052985144/initialization.o
 .debug_aranges
                0x00002a28       0x30 build/lcdc_rgba888_mxt_9x60_wvga/debug/_ext/2052985144/cstartup.o
 .debug_aranges
                0x00002a58       0xf8 build/lcdc_rgba888_mxt_9x60_wvga/debug/_ext/1360937237/app.o
 .debug_aranges
                0x00002b50       0x20 build/lcdc_rgba888_mxt_9x60_wvga/debug/_ext/1360937237/main.o
 .debug_aranges
                0x00002b70       0x20 c:/program files/microchip/xc32/v4.35/bin/bin/../../lib/gcc/pic32c/8.3.1/arm/v5te/nofp\libgcc.a(_udivsi3.o)
 .debug_aranges
                0x00002b90       0x20 c:/program files/microchip/xc32/v4.35/bin/bin/../../lib/gcc/pic32c/8.3.1/arm/v5te/nofp\libgcc.a(_divsi3.o)
 .debug_aranges
                0x00002bb0       0x20 c:/program files/microchip/xc32/v4.35/bin/bin/../../lib/gcc/pic32c/8.3.1/arm/v5te/nofp\libgcc.a(_dvmd_tls.o)
 .debug_aranges
                0x00002bd0       0x20 c:/program files/microchip/xc32/v4.35/bin/bin/../../lib/gcc/pic32c/8.3.1/arm/v5te/nofp\libgcc.a(_arm_addsubdf3.o)
 .debug_aranges
                0x00002bf0       0x20 c:/program files/microchip/xc32/v4.35/bin/bin/../../lib/gcc/pic32c/8.3.1/arm/v5te/nofp\libgcc.a(_arm_muldivdf3.o)
 .debug_aranges
                0x00002c10       0x20 c:/program files/microchip/xc32/v4.35/bin/bin/../../lib/gcc/pic32c/8.3.1/arm/v5te/nofp\libgcc.a(_arm_fixunsdfsi.o)
 .debug_aranges
                0x00002c30       0x20 c:/program files/microchip/xc32/v4.35/bin/bin/../../lib/gcc/pic32c/8.3.1/arm/v5te/nofp\libgcc.a(_arm_addsubsf3.o)
 .debug_aranges
                0x00002c50       0x20 c:/program files/microchip/xc32/v4.35/bin/bin/../../lib/gcc/pic32c/8.3.1/arm/v5te/nofp\libgcc.a(_arm_muldivsf3.o)
 .debug_aranges
                0x00002c70       0x20 c:/program files/microchip/xc32/v4.35/bin/bin/../../lib/gcc/pic32c/8.3.1/arm/v5te/nofp\libgcc.a(_arm_cmpsf2.o)
 .debug_aranges
                0x00002c90       0x20 c:/program files/microchip/xc32/v4.35/bin/bin/../../lib/gcc/pic32c/8.3.1/arm/v5te/nofp\libgcc.a(_arm_fixsfsi.o)
 .debug_aranges
                0x00002cb0       0x20 c:/program files/microchip/xc32/v4.35/bin/bin/../../lib/gcc/pic32c/8.3.1/arm/v5te/nofp\libgcc.a(_arm_fixunssfsi.o)
 .debug_aranges
                0x00002cd0       0x20 c:/program files/microchip/xc32/v4.35/bin/bin/../../lib/gcc/pic32c/8.3.1/arm/v5te/nofp\libgcc.a(_aeabi_uldivmod.o)
 .debug_aranges
                0x00002cf0       0x20 c:/program files/microchip/xc32/v4.35/bin/bin/../../lib/gcc/pic32c/8.3.1/arm/v5te/nofp\libgcc.a(_udivmoddi4.o)
 .debug_aranges
                0x00002d10       0x28 c:/program files/microchip/xc32/v4.35/bin/bin/../../lib/gcc/pic32c/8.3.1/../../../../pic32c/lib/arm/v5te/nofp\libg-musl.a(__libc_start_main.o)
 .debug_aranges
                0x00002d38       0x18 c:/program files/microchip/xc32/v4.35/bin/bin/../../lib/gcc/pic32c/8.3.1/../../../../pic32c/lib/arm/v5te/nofp\libg-musl.a(libc.o)
 .debug_aranges
                0x00002d50       0x70 c:/program files/microchip/xc32/v4.35/bin/bin/../../lib/gcc/pic32c/8.3.1/../../../../pic32c/lib/arm/v5te/nofp\libg-musl.a(malloc.o)
 .debug_aranges
                0x00002dc0       0x20 c:/program files/microchip/xc32/v4.35/bin/bin/../../lib/gcc/pic32c/8.3.1/../../../../pic32c/lib/arm/v5te/nofp\libg-musl.a(expand_heap.o)
 .debug_aranges
                0x00002de0       0x28 c:/program files/microchip/xc32/v4.35/bin/bin/../../lib/gcc/pic32c/8.3.1/../../../../pic32c/lib/arm/v5te/nofp\libg-musl.a(__sio_sprintf_dnpuxX.o)
 .debug_aranges
                0x00002e08       0x20 c:/program files/microchip/xc32/v4.35/bin/bin/../../lib/gcc/pic32c/8.3.1/../../../../pic32c/lib/arm/v5te/nofp\libg-musl.a(__fmt_d.o)
 .debug_aranges
                0x00002e28       0x20 c:/program files/microchip/xc32/v4.35/bin/bin/../../lib/gcc/pic32c/8.3.1/../../../../pic32c/lib/arm/v5te/nofp\libg-musl.a(__fmt_u.o)
 .debug_aranges
                0x00002e48       0x20 c:/program files/microchip/xc32/v4.35/bin/bin/../../lib/gcc/pic32c/8.3.1/../../../../pic32c/lib/arm/v5te/nofp\libg-musl.a(__fmt_x.o)
 .debug_aranges
                0x00002e68       0x20 c:/program files/microchip/xc32/v4.35/bin/bin/../../lib/gcc/pic32c/8.3.1/../../../../pic32c/lib/arm/v5te/nofp\libg-musl.a(__pop_int.o)
 .debug_aranges
                0x00002e88       0x20 c:/program files/microchip/xc32/v4.35/bin/bin/../../lib/gcc/pic32c/8.3.1/../../../../pic32c/lib/arm/v5te/nofp\libg-musl.a(__pop_ptr.o)
 .debug_aranges
                0x00002ea8       0x50 c:/program files/microchip/xc32/v4.35/bin/bin/../../lib/gcc/pic32c/8.3.1/../../../../pic32c/lib/arm/v5te/nofp\libg-musl.a(__printf_core.o)
 .debug_aranges
                0x00002ef8       0x30 c:/program files/microchip/xc32/v4.35/bin/bin/../../lib/gcc/pic32c/8.3.1/../../../../pic32c/lib/arm/v5te/nofp\libg-musl.a(stdout.o)
 .debug_aranges
                0x00002f28       0x20 c:/program files/microchip/xc32/v4.35/bin/bin/../../lib/gcc/pic32c/8.3.1/../../../../pic32c/lib/arm/v5te/nofp\libg-musl.a(atoi.o)
 .debug_aranges
                0x00002f48       0x20 c:/program files/microchip/xc32/v4.35/bin/bin/../../lib/gcc/pic32c/8.3.1/../../../../pic32c/lib/arm/v5te/nofp\libg-musl.a(memcpy.o)
 .debug_aranges
                0x00002f68       0x20 c:/program files/microchip/xc32/v4.35/bin/bin/../../lib/gcc/pic32c/8.3.1/../../../../pic32c/lib/arm/v5te/nofp\libg-musl.a(memset.o)
 .debug_aranges
                0x00002f88       0x20 c:/program files/microchip/xc32/v4.35/bin/bin/../../lib/gcc/pic32c/8.3.1/../../../../pic32c/lib/arm/v5te/nofp\libg-musl.a(strlen.o)
 .debug_aranges
                0x00002fa8       0x28 c:/program files/microchip/xc32/v4.35/bin/bin/../../lib/gcc/pic32c/8.3.1/../../../../pic32c/lib/arm/v5te/nofp\libg-musl.a(tolower.o)
 .debug_aranges
                0x00002fd0       0x28 c:/program files/microchip/xc32/v4.35/bin/bin/../../lib/gcc/pic32c/8.3.1/../../../../pic32c/lib/arm/v5te/nofp\libg-musl.a(toupper.o)
 .debug_aranges
                0x00002ff8       0x18 c:/program files/microchip/xc32/v4.35/bin/bin/../../lib/gcc/pic32c/8.3.1/../../../../pic32c/lib/arm/v5te/nofp\libg-musl.a(__environ.o)
 .debug_aranges
                0x00003010       0x18 c:/program files/microchip/xc32/v4.35/bin/bin/../../lib/gcc/pic32c/8.3.1/../../../../pic32c/lib/arm/v5te/nofp\libg-musl.a(__errno_location.o)
 .debug_aranges
                0x00003028       0x20 c:/program files/microchip/xc32/v4.35/bin/bin/../../lib/gcc/pic32c/8.3.1/../../../../pic32c/lib/arm/v5te/nofp\libg-musl.a(__int_vfprintf.o)
 .debug_aranges
                0x00003048       0x20 c:/program files/microchip/xc32/v4.35/bin/bin/../../lib/gcc/pic32c/8.3.1/../../../../pic32c/lib/arm/v5te/nofp\libg-musl.a(__int_vsprintf.o)
 .debug_aranges
                0x00003068       0x20 c:/program files/microchip/xc32/v4.35/bin/bin/../../lib/gcc/pic32c/8.3.1/../../../../pic32c/lib/arm/v5te/nofp\libg-musl.a(__cvt_u.o)
 .debug_aranges
                0x00003088       0x20 c:/program files/microchip/xc32/v4.35/bin/bin/../../lib/gcc/pic32c/8.3.1/../../../../pic32c/lib/arm/v5te/nofp\libg-musl.a(__pop_float.o)
 .debug_aranges
                0x000030a8       0x28 c:/program files/microchip/xc32/v4.35/bin/bin/../../lib/gcc/pic32c/8.3.1/../../../../pic32c/lib/arm/v5te/nofp\libg-musl.a(fwrite.o)
 .debug_aranges
                0x000030d0       0x20 c:/program files/microchip/xc32/v4.35/bin/bin/../../lib/gcc/pic32c/8.3.1/../../../../pic32c/lib/arm/v5te/nofp\libg-musl.a(__int_vsnprintf.o)
 .debug_aranges
                0x000030f0       0x28 c:/program files/microchip/xc32/v4.35/bin/bin/../../lib/gcc/pic32c/8.3.1/../../../../pic32c/lib/arm/v5te/nofp\libg-musl.a(__init_stdio.o)
 .debug_aranges
                0x00003118       0x28 c:/program files/microchip/xc32/v4.35/bin/bin/../../lib/gcc/pic32c/8.3.1/../../../../pic32c/lib/arm/v5te/nofp\libg-musl.a(__out.o)
 .debug_aranges
                0x00003140       0x20 c:/program files/microchip/xc32/v4.35/bin/bin/../../lib/gcc/pic32c/8.3.1/../../../../pic32c/lib/arm/v5te/nofp\libpic32c.a(sbrk.o)

.debug_ranges   0x00000000     0x3c78
 .debug_ranges  0x00000000       0xb8 build/lcdc_rgba888_mxt_9x60_wvga/debug/_ext/1121151461/gfx_canvas_api.o
 .debug_ranges  0x000000b8      0x130 build/lcdc_rgba888_mxt_9x60_wvga/debug/_ext/1121151461/gfx_canvas.o
 .debug_ranges  0x000001e8      0x2d0 build/lcdc_rgba888_mxt_9x60_wvga/debug/_ext/1165331637/gfx_driver.o
 .debug_ranges  0x000004b8       0xc8 build/lcdc_rgba888_mxt_9x60_wvga/debug/_ext/305146849/legato_pixelbuffer.o
 .debug_ranges  0x00000580       0x80 build/lcdc_rgba888_mxt_9x60_wvga/debug/_ext/305146849/legato_utils.o
 .debug_ranges  0x00000600      0x158 build/lcdc_rgba888_mxt_9x60_wvga/debug/_ext/305146849/legato_color_convert.o
 .debug_ranges  0x00000758       0x60 build/lcdc_rgba888_mxt_9x60_wvga/debug/_ext/305146849/legato_rect.o
 .debug_ranges  0x000007b8       0x50 build/lcdc_rgba888_mxt_9x60_wvga/debug/_ext/305146849/legato_color_lerp.o
 .debug_ranges  0x00000808      0x128 build/lcdc_rgba888_mxt_9x60_wvga/debug/_ext/305146849/legato_math.o
 .debug_ranges  0x00000930      0x108 build/lcdc_rgba888_mxt_9x60_wvga/debug/_ext/305146849/legato_color_blend.o
 .debug_ranges  0x00000a38       0x90 build/lcdc_rgba888_mxt_9x60_wvga/debug/_ext/305146849/legato_color.o
 .debug_ranges  0x00000ac8       0x20 build/lcdc_rgba888_mxt_9x60_wvga/debug/_ext/1618192685/legato_scheme.o
 .debug_ranges  0x00000ae8       0x68 build/lcdc_rgba888_mxt_9x60_wvga/debug/_ext/1618192685/legato_input.o
 .debug_ranges  0x00000b50       0x68 build/lcdc_rgba888_mxt_9x60_wvga/debug/_ext/1618192685/legato_event.o
 .debug_ranges  0x00000bb8      0x138 build/lcdc_rgba888_mxt_9x60_wvga/debug/_ext/1618192685/legato_state.o
 .debug_ranges  0x00000cf0       0x70 build/lcdc_rgba888_mxt_9x60_wvga/debug/_ext/109670485/legato_list.o
 .debug_ranges  0x00000d60       0xd0 build/lcdc_rgba888_mxt_9x60_wvga/debug/_ext/109670485/legato_rectarray.o
 .debug_ranges  0x00000e30       0x88 build/lcdc_rgba888_mxt_9x60_wvga/debug/_ext/109670485/legato_array.o
 .debug_ranges  0x00000eb8       0x60 build/lcdc_rgba888_mxt_9x60_wvga/debug/_ext/1618103421/legato_font.o
 .debug_ranges  0x00000f18       0x38 build/lcdc_rgba888_mxt_9x60_wvga/debug/_ext/534613472/le_gen_screen_Screen0.o
 .debug_ranges  0x00000f50       0x10 build/lcdc_rgba888_mxt_9x60_wvga/debug/_ext/706129189/le_gen_stringtable.o
 .debug_ranges  0x00000f60       0x48 build/lcdc_rgba888_mxt_9x60_wvga/debug/_ext/706129189/le_gen_init.o
 .debug_ranges  0x00000fa8       0x30 build/lcdc_rgba888_mxt_9x60_wvga/debug/_ext/706129189/le_gen_harmony.o
 .debug_ranges  0x00000fd8       0x48 build/lcdc_rgba888_mxt_9x60_wvga/debug/_ext/2086705360/legato_imagedecoder_jpeg.o
 .debug_ranges  0x00001020      0x190 build/lcdc_rgba888_mxt_9x60_wvga/debug/_ext/2086705360/legato_imagedecoder_jpeg_common.o
 .debug_ranges  0x000011b0       0x10 build/lcdc_rgba888_mxt_9x60_wvga/debug/_ext/2086705360/jidctint.o
 .debug_ranges  0x000011c0       0x18 build/lcdc_rgba888_mxt_9x60_wvga/debug/_ext/2086794059/legato_imagedecoder_mono_read_internal.o
 .debug_ranges  0x000011d8       0x78 build/lcdc_rgba888_mxt_9x60_wvga/debug/_ext/2086794059/legato_imagedecoder_mono.o
 .debug_ranges  0x00001250      0xd60 build/lcdc_rgba888_mxt_9x60_wvga/debug/_ext/1872343871/lodepng.o
 .debug_ranges  0x00001fb0       0x40 build/lcdc_rgba888_mxt_9x60_wvga/debug/_ext/1872343871/legato_imagedecoder_png.o
 .debug_ranges  0x00001ff0       0x48 build/lcdc_rgba888_mxt_9x60_wvga/debug/_ext/1872342336/legato_imagedecoder_raw_read_internal.o
 .debug_ranges  0x00002038       0x48 build/lcdc_rgba888_mxt_9x60_wvga/debug/_ext/1872342336/legato_imagedecoder_raw_scale.o
 .debug_ranges  0x00002080       0x98 build/lcdc_rgba888_mxt_9x60_wvga/debug/_ext/1872342336/legato_imagedecoder_raw.o
 .debug_ranges  0x00002118       0x38 build/lcdc_rgba888_mxt_9x60_wvga/debug/_ext/1872342336/legato_imagedecoder_raw_rotate.o
 .debug_ranges  0x00002150       0x18 build/lcdc_rgba888_mxt_9x60_wvga/debug/_ext/1872342336/legato_imagedecoder_raw_mask.o
 .debug_ranges  0x00002168       0x28 build/lcdc_rgba888_mxt_9x60_wvga/debug/_ext/1872342336/legato_imagedecoder_raw_write.o
 .debug_ranges  0x00002190       0x28 build/lcdc_rgba888_mxt_9x60_wvga/debug/_ext/1872342336/legato_imagedecoder_raw_palette_internal.o
 .debug_ranges  0x000021b8       0x28 build/lcdc_rgba888_mxt_9x60_wvga/debug/_ext/1872342336/legato_imagedecoder_raw_setup.o
 .debug_ranges  0x000021e0       0x28 build/lcdc_rgba888_mxt_9x60_wvga/debug/_ext/1872342336/legato_imagedecoder_raw_blend.o
 .debug_ranges  0x00002208       0x18 build/lcdc_rgba888_mxt_9x60_wvga/debug/_ext/1872342336/legato_imagedecoder_raw_convert.o
 .debug_ranges  0x00002220       0x68 build/lcdc_rgba888_mxt_9x60_wvga/debug/_ext/1381099687/legato_image.o
 .debug_ranges  0x00002288       0x68 build/lcdc_rgba888_mxt_9x60_wvga/debug/_ext/1381099687/legato_image_utils.o
 .debug_ranges  0x000022f0       0x38 build/lcdc_rgba888_mxt_9x60_wvga/debug/_ext/28088523/legato_fixedheap.o
 .debug_ranges  0x00002328       0xa8 build/lcdc_rgba888_mxt_9x60_wvga/debug/_ext/28088523/legato_memory.o
 .debug_ranges  0x000023d0      0x138 build/lcdc_rgba888_mxt_9x60_wvga/debug/_ext/28088523/legato_variableheap.o
 .debug_ranges  0x00002508       0x28 build/lcdc_rgba888_mxt_9x60_wvga/debug/_ext/1081070089/legato_draw_rect.o
 .debug_ranges  0x00002530       0x28 build/lcdc_rgba888_mxt_9x60_wvga/debug/_ext/1081070089/legato_draw_line.o
 .debug_ranges  0x00002558       0xc8 build/lcdc_rgba888_mxt_9x60_wvga/debug/_ext/1081070089/legato_draw_arc.o
 .debug_ranges  0x00002620      0x148 build/lcdc_rgba888_mxt_9x60_wvga/debug/_ext/1081070089/legato_renderer.o
 .debug_ranges  0x00002768       0x78 build/lcdc_rgba888_mxt_9x60_wvga/debug/_ext/1081070089/legato_draw.o
 .debug_ranges  0x000027e0       0x38 build/lcdc_rgba888_mxt_9x60_wvga/debug/_ext/1081070089/legato_gpu.o
 .debug_ranges  0x00002818       0xa0 build/lcdc_rgba888_mxt_9x60_wvga/debug/_ext/157682245/legato_stringutils.o
 .debug_ranges  0x000028b8       0x78 build/lcdc_rgba888_mxt_9x60_wvga/debug/_ext/157682245/legato_string.o
 .debug_ranges  0x00002930       0xa8 build/lcdc_rgba888_mxt_9x60_wvga/debug/_ext/157682245/legato_tablestring.o
 .debug_ranges  0x000029d8       0x40 build/lcdc_rgba888_mxt_9x60_wvga/debug/_ext/157682245/legato_stringtable.o
 .debug_ranges  0x00002a18       0x58 build/lcdc_rgba888_mxt_9x60_wvga/debug/_ext/157682245/legato_string_renderer.o
 .debug_ranges  0x00002a70       0x90 build/lcdc_rgba888_mxt_9x60_wvga/debug/_ext/157682245/legato_fixedstring.o
 .debug_ranges  0x00002b00      0x100 build/lcdc_rgba888_mxt_9x60_wvga/debug/_ext/1339002025/legato_widget_button.o
 .debug_ranges  0x00002c00       0x50 build/lcdc_rgba888_mxt_9x60_wvga/debug/_ext/1339002025/legato_widget_button_skin_classic.o
 .debug_ranges  0x00002c50       0x38 build/lcdc_rgba888_mxt_9x60_wvga/debug/_ext/1197524732/legato_widget_image_skin_classic.o
 .debug_ranges  0x00002c88       0x40 build/lcdc_rgba888_mxt_9x60_wvga/debug/_ext/1197524732/legato_widget_image.o
 .debug_ranges  0x00002cc8       0xd0 build/lcdc_rgba888_mxt_9x60_wvga/debug/_ext/2015859515/legato_widget_imagesequence.o
 .debug_ranges  0x00002d98       0x38 build/lcdc_rgba888_mxt_9x60_wvga/debug/_ext/2015859515/legato_widget_imagesequence_skin_classic.o
 .debug_ranges  0x00002dd0       0x38 build/lcdc_rgba888_mxt_9x60_wvga/debug/_ext/1195110755/legato_widget_label_skin_classic.o
 .debug_ranges  0x00002e08       0x50 build/lcdc_rgba888_mxt_9x60_wvga/debug/_ext/1195110755/legato_widget_label.o
 .debug_ranges  0x00002e58       0x38 build/lcdc_rgba888_mxt_9x60_wvga/debug/_ext/337100648/legato_widget_rectangle_skin_classic.o
 .debug_ranges  0x00002e90       0x30 build/lcdc_rgba888_mxt_9x60_wvga/debug/_ext/337100648/legato_widget_rectangle.o
 .debug_ranges  0x00002ec0       0x20 build/lcdc_rgba888_mxt_9x60_wvga/debug/_ext/261620856/legato_widget_skin_classic.o
 .debug_ranges  0x00002ee0      0x290 build/lcdc_rgba888_mxt_9x60_wvga/debug/_ext/261620856/legato_widget.o
 .debug_ranges  0x00003170       0x90 build/lcdc_rgba888_mxt_9x60_wvga/debug/_ext/261620856/legato_widget_skin_classic_common.o
 .debug_ranges  0x00003200       0x60 build/lcdc_rgba888_mxt_9x60_wvga/debug/_ext/440801193/gfx_simulator.o
 .debug_ranges  0x00003260       0x40 build/lcdc_rgba888_mxt_9x60_wvga/debug/_ext/4986847/plib_aic.o
 .debug_ranges  0x000032a0       0x10 build/lcdc_rgba888_mxt_9x60_wvga/debug/_ext/4988870/plib_clk.o
 .debug_ranges  0x000032b0      0x170 build/lcdc_rgba888_mxt_9x60_wvga/debug/_ext/4998521/plib_mmu.o
 .debug_ranges  0x00003420       0x50 build/lcdc_rgba888_mxt_9x60_wvga/debug/_ext/5001274/plib_pio.o
 .debug_ranges  0x00003470       0x18 build/lcdc_rgba888_mxt_9x60_wvga/debug/_ext/286729486/xc32_monitor.o
 .debug_ranges  0x00003488       0x90 build/lcdc_rgba888_mxt_9x60_wvga/debug/_ext/1414187873/sys_input.o
 .debug_ranges  0x00003518       0x98 build/lcdc_rgba888_mxt_9x60_wvga/debug/_ext/1826491803/sys_int.o
 .debug_ranges  0x000035b0      0x158 build/lcdc_rgba888_mxt_9x60_wvga/debug/_ext/1812361045/sys_time.o
 .debug_ranges  0x00003708       0x28 build/lcdc_rgba888_mxt_9x60_wvga/debug/_ext/2052985144/fault_handlers.o
 .debug_ranges  0x00003730       0x10 build/lcdc_rgba888_mxt_9x60_wvga/debug/_ext/2052985144/tasks.o
 .debug_ranges  0x00003740       0x10 build/lcdc_rgba888_mxt_9x60_wvga/debug/_ext/2052985144/initialization.o
 .debug_ranges  0x00003750       0x28 build/lcdc_rgba888_mxt_9x60_wvga/debug/_ext/2052985144/cstartup.o
 .debug_ranges  0x00003778       0xe8 build/lcdc_rgba888_mxt_9x60_wvga/debug/_ext/1360937237/app.o
 .debug_ranges  0x00003860       0x10 build/lcdc_rgba888_mxt_9x60_wvga/debug/_ext/1360937237/main.o
 .debug_ranges  0x00003870       0x40 c:/program files/microchip/xc32/v4.35/bin/bin/../../lib/gcc/pic32c/8.3.1/../../../../pic32c/lib/arm/v5te/nofp\libg-musl.a(__libc_start_main.o)
 .debug_ranges  0x000038b0      0x1a8 c:/program files/microchip/xc32/v4.35/bin/bin/../../lib/gcc/pic32c/8.3.1/../../../../pic32c/lib/arm/v5te/nofp\libg-musl.a(malloc.o)
 .debug_ranges  0x00003a58       0x10 c:/program files/microchip/xc32/v4.35/bin/bin/../../lib/gcc/pic32c/8.3.1/../../../../pic32c/lib/arm/v5te/nofp\libg-musl.a(expand_heap.o)
 .debug_ranges  0x00003a68       0x18 c:/program files/microchip/xc32/v4.35/bin/bin/../../lib/gcc/pic32c/8.3.1/../../../../pic32c/lib/arm/v5te/nofp\libg-musl.a(__sio_sprintf_dnpuxX.o)
 .debug_ranges  0x00003a80       0x10 c:/program files/microchip/xc32/v4.35/bin/bin/../../lib/gcc/pic32c/8.3.1/../../../../pic32c/lib/arm/v5te/nofp\libg-musl.a(__fmt_d.o)
 .debug_ranges  0x00003a90       0x10 c:/program files/microchip/xc32/v4.35/bin/bin/../../lib/gcc/pic32c/8.3.1/../../../../pic32c/lib/arm/v5te/nofp\libg-musl.a(__fmt_u.o)
 .debug_ranges  0x00003aa0       0x10 c:/program files/microchip/xc32/v4.35/bin/bin/../../lib/gcc/pic32c/8.3.1/../../../../pic32c/lib/arm/v5te/nofp\libg-musl.a(__fmt_x.o)
 .debug_ranges  0x00003ab0       0x10 c:/program files/microchip/xc32/v4.35/bin/bin/../../lib/gcc/pic32c/8.3.1/../../../../pic32c/lib/arm/v5te/nofp\libg-musl.a(__pop_int.o)
 .debug_ranges  0x00003ac0       0x10 c:/program files/microchip/xc32/v4.35/bin/bin/../../lib/gcc/pic32c/8.3.1/../../../../pic32c/lib/arm/v5te/nofp\libg-musl.a(__pop_ptr.o)
 .debug_ranges  0x00003ad0       0x58 c:/program files/microchip/xc32/v4.35/bin/bin/../../lib/gcc/pic32c/8.3.1/../../../../pic32c/lib/arm/v5te/nofp\libg-musl.a(__printf_core.o)
 .debug_ranges  0x00003b28       0x20 c:/program files/microchip/xc32/v4.35/bin/bin/../../lib/gcc/pic32c/8.3.1/../../../../pic32c/lib/arm/v5te/nofp\libg-musl.a(stdout.o)
 .debug_ranges  0x00003b48       0x10 c:/program files/microchip/xc32/v4.35/bin/bin/../../lib/gcc/pic32c/8.3.1/../../../../pic32c/lib/arm/v5te/nofp\libg-musl.a(atoi.o)
 .debug_ranges  0x00003b58       0x10 c:/program files/microchip/xc32/v4.35/bin/bin/../../lib/gcc/pic32c/8.3.1/../../../../pic32c/lib/arm/v5te/nofp\libg-musl.a(memcpy.o)
 .debug_ranges  0x00003b68       0x10 c:/program files/microchip/xc32/v4.35/bin/bin/../../lib/gcc/pic32c/8.3.1/../../../../pic32c/lib/arm/v5te/nofp\libg-musl.a(memset.o)
 .debug_ranges  0x00003b78       0x10 c:/program files/microchip/xc32/v4.35/bin/bin/../../lib/gcc/pic32c/8.3.1/../../../../pic32c/lib/arm/v5te/nofp\libg-musl.a(strlen.o)
 .debug_ranges  0x00003b88       0x18 c:/program files/microchip/xc32/v4.35/bin/bin/../../lib/gcc/pic32c/8.3.1/../../../../pic32c/lib/arm/v5te/nofp\libg-musl.a(tolower.o)
 .debug_ranges  0x00003ba0       0x18 c:/program files/microchip/xc32/v4.35/bin/bin/../../lib/gcc/pic32c/8.3.1/../../../../pic32c/lib/arm/v5te/nofp\libg-musl.a(toupper.o)
 .debug_ranges  0x00003bb8       0x10 c:/program files/microchip/xc32/v4.35/bin/bin/../../lib/gcc/pic32c/8.3.1/../../../../pic32c/lib/arm/v5te/nofp\libg-musl.a(__int_vfprintf.o)
 .debug_ranges  0x00003bc8       0x10 c:/program files/microchip/xc32/v4.35/bin/bin/../../lib/gcc/pic32c/8.3.1/../../../../pic32c/lib/arm/v5te/nofp\libg-musl.a(__int_vsprintf.o)
 .debug_ranges  0x00003bd8       0x10 c:/program files/microchip/xc32/v4.35/bin/bin/../../lib/gcc/pic32c/8.3.1/../../../../pic32c/lib/arm/v5te/nofp\libg-musl.a(__cvt_u.o)
 .debug_ranges  0x00003be8       0x10 c:/program files/microchip/xc32/v4.35/bin/bin/../../lib/gcc/pic32c/8.3.1/../../../../pic32c/lib/arm/v5te/nofp\libg-musl.a(__pop_float.o)
 .debug_ranges  0x00003bf8       0x18 c:/program files/microchip/xc32/v4.35/bin/bin/../../lib/gcc/pic32c/8.3.1/../../../../pic32c/lib/arm/v5te/nofp\libg-musl.a(fwrite.o)
 .debug_ranges  0x00003c10       0x10 c:/program files/microchip/xc32/v4.35/bin/bin/../../lib/gcc/pic32c/8.3.1/../../../../pic32c/lib/arm/v5te/nofp\libg-musl.a(__int_vsnprintf.o)
 .debug_ranges  0x00003c20       0x18 c:/program files/microchip/xc32/v4.35/bin/bin/../../lib/gcc/pic32c/8.3.1/../../../../pic32c/lib/arm/v5te/nofp\libg-musl.a(__init_stdio.o)
 .debug_ranges  0x00003c38       0x30 c:/program files/microchip/xc32/v4.35/bin/bin/../../lib/gcc/pic32c/8.3.1/../../../../pic32c/lib/arm/v5te/nofp\libg-musl.a(__out.o)
 .debug_ranges  0x00003c68       0x10 c:/program files/microchip/xc32/v4.35/bin/bin/../../lib/gcc/pic32c/8.3.1/../../../../pic32c/lib/arm/v5te/nofp\libpic32c.a(sbrk.o)

.debug_line     0x00000000    0x2ea0c
 .debug_line    0x00000000      0x6b8 build/lcdc_rgba888_mxt_9x60_wvga/debug/_ext/1121151461/gfx_canvas_api.o
 .debug_line    0x000006b8      0xc75 build/lcdc_rgba888_mxt_9x60_wvga/debug/_ext/1121151461/gfx_canvas.o
 .debug_line    0x0000132d      0xe0f build/lcdc_rgba888_mxt_9x60_wvga/debug/_ext/1165331637/gfx_driver.o
 .debug_line    0x0000213c      0x7cc build/lcdc_rgba888_mxt_9x60_wvga/debug/_ext/305146849/legato_pixelbuffer.o
 .debug_line    0x00002908      0x92a build/lcdc_rgba888_mxt_9x60_wvga/debug/_ext/305146849/legato_utils.o
 .debug_line    0x00003232      0x86d build/lcdc_rgba888_mxt_9x60_wvga/debug/_ext/305146849/legato_color_convert.o
 .debug_line    0x00003a9f      0x697 build/lcdc_rgba888_mxt_9x60_wvga/debug/_ext/305146849/legato_rect.o
 .debug_line    0x00004136      0x3ea build/lcdc_rgba888_mxt_9x60_wvga/debug/_ext/305146849/legato_color_lerp.o
 .debug_line    0x00004520      0xcd0 build/lcdc_rgba888_mxt_9x60_wvga/debug/_ext/305146849/legato_math.o
 .debug_line    0x000051f0      0x3b6 build/lcdc_rgba888_mxt_9x60_wvga/debug/_ext/305146849/legato_color_blend.o
 .debug_line    0x000055a6      0x260 build/lcdc_rgba888_mxt_9x60_wvga/debug/_ext/305146849/legato_color.o
 .debug_line    0x00005806      0x266 build/lcdc_rgba888_mxt_9x60_wvga/debug/_ext/1618192685/legato_scheme.o
 .debug_line    0x00005a6c      0x91e build/lcdc_rgba888_mxt_9x60_wvga/debug/_ext/1618192685/legato_input.o
 .debug_line    0x0000638a      0x3f4 build/lcdc_rgba888_mxt_9x60_wvga/debug/_ext/1618192685/legato_event.o
 .debug_line    0x0000677e      0xe75 build/lcdc_rgba888_mxt_9x60_wvga/debug/_ext/1618192685/legato_state.o
 .debug_line    0x000075f3      0x819 build/lcdc_rgba888_mxt_9x60_wvga/debug/_ext/109670485/legato_list.o
 .debug_line    0x00007e0c      0xc27 build/lcdc_rgba888_mxt_9x60_wvga/debug/_ext/109670485/legato_rectarray.o
 .debug_line    0x00008a33      0x638 build/lcdc_rgba888_mxt_9x60_wvga/debug/_ext/109670485/legato_array.o
 .debug_line    0x0000906b      0x8d4 build/lcdc_rgba888_mxt_9x60_wvga/debug/_ext/1618103421/legato_font.o
 .debug_line    0x0000993f      0x249 build/lcdc_rgba888_mxt_9x60_wvga/debug/_ext/644506877/le_gen_fonts.o
 .debug_line    0x00009b88      0x277 build/lcdc_rgba888_mxt_9x60_wvga/debug/_ext/1497821479/le_gen_images.o
 .debug_line    0x00009dff     0x1925 build/lcdc_rgba888_mxt_9x60_wvga/debug/_ext/534613472/le_gen_screen_Screen0.o
 .debug_line    0x0000b724      0x2c8 build/lcdc_rgba888_mxt_9x60_wvga/debug/_ext/706129189/le_gen_stringtable.o
 .debug_line    0x0000b9ec      0x3b8 build/lcdc_rgba888_mxt_9x60_wvga/debug/_ext/706129189/le_gen_init.o
 .debug_line    0x0000bda4      0x499 build/lcdc_rgba888_mxt_9x60_wvga/debug/_ext/706129189/le_gen_harmony.o
 .debug_line    0x0000c23d      0x236 build/lcdc_rgba888_mxt_9x60_wvga/debug/_ext/706129189/le_gen_globalpalette.o
 .debug_line    0x0000c473      0x1cf build/lcdc_rgba888_mxt_9x60_wvga/debug/_ext/706129189/le_gen_scheme.o
 .debug_line    0x0000c642      0x745 build/lcdc_rgba888_mxt_9x60_wvga/debug/_ext/2086705360/legato_imagedecoder_jpeg.o
 .debug_line    0x0000cd87     0x1188 build/lcdc_rgba888_mxt_9x60_wvga/debug/_ext/2086705360/legato_imagedecoder_jpeg_common.o
 .debug_line    0x0000df0f      0x55a build/lcdc_rgba888_mxt_9x60_wvga/debug/_ext/2086705360/jidctint.o
 .debug_line    0x0000e469      0x264 build/lcdc_rgba888_mxt_9x60_wvga/debug/_ext/2086794059/legato_imagedecoder_mono_read_internal.o
 .debug_line    0x0000e6cd      0x806 build/lcdc_rgba888_mxt_9x60_wvga/debug/_ext/2086794059/legato_imagedecoder_mono.o
 .debug_line    0x0000eed3     0x4684 build/lcdc_rgba888_mxt_9x60_wvga/debug/_ext/1872343871/lodepng.o
 .debug_line    0x00013557      0x4f7 build/lcdc_rgba888_mxt_9x60_wvga/debug/_ext/1872343871/legato_imagedecoder_png.o
 .debug_line    0x00013a4e      0x4dc build/lcdc_rgba888_mxt_9x60_wvga/debug/_ext/1872342336/legato_imagedecoder_raw_read_internal.o
 .debug_line    0x00013f2a      0x551 build/lcdc_rgba888_mxt_9x60_wvga/debug/_ext/1872342336/legato_imagedecoder_raw_scale.o
 .debug_line    0x0001447b     0x10c6 build/lcdc_rgba888_mxt_9x60_wvga/debug/_ext/1872342336/legato_imagedecoder_raw.o
 .debug_line    0x00015541      0x585 build/lcdc_rgba888_mxt_9x60_wvga/debug/_ext/1872342336/legato_imagedecoder_raw_rotate.o
 .debug_line    0x00015ac6      0x253 build/lcdc_rgba888_mxt_9x60_wvga/debug/_ext/1872342336/legato_imagedecoder_raw_mask.o
 .debug_line    0x00015d19      0x349 build/lcdc_rgba888_mxt_9x60_wvga/debug/_ext/1872342336/legato_imagedecoder_raw_write.o
 .debug_line    0x00016062      0x358 build/lcdc_rgba888_mxt_9x60_wvga/debug/_ext/1872342336/legato_imagedecoder_raw_palette_internal.o
 .debug_line    0x000163ba      0x3f7 build/lcdc_rgba888_mxt_9x60_wvga/debug/_ext/1872342336/legato_imagedecoder_raw_setup.o
 .debug_line    0x000167b1      0x414 build/lcdc_rgba888_mxt_9x60_wvga/debug/_ext/1872342336/legato_imagedecoder_raw_blend.o
 .debug_line    0x00016bc5      0x2e7 build/lcdc_rgba888_mxt_9x60_wvga/debug/_ext/1872342336/legato_imagedecoder_raw_convert.o
 .debug_line    0x00016eac      0x756 build/lcdc_rgba888_mxt_9x60_wvga/debug/_ext/1381099687/legato_image.o
 .debug_line    0x00017602      0x325 build/lcdc_rgba888_mxt_9x60_wvga/debug/_ext/1381099687/legato_image_utils.o
 .debug_line    0x00017927      0x346 build/lcdc_rgba888_mxt_9x60_wvga/debug/_ext/28088523/legato_fixedheap.o
 .debug_line    0x00017c6d      0x5a9 build/lcdc_rgba888_mxt_9x60_wvga/debug/_ext/28088523/legato_memory.o
 .debug_line    0x00018216      0xbe2 build/lcdc_rgba888_mxt_9x60_wvga/debug/_ext/28088523/legato_variableheap.o
 .debug_line    0x00018df8      0x2d4 build/lcdc_rgba888_mxt_9x60_wvga/debug/_ext/1081070089/legato_draw_rect.o
 .debug_line    0x000190cc      0x44d build/lcdc_rgba888_mxt_9x60_wvga/debug/_ext/1081070089/legato_draw_line.o
 .debug_line    0x00019519      0x9c3 build/lcdc_rgba888_mxt_9x60_wvga/debug/_ext/1081070089/legato_draw_arc.o
 .debug_line    0x00019edc      0xf12 build/lcdc_rgba888_mxt_9x60_wvga/debug/_ext/1081070089/legato_renderer.o
 .debug_line    0x0001adee      0x689 build/lcdc_rgba888_mxt_9x60_wvga/debug/_ext/1081070089/legato_draw.o
 .debug_line    0x0001b477      0x7b5 build/lcdc_rgba888_mxt_9x60_wvga/debug/_ext/1081070089/legato_gpu.o
 .debug_line    0x0001bc2c      0xbee build/lcdc_rgba888_mxt_9x60_wvga/debug/_ext/157682245/legato_stringutils.o
 .debug_line    0x0001c81a      0x7ef build/lcdc_rgba888_mxt_9x60_wvga/debug/_ext/157682245/legato_string.o
 .debug_line    0x0001d009      0x74c build/lcdc_rgba888_mxt_9x60_wvga/debug/_ext/157682245/legato_tablestring.o
 .debug_line    0x0001d755      0x464 build/lcdc_rgba888_mxt_9x60_wvga/debug/_ext/157682245/legato_stringtable.o
 .debug_line    0x0001dbb9      0x699 build/lcdc_rgba888_mxt_9x60_wvga/debug/_ext/157682245/legato_string_renderer.o
 .debug_line    0x0001e252      0x917 build/lcdc_rgba888_mxt_9x60_wvga/debug/_ext/157682245/legato_fixedstring.o
 .debug_line    0x0001eb69      0xc34 build/lcdc_rgba888_mxt_9x60_wvga/debug/_ext/1339002025/legato_widget_button.o
 .debug_line    0x0001f79d      0x953 build/lcdc_rgba888_mxt_9x60_wvga/debug/_ext/1339002025/legato_widget_button_skin_classic.o
 .debug_line    0x000200f0      0x530 build/lcdc_rgba888_mxt_9x60_wvga/debug/_ext/1197524732/legato_widget_image_skin_classic.o
 .debug_line    0x00020620      0x4bc build/lcdc_rgba888_mxt_9x60_wvga/debug/_ext/1197524732/legato_widget_image.o
 .debug_line    0x00020adc      0x98a build/lcdc_rgba888_mxt_9x60_wvga/debug/_ext/2015859515/legato_widget_imagesequence.o
 .debug_line    0x00021466      0x589 build/lcdc_rgba888_mxt_9x60_wvga/debug/_ext/2015859515/legato_widget_imagesequence_skin_classic.o
 .debug_line    0x000219ef      0x5d7 build/lcdc_rgba888_mxt_9x60_wvga/debug/_ext/1195110755/legato_widget_label_skin_classic.o
 .debug_line    0x00021fc6      0x561 build/lcdc_rgba888_mxt_9x60_wvga/debug/_ext/1195110755/legato_widget_label.o
 .debug_line    0x00022527      0x605 build/lcdc_rgba888_mxt_9x60_wvga/debug/_ext/337100648/legato_widget_rectangle_skin_classic.o
 .debug_line    0x00022b2c      0x3b1 build/lcdc_rgba888_mxt_9x60_wvga/debug/_ext/337100648/legato_widget_rectangle.o
 .debug_line    0x00022edd      0x37b build/lcdc_rgba888_mxt_9x60_wvga/debug/_ext/261620856/legato_widget_skin_classic.o
 .debug_line    0x00023258     0x18f1 build/lcdc_rgba888_mxt_9x60_wvga/debug/_ext/261620856/legato_widget.o
 .debug_line    0x00024b49      0xabd build/lcdc_rgba888_mxt_9x60_wvga/debug/_ext/261620856/legato_widget_skin_classic_common.o
 .debug_line    0x00025606      0x249 build/lcdc_rgba888_mxt_9x60_wvga/debug/_ext/440801193/gfx_simulator.o
 .debug_line    0x0002584f      0x453 build/lcdc_rgba888_mxt_9x60_wvga/debug/_ext/4986847/plib_aic.o
 .debug_line    0x00025ca2      0x161 build/lcdc_rgba888_mxt_9x60_wvga/debug/_ext/4988870/plib_clk.o
 .debug_line    0x00025e03      0x75a build/lcdc_rgba888_mxt_9x60_wvga/debug/_ext/4998521/plib_mmu.o
 .debug_line    0x0002655d      0x328 build/lcdc_rgba888_mxt_9x60_wvga/debug/_ext/5001274/plib_pio.o
 .debug_line    0x00026885       0xdd build/lcdc_rgba888_mxt_9x60_wvga/debug/_ext/286729486/xc32_monitor.o
 .debug_line    0x00026962      0x772 build/lcdc_rgba888_mxt_9x60_wvga/debug/_ext/1414187873/sys_input.o
 .debug_line    0x000270d4      0x565 build/lcdc_rgba888_mxt_9x60_wvga/debug/_ext/1826491803/sys_int.o
 .debug_line    0x00027639     0x1226 build/lcdc_rgba888_mxt_9x60_wvga/debug/_ext/1812361045/sys_time.o
 .debug_line    0x0002885f       0xae build/lcdc_rgba888_mxt_9x60_wvga/debug/_ext/2052985144/fault_handlers.o
 .debug_line    0x0002890d      0x298 build/lcdc_rgba888_mxt_9x60_wvga/debug/_ext/2052985144/tasks.o
 .debug_line    0x00028ba5      0x5f3 build/lcdc_rgba888_mxt_9x60_wvga/debug/_ext/2052985144/initialization.o
 .debug_line    0x00029198      0x105 build/lcdc_rgba888_mxt_9x60_wvga/debug/_ext/2052985144/cstartup.o
 .debug_line    0x0002929d     0x10bf build/lcdc_rgba888_mxt_9x60_wvga/debug/_ext/1360937237/app.o
 .debug_line    0x0002a35c      0x1ba build/lcdc_rgba888_mxt_9x60_wvga/debug/_ext/1360937237/main.o
 .debug_line    0x0002a516       0xb0 c:/program files/microchip/xc32/v4.35/bin/bin/../../lib/gcc/pic32c/8.3.1/arm/v5te/nofp\libgcc.a(_udivsi3.o)
 .debug_line    0x0002a5c6       0xbc c:/program files/microchip/xc32/v4.35/bin/bin/../../lib/gcc/pic32c/8.3.1/arm/v5te/nofp\libgcc.a(_divsi3.o)
 .debug_line    0x0002a682       0x94 c:/program files/microchip/xc32/v4.35/bin/bin/../../lib/gcc/pic32c/8.3.1/arm/v5te/nofp\libgcc.a(_dvmd_tls.o)
 .debug_line    0x0002a716      0x196 c:/program files/microchip/xc32/v4.35/bin/bin/../../lib/gcc/pic32c/8.3.1/arm/v5te/nofp\libgcc.a(_arm_addsubdf3.o)
 .debug_line    0x0002a8ac      0x1b5 c:/program files/microchip/xc32/v4.35/bin/bin/../../lib/gcc/pic32c/8.3.1/arm/v5te/nofp\libgcc.a(_arm_muldivdf3.o)
 .debug_line    0x0002aa61       0xa9 c:/program files/microchip/xc32/v4.35/bin/bin/../../lib/gcc/pic32c/8.3.1/arm/v5te/nofp\libgcc.a(_arm_fixunsdfsi.o)
 .debug_line    0x0002ab0a      0x133 c:/program files/microchip/xc32/v4.35/bin/bin/../../lib/gcc/pic32c/8.3.1/arm/v5te/nofp\libgcc.a(_arm_addsubsf3.o)
 .debug_line    0x0002ac3d      0x156 c:/program files/microchip/xc32/v4.35/bin/bin/../../lib/gcc/pic32c/8.3.1/arm/v5te/nofp\libgcc.a(_arm_muldivsf3.o)
 .debug_line    0x0002ad93       0xd9 c:/program files/microchip/xc32/v4.35/bin/bin/../../lib/gcc/pic32c/8.3.1/arm/v5te/nofp\libgcc.a(_arm_cmpsf2.o)
 .debug_line    0x0002ae6c       0xab c:/program files/microchip/xc32/v4.35/bin/bin/../../lib/gcc/pic32c/8.3.1/arm/v5te/nofp\libgcc.a(_arm_fixsfsi.o)
 .debug_line    0x0002af17       0xa9 c:/program files/microchip/xc32/v4.35/bin/bin/../../lib/gcc/pic32c/8.3.1/arm/v5te/nofp\libgcc.a(_arm_fixunssfsi.o)
 .debug_line    0x0002afc0       0x94 c:/program files/microchip/xc32/v4.35/bin/bin/../../lib/gcc/pic32c/8.3.1/arm/v5te/nofp\libgcc.a(_aeabi_uldivmod.o)
 .debug_line    0x0002b054      0x182 c:/program files/microchip/xc32/v4.35/bin/bin/../../lib/gcc/pic32c/8.3.1/arm/v5te/nofp\libgcc.a(_udivmoddi4.o)
 .debug_line    0x0002b1d6      0x1cb c:/program files/microchip/xc32/v4.35/bin/bin/../../lib/gcc/pic32c/8.3.1/../../../../pic32c/lib/arm/v5te/nofp\libg-musl.a(__libc_start_main.o)
 .debug_line    0x0002b3a1       0xb8 c:/program files/microchip/xc32/v4.35/bin/bin/../../lib/gcc/pic32c/8.3.1/../../../../pic32c/lib/arm/v5te/nofp\libg-musl.a(libc.o)
 .debug_line    0x0002b459      0xaa4 c:/program files/microchip/xc32/v4.35/bin/bin/../../lib/gcc/pic32c/8.3.1/../../../../pic32c/lib/arm/v5te/nofp\libg-musl.a(malloc.o)
 .debug_line    0x0002befd       0xf5 c:/program files/microchip/xc32/v4.35/bin/bin/../../lib/gcc/pic32c/8.3.1/../../../../pic32c/lib/arm/v5te/nofp\libg-musl.a(expand_heap.o)
 .debug_line    0x0002bff2      0x1a9 c:/program files/microchip/xc32/v4.35/bin/bin/../../lib/gcc/pic32c/8.3.1/../../../../pic32c/lib/arm/v5te/nofp\libg-musl.a(__sio_sprintf_dnpuxX.o)
 .debug_line    0x0002c19b      0x20c c:/program files/microchip/xc32/v4.35/bin/bin/../../lib/gcc/pic32c/8.3.1/../../../../pic32c/lib/arm/v5te/nofp\libg-musl.a(__fmt_d.o)
 .debug_line    0x0002c3a7      0x199 c:/program files/microchip/xc32/v4.35/bin/bin/../../lib/gcc/pic32c/8.3.1/../../../../pic32c/lib/arm/v5te/nofp\libg-musl.a(__fmt_u.o)
 .debug_line    0x0002c540      0x2d6 c:/program files/microchip/xc32/v4.35/bin/bin/../../lib/gcc/pic32c/8.3.1/../../../../pic32c/lib/arm/v5te/nofp\libg-musl.a(__fmt_x.o)
 .debug_line    0x0002c816      0x20e c:/program files/microchip/xc32/v4.35/bin/bin/../../lib/gcc/pic32c/8.3.1/../../../../pic32c/lib/arm/v5te/nofp\libg-musl.a(__pop_int.o)
 .debug_line    0x0002ca24      0x1e1 c:/program files/microchip/xc32/v4.35/bin/bin/../../lib/gcc/pic32c/8.3.1/../../../../pic32c/lib/arm/v5te/nofp\libg-musl.a(__pop_ptr.o)
 .debug_line    0x0002cc05      0x6aa c:/program files/microchip/xc32/v4.35/bin/bin/../../lib/gcc/pic32c/8.3.1/../../../../pic32c/lib/arm/v5te/nofp\libg-musl.a(__printf_core.o)
 .debug_line    0x0002d2af      0x187 c:/program files/microchip/xc32/v4.35/bin/bin/../../lib/gcc/pic32c/8.3.1/../../../../pic32c/lib/arm/v5te/nofp\libg-musl.a(stdout.o)
 .debug_line    0x0002d436      0x15c c:/program files/microchip/xc32/v4.35/bin/bin/../../lib/gcc/pic32c/8.3.1/../../../../pic32c/lib/arm/v5te/nofp\libg-musl.a(atoi.o)
 .debug_line    0x0002d592       0xea c:/program files/microchip/xc32/v4.35/bin/bin/../../lib/gcc/pic32c/8.3.1/../../../../pic32c/lib/arm/v5te/nofp\libg-musl.a(memcpy.o)
 .debug_line    0x0002d67c       0xe8 c:/program files/microchip/xc32/v4.35/bin/bin/../../lib/gcc/pic32c/8.3.1/../../../../pic32c/lib/arm/v5te/nofp\libg-musl.a(memset.o)
 .debug_line    0x0002d764       0xe9 c:/program files/microchip/xc32/v4.35/bin/bin/../../lib/gcc/pic32c/8.3.1/../../../../pic32c/lib/arm/v5te/nofp\libg-musl.a(strlen.o)
 .debug_line    0x0002d84d      0x15d c:/program files/microchip/xc32/v4.35/bin/bin/../../lib/gcc/pic32c/8.3.1/../../../../pic32c/lib/arm/v5te/nofp\libg-musl.a(tolower.o)
 .debug_line    0x0002d9aa      0x15d c:/program files/microchip/xc32/v4.35/bin/bin/../../lib/gcc/pic32c/8.3.1/../../../../pic32c/lib/arm/v5te/nofp\libg-musl.a(toupper.o)
 .debug_line    0x0002db07      0x101 c:/program files/microchip/xc32/v4.35/bin/bin/../../lib/gcc/pic32c/8.3.1/../../../../pic32c/lib/arm/v5te/nofp\libg-musl.a(__environ.o)
 .debug_line    0x0002dc08       0x9d c:/program files/microchip/xc32/v4.35/bin/bin/../../lib/gcc/pic32c/8.3.1/../../../../pic32c/lib/arm/v5te/nofp\libg-musl.a(__errno_location.o)
 .debug_line    0x0002dca5      0x174 c:/program files/microchip/xc32/v4.35/bin/bin/../../lib/gcc/pic32c/8.3.1/../../../../pic32c/lib/arm/v5te/nofp\libg-musl.a(__int_vfprintf.o)
 .debug_line    0x0002de19      0x153 c:/program files/microchip/xc32/v4.35/bin/bin/../../lib/gcc/pic32c/8.3.1/../../../../pic32c/lib/arm/v5te/nofp\libg-musl.a(__int_vsprintf.o)
 .debug_line    0x0002df6c      0x1cc c:/program files/microchip/xc32/v4.35/bin/bin/../../lib/gcc/pic32c/8.3.1/../../../../pic32c/lib/arm/v5te/nofp\libg-musl.a(__cvt_u.o)
 .debug_line    0x0002e138      0x16b c:/program files/microchip/xc32/v4.35/bin/bin/../../lib/gcc/pic32c/8.3.1/../../../../pic32c/lib/arm/v5te/nofp\libg-musl.a(__pop_float.o)
 .debug_line    0x0002e2a3      0x1f6 c:/program files/microchip/xc32/v4.35/bin/bin/../../lib/gcc/pic32c/8.3.1/../../../../pic32c/lib/arm/v5te/nofp\libg-musl.a(fwrite.o)
 .debug_line    0x0002e499      0x1ca c:/program files/microchip/xc32/v4.35/bin/bin/../../lib/gcc/pic32c/8.3.1/../../../../pic32c/lib/arm/v5te/nofp\libg-musl.a(__int_vsnprintf.o)
 .debug_line    0x0002e663       0xcb c:/program files/microchip/xc32/v4.35/bin/bin/../../lib/gcc/pic32c/8.3.1/../../../../pic32c/lib/arm/v5te/nofp\libg-musl.a(__init_stdio.o)
 .debug_line    0x0002e72e      0x221 c:/program files/microchip/xc32/v4.35/bin/bin/../../lib/gcc/pic32c/8.3.1/../../../../pic32c/lib/arm/v5te/nofp\libg-musl.a(__out.o)
 .debug_line    0x0002e94f       0xbd c:/program files/microchip/xc32/v4.35/bin/bin/../../lib/gcc/pic32c/8.3.1/../../../../pic32c/lib/arm/v5te/nofp\libpic32c.a(sbrk.o)

.debug_str      0x00000000     0xd61b
 .debug_str     0x00000000      0x12c build/lcdc_rgba888_mxt_9x60_wvga/debug/_ext/1121151461/gfx_canvas_api.o
 .debug_str     0x0000012c      0x200 build/lcdc_rgba888_mxt_9x60_wvga/debug/_ext/1121151461/gfx_canvas.o
 .debug_str     0x0000032c       0xc2 build/lcdc_rgba888_mxt_9x60_wvga/debug/_ext/1165331637/gfx_driver.o
 .debug_str     0x000003ee       0x92 build/lcdc_rgba888_mxt_9x60_wvga/debug/_ext/305146849/legato_pixelbuffer.o
 .debug_str     0x00000480      0x28d build/lcdc_rgba888_mxt_9x60_wvga/debug/_ext/305146849/legato_utils.o
 .debug_str     0x0000070d       0xb7 build/lcdc_rgba888_mxt_9x60_wvga/debug/_ext/305146849/legato_color_convert.o
 .debug_str     0x000007c4       0x17 build/lcdc_rgba888_mxt_9x60_wvga/debug/_ext/305146849/legato_rect.o
 .debug_str     0x000007db       0x2e build/lcdc_rgba888_mxt_9x60_wvga/debug/_ext/305146849/legato_color_lerp.o
 .debug_str     0x00000809       0x64 build/lcdc_rgba888_mxt_9x60_wvga/debug/_ext/305146849/legato_math.o
 .debug_str     0x0000086d        0x9 build/lcdc_rgba888_mxt_9x60_wvga/debug/_ext/305146849/legato_color_blend.o
 .debug_str     0x00000876       0x34 build/lcdc_rgba888_mxt_9x60_wvga/debug/_ext/305146849/legato_color.o
 .debug_str     0x000008aa       0xf8 build/lcdc_rgba888_mxt_9x60_wvga/debug/_ext/1618192685/legato_scheme.o
 .debug_str     0x000009a2      0x6fb build/lcdc_rgba888_mxt_9x60_wvga/debug/_ext/1618192685/legato_input.o
 .debug_str     0x0000109d      0x1cc build/lcdc_rgba888_mxt_9x60_wvga/debug/_ext/1618192685/legato_event.o
 .debug_str     0x00001269      0x847 build/lcdc_rgba888_mxt_9x60_wvga/debug/_ext/1618192685/legato_state.o
 .debug_str     0x00001ab0       0x22 build/lcdc_rgba888_mxt_9x60_wvga/debug/_ext/109670485/legato_list.o
 .debug_str     0x00001ad2       0x8e build/lcdc_rgba888_mxt_9x60_wvga/debug/_ext/109670485/legato_rectarray.o
 .debug_str     0x00001b60       0x1c build/lcdc_rgba888_mxt_9x60_wvga/debug/_ext/109670485/legato_array.o
 .debug_str     0x00001b7c      0x219 build/lcdc_rgba888_mxt_9x60_wvga/debug/_ext/1618103421/legato_font.o
 .debug_str     0x00001d95       0xc0 build/lcdc_rgba888_mxt_9x60_wvga/debug/_ext/644506877/le_gen_fonts.o
 .debug_str     0x00001e55       0xeb build/lcdc_rgba888_mxt_9x60_wvga/debug/_ext/1497821479/le_gen_images.o
 .debug_str     0x00001f40      0x906 build/lcdc_rgba888_mxt_9x60_wvga/debug/_ext/534613472/le_gen_screen_Screen0.o
 .debug_str     0x00002846      0x201 build/lcdc_rgba888_mxt_9x60_wvga/debug/_ext/706129189/le_gen_stringtable.o
 .debug_str     0x00002a47      0x149 build/lcdc_rgba888_mxt_9x60_wvga/debug/_ext/706129189/le_gen_init.o
 .debug_str     0x00002b90      0x1c3 build/lcdc_rgba888_mxt_9x60_wvga/debug/_ext/706129189/le_gen_harmony.o
 .debug_str     0x00002d53       0xb4 build/lcdc_rgba888_mxt_9x60_wvga/debug/_ext/706129189/le_gen_globalpalette.o
 .debug_str     0x00002e07       0xdc build/lcdc_rgba888_mxt_9x60_wvga/debug/_ext/706129189/le_gen_scheme.o
 .debug_str     0x00002ee3      0x251 build/lcdc_rgba888_mxt_9x60_wvga/debug/_ext/2086705360/legato_imagedecoder_jpeg.o
 .debug_str     0x00003134       0xd4 build/lcdc_rgba888_mxt_9x60_wvga/debug/_ext/2086705360/legato_imagedecoder_jpeg_common.o
 .debug_str     0x00003208        0x9 build/lcdc_rgba888_mxt_9x60_wvga/debug/_ext/2086705360/jidctint.o
 .debug_str     0x00003211       0xce build/lcdc_rgba888_mxt_9x60_wvga/debug/_ext/2086794059/legato_imagedecoder_mono_read_internal.o
 .debug_str     0x000032df      0x214 build/lcdc_rgba888_mxt_9x60_wvga/debug/_ext/2086794059/legato_imagedecoder_mono.o
 .debug_str     0x000034f3      0x29c build/lcdc_rgba888_mxt_9x60_wvga/debug/_ext/1872343871/lodepng.o
 .debug_str     0x0000378f      0x1a8 build/lcdc_rgba888_mxt_9x60_wvga/debug/_ext/1872343871/legato_imagedecoder_png.o
 .debug_str     0x00003937      0x1fd build/lcdc_rgba888_mxt_9x60_wvga/debug/_ext/1872342336/legato_imagedecoder_raw_read_internal.o
 .debug_str     0x00003b34      0x110 build/lcdc_rgba888_mxt_9x60_wvga/debug/_ext/1872342336/legato_imagedecoder_raw_scale.o
 .debug_str     0x00003c44      0x5a6 build/lcdc_rgba888_mxt_9x60_wvga/debug/_ext/1872342336/legato_imagedecoder_raw.o
 .debug_str     0x000041ea       0xe6 build/lcdc_rgba888_mxt_9x60_wvga/debug/_ext/1872342336/legato_imagedecoder_raw_rotate.o
 .debug_str     0x000042d0       0xc4 build/lcdc_rgba888_mxt_9x60_wvga/debug/_ext/1872342336/legato_imagedecoder_raw_mask.o
 .debug_str     0x00004394      0x18e build/lcdc_rgba888_mxt_9x60_wvga/debug/_ext/1872342336/legato_imagedecoder_raw_write.o
 .debug_str     0x00004522      0x17f build/lcdc_rgba888_mxt_9x60_wvga/debug/_ext/1872342336/legato_imagedecoder_raw_palette_internal.o
 .debug_str     0x000046a1       0xca build/lcdc_rgba888_mxt_9x60_wvga/debug/_ext/1872342336/legato_imagedecoder_raw_setup.o
 .debug_str     0x0000476b      0x1bb build/lcdc_rgba888_mxt_9x60_wvga/debug/_ext/1872342336/legato_imagedecoder_raw_blend.o
 .debug_str     0x00004926      0x16f build/lcdc_rgba888_mxt_9x60_wvga/debug/_ext/1872342336/legato_imagedecoder_raw_convert.o
 .debug_str     0x00004a95      0x1b6 build/lcdc_rgba888_mxt_9x60_wvga/debug/_ext/1381099687/legato_image.o
 .debug_str     0x00004c4b       0x2a build/lcdc_rgba888_mxt_9x60_wvga/debug/_ext/1381099687/legato_image_utils.o
 .debug_str     0x00004c75       0x34 build/lcdc_rgba888_mxt_9x60_wvga/debug/_ext/28088523/legato_fixedheap.o
 .debug_str     0x00004ca9      0x1ce build/lcdc_rgba888_mxt_9x60_wvga/debug/_ext/28088523/legato_memory.o
 .debug_str     0x00004e77       0x4c build/lcdc_rgba888_mxt_9x60_wvga/debug/_ext/28088523/legato_variableheap.o
 .debug_str     0x00004ec3      0x151 build/lcdc_rgba888_mxt_9x60_wvga/debug/_ext/1081070089/legato_draw_rect.o
 .debug_str     0x00005014      0x15e build/lcdc_rgba888_mxt_9x60_wvga/debug/_ext/1081070089/legato_draw_line.o
 .debug_str     0x00005172      0x1e0 build/lcdc_rgba888_mxt_9x60_wvga/debug/_ext/1081070089/legato_draw_arc.o
 .debug_str     0x00005352      0xa2b build/lcdc_rgba888_mxt_9x60_wvga/debug/_ext/1081070089/legato_renderer.o
 .debug_str     0x00005d7d      0x1dd build/lcdc_rgba888_mxt_9x60_wvga/debug/_ext/1081070089/legato_draw.o
 .debug_str     0x00005f5a      0x17f build/lcdc_rgba888_mxt_9x60_wvga/debug/_ext/1081070089/legato_gpu.o
 .debug_str     0x000060d9       0xc8 build/lcdc_rgba888_mxt_9x60_wvga/debug/_ext/157682245/legato_stringutils.o
 .debug_str     0x000061a1      0x175 build/lcdc_rgba888_mxt_9x60_wvga/debug/_ext/157682245/legato_string.o
 .debug_str     0x00006316      0x290 build/lcdc_rgba888_mxt_9x60_wvga/debug/_ext/157682245/legato_tablestring.o
 .debug_str     0x000065a6      0x16c build/lcdc_rgba888_mxt_9x60_wvga/debug/_ext/157682245/legato_stringtable.o
 .debug_str     0x00006712      0x268 build/lcdc_rgba888_mxt_9x60_wvga/debug/_ext/157682245/legato_string_renderer.o
 .debug_str     0x0000697a      0x16c build/lcdc_rgba888_mxt_9x60_wvga/debug/_ext/157682245/legato_fixedstring.o
 .debug_str     0x00006ae6      0x87e build/lcdc_rgba888_mxt_9x60_wvga/debug/_ext/1339002025/legato_widget_button.o
 .debug_str     0x00007364      0x843 build/lcdc_rgba888_mxt_9x60_wvga/debug/_ext/1339002025/legato_widget_button_skin_classic.o
 .debug_str     0x00007ba7      0x6cb build/lcdc_rgba888_mxt_9x60_wvga/debug/_ext/1197524732/legato_widget_image_skin_classic.o
 .debug_str     0x00008272      0x67f build/lcdc_rgba888_mxt_9x60_wvga/debug/_ext/1197524732/legato_widget_image.o
 .debug_str     0x000088f1      0x6f0 build/lcdc_rgba888_mxt_9x60_wvga/debug/_ext/2015859515/legato_widget_imagesequence.o
 .debug_str     0x00008fe1      0x709 build/lcdc_rgba888_mxt_9x60_wvga/debug/_ext/2015859515/legato_widget_imagesequence_skin_classic.o
 .debug_str     0x000096ea      0x764 build/lcdc_rgba888_mxt_9x60_wvga/debug/_ext/1195110755/legato_widget_label_skin_classic.o
 .debug_str     0x00009e4e      0x66a build/lcdc_rgba888_mxt_9x60_wvga/debug/_ext/1195110755/legato_widget_label.o
 .debug_str     0x0000a4b8      0x66b build/lcdc_rgba888_mxt_9x60_wvga/debug/_ext/337100648/legato_widget_rectangle_skin_classic.o
 .debug_str     0x0000ab23      0x592 build/lcdc_rgba888_mxt_9x60_wvga/debug/_ext/337100648/legato_widget_rectangle.o
 .debug_str     0x0000b0b5      0x298 build/lcdc_rgba888_mxt_9x60_wvga/debug/_ext/261620856/legato_widget_skin_classic.o
 .debug_str     0x0000b34d      0x365 build/lcdc_rgba888_mxt_9x60_wvga/debug/_ext/261620856/legato_widget.o
 .debug_str     0x0000b6b2      0x2ae build/lcdc_rgba888_mxt_9x60_wvga/debug/_ext/261620856/legato_widget_skin_classic_common.o
 .debug_str     0x0000b960       0xd2 build/lcdc_rgba888_mxt_9x60_wvga/debug/_ext/440801193/gfx_simulator.o
 .debug_str     0x0000ba32       0xd4 build/lcdc_rgba888_mxt_9x60_wvga/debug/_ext/4986847/plib_aic.o
 .debug_str     0x0000bb06        0x0 build/lcdc_rgba888_mxt_9x60_wvga/debug/_ext/4988870/plib_clk.o
 .debug_str     0x0000bb06        0xd build/lcdc_rgba888_mxt_9x60_wvga/debug/_ext/4998521/plib_mmu.o
 .debug_str     0x0000bb13        0xa build/lcdc_rgba888_mxt_9x60_wvga/debug/_ext/5001274/plib_pio.o
 .debug_str     0x0000bb1d        0x0 build/lcdc_rgba888_mxt_9x60_wvga/debug/_ext/286729486/xc32_monitor.o
 .debug_str     0x0000bb1d        0x6 build/lcdc_rgba888_mxt_9x60_wvga/debug/_ext/1414187873/sys_input.o
 .debug_str     0x0000bb23       0x64 build/lcdc_rgba888_mxt_9x60_wvga/debug/_ext/1826491803/sys_int.o
 .debug_str     0x0000bb87      0x14c build/lcdc_rgba888_mxt_9x60_wvga/debug/_ext/1812361045/sys_time.o
 .debug_str     0x0000bcd3        0x0 build/lcdc_rgba888_mxt_9x60_wvga/debug/_ext/2052985144/fault_handlers.o
 .debug_str     0x0000bcd3      0x109 build/lcdc_rgba888_mxt_9x60_wvga/debug/_ext/2052985144/tasks.o
 .debug_str     0x0000bddc      0x16c build/lcdc_rgba888_mxt_9x60_wvga/debug/_ext/2052985144/initialization.o
 .debug_str     0x0000bf48       0x7b build/lcdc_rgba888_mxt_9x60_wvga/debug/_ext/2052985144/cstartup.o
 .debug_str     0x0000bfc3      0x9dc build/lcdc_rgba888_mxt_9x60_wvga/debug/_ext/1360937237/app.o
 .debug_str     0x0000c99f       0xed build/lcdc_rgba888_mxt_9x60_wvga/debug/_ext/1360937237/main.o
 .debug_str     0x0000ca8c       0xe6 c:/program files/microchip/xc32/v4.35/bin/bin/../../lib/gcc/pic32c/8.3.1/arm/v5te/nofp\libgcc.a(_udivsi3.o)
 .debug_str     0x0000cb72       0xe6 c:/program files/microchip/xc32/v4.35/bin/bin/../../lib/gcc/pic32c/8.3.1/arm/v5te/nofp\libgcc.a(_divsi3.o)
 .debug_str     0x0000cc58       0xe6 c:/program files/microchip/xc32/v4.35/bin/bin/../../lib/gcc/pic32c/8.3.1/arm/v5te/nofp\libgcc.a(_dvmd_tls.o)
 .debug_str     0x0000cd3e       0xe7 c:/program files/microchip/xc32/v4.35/bin/bin/../../lib/gcc/pic32c/8.3.1/arm/v5te/nofp\libgcc.a(_arm_addsubdf3.o)
 .debug_str     0x0000ce25       0xe7 c:/program files/microchip/xc32/v4.35/bin/bin/../../lib/gcc/pic32c/8.3.1/arm/v5te/nofp\libgcc.a(_arm_muldivdf3.o)
 .debug_str     0x0000cf0c       0xe7 c:/program files/microchip/xc32/v4.35/bin/bin/../../lib/gcc/pic32c/8.3.1/arm/v5te/nofp\libgcc.a(_arm_fixunsdfsi.o)
 .debug_str     0x0000cff3       0xe7 c:/program files/microchip/xc32/v4.35/bin/bin/../../lib/gcc/pic32c/8.3.1/arm/v5te/nofp\libgcc.a(_arm_addsubsf3.o)
 .debug_str     0x0000d0da       0xe7 c:/program files/microchip/xc32/v4.35/bin/bin/../../lib/gcc/pic32c/8.3.1/arm/v5te/nofp\libgcc.a(_arm_muldivsf3.o)
 .debug_str     0x0000d1c1       0xe7 c:/program files/microchip/xc32/v4.35/bin/bin/../../lib/gcc/pic32c/8.3.1/arm/v5te/nofp\libgcc.a(_arm_cmpsf2.o)
 .debug_str     0x0000d2a8       0xe7 c:/program files/microchip/xc32/v4.35/bin/bin/../../lib/gcc/pic32c/8.3.1/arm/v5te/nofp\libgcc.a(_arm_fixsfsi.o)
 .debug_str     0x0000d38f       0xe7 c:/program files/microchip/xc32/v4.35/bin/bin/../../lib/gcc/pic32c/8.3.1/arm/v5te/nofp\libgcc.a(_arm_fixunssfsi.o)
 .debug_str     0x0000d476       0xe2 c:/program files/microchip/xc32/v4.35/bin/bin/../../lib/gcc/pic32c/8.3.1/arm/v5te/nofp\libgcc.a(_aeabi_uldivmod.o)
 .debug_str     0x0000d558        0x0 c:/program files/microchip/xc32/v4.35/bin/bin/../../lib/gcc/pic32c/8.3.1/arm/v5te/nofp\libgcc.a(_udivmoddi4.o)
 .debug_str     0x0000d558        0x0 c:/program files/microchip/xc32/v4.35/bin/bin/../../lib/gcc/pic32c/8.3.1/../../../../pic32c/lib/arm/v5te/nofp\libg-musl.a(__libc_start_main.o)
 .debug_str     0x0000d558        0x0 c:/program files/microchip/xc32/v4.35/bin/bin/../../lib/gcc/pic32c/8.3.1/../../../../pic32c/lib/arm/v5te/nofp\libg-musl.a(libc.o)
 .debug_str     0x0000d558       0x13 c:/program files/microchip/xc32/v4.35/bin/bin/../../lib/gcc/pic32c/8.3.1/../../../../pic32c/lib/arm/v5te/nofp\libg-musl.a(malloc.o)
 .debug_str     0x0000d56b        0x0 c:/program files/microchip/xc32/v4.35/bin/bin/../../lib/gcc/pic32c/8.3.1/../../../../pic32c/lib/arm/v5te/nofp\libg-musl.a(expand_heap.o)
 .debug_str     0x0000d56b       0x5a c:/program files/microchip/xc32/v4.35/bin/bin/../../lib/gcc/pic32c/8.3.1/../../../../pic32c/lib/arm/v5te/nofp\libg-musl.a(__sio_sprintf_dnpuxX.o)
 .debug_str     0x0000d5c5        0x0 c:/program files/microchip/xc32/v4.35/bin/bin/../../lib/gcc/pic32c/8.3.1/../../../../pic32c/lib/arm/v5te/nofp\libg-musl.a(__fmt_d.o)
 .debug_str     0x0000d5c5        0x0 c:/program files/microchip/xc32/v4.35/bin/bin/../../lib/gcc/pic32c/8.3.1/../../../../pic32c/lib/arm/v5te/nofp\libg-musl.a(__fmt_u.o)
 .debug_str     0x0000d5c5        0x0 c:/program files/microchip/xc32/v4.35/bin/bin/../../lib/gcc/pic32c/8.3.1/../../../../pic32c/lib/arm/v5te/nofp\libg-musl.a(__fmt_x.o)
 .debug_str     0x0000d5c5        0x0 c:/program files/microchip/xc32/v4.35/bin/bin/../../lib/gcc/pic32c/8.3.1/../../../../pic32c/lib/arm/v5te/nofp\libg-musl.a(__pop_int.o)
 .debug_str     0x0000d5c5        0x0 c:/program files/microchip/xc32/v4.35/bin/bin/../../lib/gcc/pic32c/8.3.1/../../../../pic32c/lib/arm/v5te/nofp\libg-musl.a(__pop_ptr.o)
 .debug_str     0x0000d5c5       0x20 c:/program files/microchip/xc32/v4.35/bin/bin/../../lib/gcc/pic32c/8.3.1/../../../../pic32c/lib/arm/v5te/nofp\libg-musl.a(__printf_core.o)
 .debug_str     0x0000d5e5       0x11 c:/program files/microchip/xc32/v4.35/bin/bin/../../lib/gcc/pic32c/8.3.1/../../../../pic32c/lib/arm/v5te/nofp\libg-musl.a(stdout.o)
 .debug_str     0x0000d5f6        0x0 c:/program files/microchip/xc32/v4.35/bin/bin/../../lib/gcc/pic32c/8.3.1/../../../../pic32c/lib/arm/v5te/nofp\libg-musl.a(atoi.o)
 .debug_str     0x0000d5f6        0x0 c:/program files/microchip/xc32/v4.35/bin/bin/../../lib/gcc/pic32c/8.3.1/../../../../pic32c/lib/arm/v5te/nofp\libg-musl.a(memcpy.o)
 .debug_str     0x0000d5f6        0x0 c:/program files/microchip/xc32/v4.35/bin/bin/../../lib/gcc/pic32c/8.3.1/../../../../pic32c/lib/arm/v5te/nofp\libg-musl.a(memset.o)
 .debug_str     0x0000d5f6        0x0 c:/program files/microchip/xc32/v4.35/bin/bin/../../lib/gcc/pic32c/8.3.1/../../../../pic32c/lib/arm/v5te/nofp\libg-musl.a(strlen.o)
 .debug_str     0x0000d5f6        0x0 c:/program files/microchip/xc32/v4.35/bin/bin/../../lib/gcc/pic32c/8.3.1/../../../../pic32c/lib/arm/v5te/nofp\libg-musl.a(tolower.o)
 .debug_str     0x0000d5f6        0x0 c:/program files/microchip/xc32/v4.35/bin/bin/../../lib/gcc/pic32c/8.3.1/../../../../pic32c/lib/arm/v5te/nofp\libg-musl.a(toupper.o)
 .debug_str     0x0000d5f6        0x0 c:/program files/microchip/xc32/v4.35/bin/bin/../../lib/gcc/pic32c/8.3.1/../../../../pic32c/lib/arm/v5te/nofp\libg-musl.a(__environ.o)
 .debug_str     0x0000d5f6        0x0 c:/program files/microchip/xc32/v4.35/bin/bin/../../lib/gcc/pic32c/8.3.1/../../../../pic32c/lib/arm/v5te/nofp\libg-musl.a(__errno_location.o)
 .debug_str     0x0000d5f6        0xe c:/program files/microchip/xc32/v4.35/bin/bin/../../lib/gcc/pic32c/8.3.1/../../../../pic32c/lib/arm/v5te/nofp\libg-musl.a(__int_vfprintf.o)
 .debug_str     0x0000d604        0xc c:/program files/microchip/xc32/v4.35/bin/bin/../../lib/gcc/pic32c/8.3.1/../../../../pic32c/lib/arm/v5te/nofp\libg-musl.a(__int_vsprintf.o)
 .debug_str     0x0000d610        0x0 c:/program files/microchip/xc32/v4.35/bin/bin/../../lib/gcc/pic32c/8.3.1/../../../../pic32c/lib/arm/v5te/nofp\libg-musl.a(__cvt_u.o)
 .debug_str     0x0000d610        0x0 c:/program files/microchip/xc32/v4.35/bin/bin/../../lib/gcc/pic32c/8.3.1/../../../../pic32c/lib/arm/v5te/nofp\libg-musl.a(__pop_float.o)
 .debug_str     0x0000d610        0x0 c:/program files/microchip/xc32/v4.35/bin/bin/../../lib/gcc/pic32c/8.3.1/../../../../pic32c/lib/arm/v5te/nofp\libg-musl.a(fwrite.o)
 .debug_str     0x0000d610        0xb c:/program files/microchip/xc32/v4.35/bin/bin/../../lib/gcc/pic32c/8.3.1/../../../../pic32c/lib/arm/v5te/nofp\libg-musl.a(__int_vsnprintf.o)
 .debug_str     0x0000d61b        0x0 c:/program files/microchip/xc32/v4.35/bin/bin/../../lib/gcc/pic32c/8.3.1/../../../../pic32c/lib/arm/v5te/nofp\libg-musl.a(__init_stdio.o)
 .debug_str     0x0000d61b        0x0 c:/program files/microchip/xc32/v4.35/bin/bin/../../lib/gcc/pic32c/8.3.1/../../../../pic32c/lib/arm/v5te/nofp\libg-musl.a(__out.o)
 .debug_str     0x0000d61b        0x0 c:/program files/microchip/xc32/v4.35/bin/bin/../../lib/gcc/pic32c/8.3.1/../../../../pic32c/lib/arm/v5te/nofp\libpic32c.a(sbrk.o)

.debug_frame    0x00000000     0x81d0
 .debug_frame   0x00000000      0x238 build/lcdc_rgba888_mxt_9x60_wvga/debug/_ext/1121151461/gfx_canvas_api.o
 .debug_frame   0x00000238      0x1ec build/lcdc_rgba888_mxt_9x60_wvga/debug/_ext/1121151461/gfx_canvas.o
 .debug_frame   0x00000424      0x4c4 build/lcdc_rgba888_mxt_9x60_wvga/debug/_ext/1165331637/gfx_driver.o
 .debug_frame   0x000008e8      0x25c build/lcdc_rgba888_mxt_9x60_wvga/debug/_ext/305146849/legato_pixelbuffer.o
 .debug_frame   0x00000b44      0x1d0 build/lcdc_rgba888_mxt_9x60_wvga/debug/_ext/305146849/legato_utils.o
 .debug_frame   0x00000d14      0x2d0 build/lcdc_rgba888_mxt_9x60_wvga/debug/_ext/305146849/legato_color_convert.o
 .debug_frame   0x00000fe4      0x114 build/lcdc_rgba888_mxt_9x60_wvga/debug/_ext/305146849/legato_rect.o
 .debug_frame   0x000010f8      0x128 build/lcdc_rgba888_mxt_9x60_wvga/debug/_ext/305146849/legato_color_lerp.o
 .debug_frame   0x00001220      0x3a8 build/lcdc_rgba888_mxt_9x60_wvga/debug/_ext/305146849/legato_math.o
 .debug_frame   0x000015c8       0x68 build/lcdc_rgba888_mxt_9x60_wvga/debug/_ext/305146849/legato_color_blend.o
 .debug_frame   0x00001630       0x60 build/lcdc_rgba888_mxt_9x60_wvga/debug/_ext/305146849/legato_color.o
 .debug_frame   0x00001690       0x54 build/lcdc_rgba888_mxt_9x60_wvga/debug/_ext/1618192685/legato_scheme.o
 .debug_frame   0x000016e4      0x144 build/lcdc_rgba888_mxt_9x60_wvga/debug/_ext/1618192685/legato_input.o
 .debug_frame   0x00001828       0xd8 build/lcdc_rgba888_mxt_9x60_wvga/debug/_ext/1618192685/legato_event.o
 .debug_frame   0x00001900      0x424 build/lcdc_rgba888_mxt_9x60_wvga/debug/_ext/1618192685/legato_state.o
 .debug_frame   0x00001d24      0x184 build/lcdc_rgba888_mxt_9x60_wvga/debug/_ext/109670485/legato_list.o
 .debug_frame   0x00001ea8      0x3bc build/lcdc_rgba888_mxt_9x60_wvga/debug/_ext/109670485/legato_rectarray.o
 .debug_frame   0x00002264      0x188 build/lcdc_rgba888_mxt_9x60_wvga/debug/_ext/109670485/legato_array.o
 .debug_frame   0x000023ec      0x18c build/lcdc_rgba888_mxt_9x60_wvga/debug/_ext/1618103421/legato_font.o
 .debug_frame   0x00002578       0xac build/lcdc_rgba888_mxt_9x60_wvga/debug/_ext/534613472/le_gen_screen_Screen0.o
 .debug_frame   0x00002624       0x28 build/lcdc_rgba888_mxt_9x60_wvga/debug/_ext/706129189/le_gen_stringtable.o
 .debug_frame   0x0000264c       0x70 build/lcdc_rgba888_mxt_9x60_wvga/debug/_ext/706129189/le_gen_init.o
 .debug_frame   0x000026bc       0x90 build/lcdc_rgba888_mxt_9x60_wvga/debug/_ext/706129189/le_gen_harmony.o
 .debug_frame   0x0000274c       0xec build/lcdc_rgba888_mxt_9x60_wvga/debug/_ext/2086705360/legato_imagedecoder_jpeg.o
 .debug_frame   0x00002838      0x1b8 build/lcdc_rgba888_mxt_9x60_wvga/debug/_ext/2086705360/legato_imagedecoder_jpeg_common.o
 .debug_frame   0x000029f0       0x40 build/lcdc_rgba888_mxt_9x60_wvga/debug/_ext/2086705360/jidctint.o
 .debug_frame   0x00002a30       0x40 build/lcdc_rgba888_mxt_9x60_wvga/debug/_ext/2086794059/legato_imagedecoder_mono_read_internal.o
 .debug_frame   0x00002a70      0x190 build/lcdc_rgba888_mxt_9x60_wvga/debug/_ext/2086794059/legato_imagedecoder_mono.o
 .debug_frame   0x00002c00      0x888 build/lcdc_rgba888_mxt_9x60_wvga/debug/_ext/1872343871/lodepng.o
 .debug_frame   0x00003488       0xbc build/lcdc_rgba888_mxt_9x60_wvga/debug/_ext/1872343871/legato_imagedecoder_png.o
 .debug_frame   0x00003544      0x100 build/lcdc_rgba888_mxt_9x60_wvga/debug/_ext/1872342336/legato_imagedecoder_raw_read_internal.o
 .debug_frame   0x00003644       0xe0 build/lcdc_rgba888_mxt_9x60_wvga/debug/_ext/1872342336/legato_imagedecoder_raw_scale.o
 .debug_frame   0x00003724      0x25c build/lcdc_rgba888_mxt_9x60_wvga/debug/_ext/1872342336/legato_imagedecoder_raw.o
 .debug_frame   0x00003980       0xc4 build/lcdc_rgba888_mxt_9x60_wvga/debug/_ext/1872342336/legato_imagedecoder_raw_rotate.o
 .debug_frame   0x00003a44       0x38 build/lcdc_rgba888_mxt_9x60_wvga/debug/_ext/1872342336/legato_imagedecoder_raw_mask.o
 .debug_frame   0x00003a7c       0x70 build/lcdc_rgba888_mxt_9x60_wvga/debug/_ext/1872342336/legato_imagedecoder_raw_write.o
 .debug_frame   0x00003aec       0x68 build/lcdc_rgba888_mxt_9x60_wvga/debug/_ext/1872342336/legato_imagedecoder_raw_palette_internal.o
 .debug_frame   0x00003b54       0x70 build/lcdc_rgba888_mxt_9x60_wvga/debug/_ext/1872342336/legato_imagedecoder_raw_setup.o
 .debug_frame   0x00003bc4       0x6c build/lcdc_rgba888_mxt_9x60_wvga/debug/_ext/1872342336/legato_imagedecoder_raw_blend.o
 .debug_frame   0x00003c30       0x44 build/lcdc_rgba888_mxt_9x60_wvga/debug/_ext/1872342336/legato_imagedecoder_raw_convert.o
 .debug_frame   0x00003c74      0x1dc build/lcdc_rgba888_mxt_9x60_wvga/debug/_ext/1381099687/legato_image.o
 .debug_frame   0x00003e50      0x100 build/lcdc_rgba888_mxt_9x60_wvga/debug/_ext/1381099687/legato_image_utils.o
 .debug_frame   0x00003f50       0x94 build/lcdc_rgba888_mxt_9x60_wvga/debug/_ext/28088523/legato_fixedheap.o
 .debug_frame   0x00003fe4      0x10c build/lcdc_rgba888_mxt_9x60_wvga/debug/_ext/28088523/legato_memory.o
 .debug_frame   0x000040f0      0x1c8 build/lcdc_rgba888_mxt_9x60_wvga/debug/_ext/28088523/legato_variableheap.o
 .debug_frame   0x000042b8       0xb0 build/lcdc_rgba888_mxt_9x60_wvga/debug/_ext/1081070089/legato_draw_rect.o
 .debug_frame   0x00004368       0xbc build/lcdc_rgba888_mxt_9x60_wvga/debug/_ext/1081070089/legato_draw_line.o
 .debug_frame   0x00004424      0x15c build/lcdc_rgba888_mxt_9x60_wvga/debug/_ext/1081070089/legato_draw_arc.o
 .debug_frame   0x00004580      0x2bc build/lcdc_rgba888_mxt_9x60_wvga/debug/_ext/1081070089/legato_renderer.o
 .debug_frame   0x0000483c      0x1f4 build/lcdc_rgba888_mxt_9x60_wvga/debug/_ext/1081070089/legato_draw.o
 .debug_frame   0x00004a30       0xf4 build/lcdc_rgba888_mxt_9x60_wvga/debug/_ext/1081070089/legato_gpu.o
 .debug_frame   0x00004b24      0x2a8 build/lcdc_rgba888_mxt_9x60_wvga/debug/_ext/157682245/legato_stringutils.o
 .debug_frame   0x00004dcc      0x1a0 build/lcdc_rgba888_mxt_9x60_wvga/debug/_ext/157682245/legato_string.o
 .debug_frame   0x00004f6c      0x1e4 build/lcdc_rgba888_mxt_9x60_wvga/debug/_ext/157682245/legato_tablestring.o
 .debug_frame   0x00005150       0xc8 build/lcdc_rgba888_mxt_9x60_wvga/debug/_ext/157682245/legato_stringtable.o
 .debug_frame   0x00005218       0xa0 build/lcdc_rgba888_mxt_9x60_wvga/debug/_ext/157682245/legato_string_renderer.o
 .debug_frame   0x000052b8      0x258 build/lcdc_rgba888_mxt_9x60_wvga/debug/_ext/157682245/legato_fixedstring.o
 .debug_frame   0x00005510      0x2e4 build/lcdc_rgba888_mxt_9x60_wvga/debug/_ext/1339002025/legato_widget_button.o
 .debug_frame   0x000057f4      0x11c build/lcdc_rgba888_mxt_9x60_wvga/debug/_ext/1339002025/legato_widget_button_skin_classic.o
 .debug_frame   0x00005910       0xb0 build/lcdc_rgba888_mxt_9x60_wvga/debug/_ext/1197524732/legato_widget_image_skin_classic.o
 .debug_frame   0x000059c0       0xc4 build/lcdc_rgba888_mxt_9x60_wvga/debug/_ext/1197524732/legato_widget_image.o
 .debug_frame   0x00005a84      0x21c build/lcdc_rgba888_mxt_9x60_wvga/debug/_ext/2015859515/legato_widget_imagesequence.o
 .debug_frame   0x00005ca0       0xb4 build/lcdc_rgba888_mxt_9x60_wvga/debug/_ext/2015859515/legato_widget_imagesequence_skin_classic.o
 .debug_frame   0x00005d54       0xb8 build/lcdc_rgba888_mxt_9x60_wvga/debug/_ext/1195110755/legato_widget_label_skin_classic.o
 .debug_frame   0x00005e0c       0xf4 build/lcdc_rgba888_mxt_9x60_wvga/debug/_ext/1195110755/legato_widget_label.o
 .debug_frame   0x00005f00       0xb0 build/lcdc_rgba888_mxt_9x60_wvga/debug/_ext/337100648/legato_widget_rectangle_skin_classic.o
 .debug_frame   0x00005fb0       0x84 build/lcdc_rgba888_mxt_9x60_wvga/debug/_ext/337100648/legato_widget_rectangle.o
 .debug_frame   0x00006034       0x58 build/lcdc_rgba888_mxt_9x60_wvga/debug/_ext/261620856/legato_widget_skin_classic.o
 .debug_frame   0x0000608c      0x7e8 build/lcdc_rgba888_mxt_9x60_wvga/debug/_ext/261620856/legato_widget.o
 .debug_frame   0x00006874      0x29c build/lcdc_rgba888_mxt_9x60_wvga/debug/_ext/261620856/legato_widget_skin_classic_common.o
 .debug_frame   0x00006b10       0xc0 build/lcdc_rgba888_mxt_9x60_wvga/debug/_ext/440801193/gfx_simulator.o
 .debug_frame   0x00006bd0       0x58 build/lcdc_rgba888_mxt_9x60_wvga/debug/_ext/4986847/plib_aic.o
 .debug_frame   0x00006c28       0x2c build/lcdc_rgba888_mxt_9x60_wvga/debug/_ext/4988870/plib_clk.o
 .debug_frame   0x00006c54      0x110 build/lcdc_rgba888_mxt_9x60_wvga/debug/_ext/4998521/plib_mmu.o
 .debug_frame   0x00006d64       0xa0 build/lcdc_rgba888_mxt_9x60_wvga/debug/_ext/5001274/plib_pio.o
 .debug_frame   0x00006e04       0x30 build/lcdc_rgba888_mxt_9x60_wvga/debug/_ext/286729486/xc32_monitor.o
 .debug_frame   0x00006e34      0x190 build/lcdc_rgba888_mxt_9x60_wvga/debug/_ext/1414187873/sys_input.o
 .debug_frame   0x00006fc4      0x118 build/lcdc_rgba888_mxt_9x60_wvga/debug/_ext/1826491803/sys_int.o
 .debug_frame   0x000070dc      0x3c4 build/lcdc_rgba888_mxt_9x60_wvga/debug/_ext/1812361045/sys_time.o
 .debug_frame   0x000074a0       0x50 build/lcdc_rgba888_mxt_9x60_wvga/debug/_ext/2052985144/fault_handlers.o
 .debug_frame   0x000074f0       0x28 build/lcdc_rgba888_mxt_9x60_wvga/debug/_ext/2052985144/tasks.o
 .debug_frame   0x00007518       0x28 build/lcdc_rgba888_mxt_9x60_wvga/debug/_ext/2052985144/initialization.o
 .debug_frame   0x00007540      0x28c build/lcdc_rgba888_mxt_9x60_wvga/debug/_ext/1360937237/app.o
 .debug_frame   0x000077cc       0x28 build/lcdc_rgba888_mxt_9x60_wvga/debug/_ext/1360937237/main.o
 .debug_frame   0x000077f4       0x20 c:/program files/microchip/xc32/v4.35/bin/bin/../../lib/gcc/pic32c/8.3.1/arm/v5te/nofp\libgcc.a(_udivsi3.o)
 .debug_frame   0x00007814       0x20 c:/program files/microchip/xc32/v4.35/bin/bin/../../lib/gcc/pic32c/8.3.1/arm/v5te/nofp\libgcc.a(_divsi3.o)
 .debug_frame   0x00007834       0xac c:/program files/microchip/xc32/v4.35/bin/bin/../../lib/gcc/pic32c/8.3.1/arm/v5te/nofp\libgcc.a(_arm_addsubdf3.o)
 .debug_frame   0x000078e0       0x50 c:/program files/microchip/xc32/v4.35/bin/bin/../../lib/gcc/pic32c/8.3.1/arm/v5te/nofp\libgcc.a(_arm_muldivdf3.o)
 .debug_frame   0x00007930       0x24 c:/program files/microchip/xc32/v4.35/bin/bin/../../lib/gcc/pic32c/8.3.1/arm/v5te/nofp\libgcc.a(_arm_fixunsdfsi.o)
 .debug_frame   0x00007954       0x4c c:/program files/microchip/xc32/v4.35/bin/bin/../../lib/gcc/pic32c/8.3.1/arm/v5te/nofp\libgcc.a(_arm_addsubsf3.o)
 .debug_frame   0x000079a0       0x38 c:/program files/microchip/xc32/v4.35/bin/bin/../../lib/gcc/pic32c/8.3.1/arm/v5te/nofp\libgcc.a(_arm_muldivsf3.o)
 .debug_frame   0x000079d8       0xc8 c:/program files/microchip/xc32/v4.35/bin/bin/../../lib/gcc/pic32c/8.3.1/arm/v5te/nofp\libgcc.a(_arm_cmpsf2.o)
 .debug_frame   0x00007aa0       0x24 c:/program files/microchip/xc32/v4.35/bin/bin/../../lib/gcc/pic32c/8.3.1/arm/v5te/nofp\libgcc.a(_arm_fixsfsi.o)
 .debug_frame   0x00007ac4       0x24 c:/program files/microchip/xc32/v4.35/bin/bin/../../lib/gcc/pic32c/8.3.1/arm/v5te/nofp\libgcc.a(_arm_fixunssfsi.o)
 .debug_frame   0x00007ae8       0x2c c:/program files/microchip/xc32/v4.35/bin/bin/../../lib/gcc/pic32c/8.3.1/arm/v5te/nofp\libgcc.a(_aeabi_uldivmod.o)
 .debug_frame   0x00007b14       0x34 c:/program files/microchip/xc32/v4.35/bin/bin/../../lib/gcc/pic32c/8.3.1/arm/v5te/nofp\libgcc.a(_udivmoddi4.o)
 .debug_frame   0x00007b48       0x3c c:/program files/microchip/xc32/v4.35/bin/bin/../../lib/gcc/pic32c/8.3.1/../../../../pic32c/lib/arm/v5te/nofp\libg-musl.a(__libc_start_main.o)
 .debug_frame   0x00007b84      0x13c c:/program files/microchip/xc32/v4.35/bin/bin/../../lib/gcc/pic32c/8.3.1/../../../../pic32c/lib/arm/v5te/nofp\libg-musl.a(malloc.o)
 .debug_frame   0x00007cc0       0x28 c:/program files/microchip/xc32/v4.35/bin/bin/../../lib/gcc/pic32c/8.3.1/../../../../pic32c/lib/arm/v5te/nofp\libg-musl.a(expand_heap.o)
 .debug_frame   0x00007ce8       0x58 c:/program files/microchip/xc32/v4.35/bin/bin/../../lib/gcc/pic32c/8.3.1/../../../../pic32c/lib/arm/v5te/nofp\libg-musl.a(__sio_sprintf_dnpuxX.o)
 .debug_frame   0x00007d40       0x3c c:/program files/microchip/xc32/v4.35/bin/bin/../../lib/gcc/pic32c/8.3.1/../../../../pic32c/lib/arm/v5te/nofp\libg-musl.a(__fmt_d.o)
 .debug_frame   0x00007d7c       0x34 c:/program files/microchip/xc32/v4.35/bin/bin/../../lib/gcc/pic32c/8.3.1/../../../../pic32c/lib/arm/v5te/nofp\libg-musl.a(__fmt_u.o)
 .debug_frame   0x00007db0       0x40 c:/program files/microchip/xc32/v4.35/bin/bin/../../lib/gcc/pic32c/8.3.1/../../../../pic32c/lib/arm/v5te/nofp\libg-musl.a(__fmt_x.o)
 .debug_frame   0x00007df0       0x20 c:/program files/microchip/xc32/v4.35/bin/bin/../../lib/gcc/pic32c/8.3.1/../../../../pic32c/lib/arm/v5te/nofp\libg-musl.a(__pop_int.o)
 .debug_frame   0x00007e10       0x20 c:/program files/microchip/xc32/v4.35/bin/bin/../../lib/gcc/pic32c/8.3.1/../../../../pic32c/lib/arm/v5te/nofp\libg-musl.a(__pop_ptr.o)
 .debug_frame   0x00007e30       0xcc c:/program files/microchip/xc32/v4.35/bin/bin/../../lib/gcc/pic32c/8.3.1/../../../../pic32c/lib/arm/v5te/nofp\libg-musl.a(__printf_core.o)
 .debug_frame   0x00007efc       0x48 c:/program files/microchip/xc32/v4.35/bin/bin/../../lib/gcc/pic32c/8.3.1/../../../../pic32c/lib/arm/v5te/nofp\libg-musl.a(stdout.o)
 .debug_frame   0x00007f44       0x28 c:/program files/microchip/xc32/v4.35/bin/bin/../../lib/gcc/pic32c/8.3.1/../../../../pic32c/lib/arm/v5te/nofp\libg-musl.a(atoi.o)
 .debug_frame   0x00007f6c       0x20 c:/program files/microchip/xc32/v4.35/bin/bin/../../lib/gcc/pic32c/8.3.1/../../../../pic32c/lib/arm/v5te/nofp\libg-musl.a(memcpy.o)
 .debug_frame   0x00007f8c       0x20 c:/program files/microchip/xc32/v4.35/bin/bin/../../lib/gcc/pic32c/8.3.1/../../../../pic32c/lib/arm/v5te/nofp\libg-musl.a(memset.o)
 .debug_frame   0x00007fac       0x20 c:/program files/microchip/xc32/v4.35/bin/bin/../../lib/gcc/pic32c/8.3.1/../../../../pic32c/lib/arm/v5te/nofp\libg-musl.a(strlen.o)
 .debug_frame   0x00007fcc       0x30 c:/program files/microchip/xc32/v4.35/bin/bin/../../lib/gcc/pic32c/8.3.1/../../../../pic32c/lib/arm/v5te/nofp\libg-musl.a(tolower.o)
 .debug_frame   0x00007ffc       0x30 c:/program files/microchip/xc32/v4.35/bin/bin/../../lib/gcc/pic32c/8.3.1/../../../../pic32c/lib/arm/v5te/nofp\libg-musl.a(toupper.o)
 .debug_frame   0x0000802c       0x2c c:/program files/microchip/xc32/v4.35/bin/bin/../../lib/gcc/pic32c/8.3.1/../../../../pic32c/lib/arm/v5te/nofp\libg-musl.a(__int_vfprintf.o)
 .debug_frame   0x00008058       0x20 c:/program files/microchip/xc32/v4.35/bin/bin/../../lib/gcc/pic32c/8.3.1/../../../../pic32c/lib/arm/v5te/nofp\libg-musl.a(__int_vsprintf.o)
 .debug_frame   0x00008078       0x38 c:/program files/microchip/xc32/v4.35/bin/bin/../../lib/gcc/pic32c/8.3.1/../../../../pic32c/lib/arm/v5te/nofp\libg-musl.a(__cvt_u.o)
 .debug_frame   0x000080b0       0x20 c:/program files/microchip/xc32/v4.35/bin/bin/../../lib/gcc/pic32c/8.3.1/../../../../pic32c/lib/arm/v5te/nofp\libg-musl.a(__pop_float.o)
 .debug_frame   0x000080d0       0x3c c:/program files/microchip/xc32/v4.35/bin/bin/../../lib/gcc/pic32c/8.3.1/../../../../pic32c/lib/arm/v5te/nofp\libg-musl.a(fwrite.o)
 .debug_frame   0x0000810c       0x30 c:/program files/microchip/xc32/v4.35/bin/bin/../../lib/gcc/pic32c/8.3.1/../../../../pic32c/lib/arm/v5te/nofp\libg-musl.a(__int_vsnprintf.o)
 .debug_frame   0x0000813c       0x38 c:/program files/microchip/xc32/v4.35/bin/bin/../../lib/gcc/pic32c/8.3.1/../../../../pic32c/lib/arm/v5te/nofp\libg-musl.a(__init_stdio.o)
 .debug_frame   0x00008174       0x3c c:/program files/microchip/xc32/v4.35/bin/bin/../../lib/gcc/pic32c/8.3.1/../../../../pic32c/lib/arm/v5te/nofp\libg-musl.a(__out.o)
 .debug_frame   0x000081b0       0x20 c:/program files/microchip/xc32/v4.35/bin/bin/../../lib/gcc/pic32c/8.3.1/../../../../pic32c/lib/arm/v5te/nofp\libpic32c.a(sbrk.o)

.note.GNU-stack
                0x00000000        0x0
 .note.GNU-stack
                0x00000000        0x0 c:/program files/microchip/xc32/v4.35/bin/bin/../../lib/gcc/pic32c/8.3.1/../../../../pic32c/lib/arm/v5te/nofp\libg-musl.a(__libc_start_main.o)
 .note.GNU-stack
                0x00000000        0x0 c:/program files/microchip/xc32/v4.35/bin/bin/../../lib/gcc/pic32c/8.3.1/../../../../pic32c/lib/arm/v5te/nofp\libg-musl.a(libc.o)
 .note.GNU-stack
                0x00000000        0x0 c:/program files/microchip/xc32/v4.35/bin/bin/../../lib/gcc/pic32c/8.3.1/../../../../pic32c/lib/arm/v5te/nofp\libg-musl.a(malloc.o)
 .note.GNU-stack
                0x00000000        0x0 c:/program files/microchip/xc32/v4.35/bin/bin/../../lib/gcc/pic32c/8.3.1/../../../../pic32c/lib/arm/v5te/nofp\libg-musl.a(expand_heap.o)
 .note.GNU-stack
                0x00000000        0x0 c:/program files/microchip/xc32/v4.35/bin/bin/../../lib/gcc/pic32c/8.3.1/../../../../pic32c/lib/arm/v5te/nofp\libg-musl.a(__sio_sprintf_dnpuxX.o)
 .note.GNU-stack
                0x00000000        0x0 c:/program files/microchip/xc32/v4.35/bin/bin/../../lib/gcc/pic32c/8.3.1/../../../../pic32c/lib/arm/v5te/nofp\libg-musl.a(__fmt_d.o)
 .note.GNU-stack
                0x00000000        0x0 c:/program files/microchip/xc32/v4.35/bin/bin/../../lib/gcc/pic32c/8.3.1/../../../../pic32c/lib/arm/v5te/nofp\libg-musl.a(__fmt_u.o)
 .note.GNU-stack
                0x00000000        0x0 c:/program files/microchip/xc32/v4.35/bin/bin/../../lib/gcc/pic32c/8.3.1/../../../../pic32c/lib/arm/v5te/nofp\libg-musl.a(__fmt_x.o)
 .note.GNU-stack
                0x00000000        0x0 c:/program files/microchip/xc32/v4.35/bin/bin/../../lib/gcc/pic32c/8.3.1/../../../../pic32c/lib/arm/v5te/nofp\libg-musl.a(__pop_int.o)
 .note.GNU-stack
                0x00000000        0x0 c:/program files/microchip/xc32/v4.35/bin/bin/../../lib/gcc/pic32c/8.3.1/../../../../pic32c/lib/arm/v5te/nofp\libg-musl.a(__pop_ptr.o)
 .note.GNU-stack
                0x00000000        0x0 c:/program files/microchip/xc32/v4.35/bin/bin/../../lib/gcc/pic32c/8.3.1/../../../../pic32c/lib/arm/v5te/nofp\libg-musl.a(__printf_core.o)
 .note.GNU-stack
                0x00000000        0x0 c:/program files/microchip/xc32/v4.35/bin/bin/../../lib/gcc/pic32c/8.3.1/../../../../pic32c/lib/arm/v5te/nofp\libg-musl.a(stdout.o)
 .note.GNU-stack
                0x00000000        0x0 c:/program files/microchip/xc32/v4.35/bin/bin/../../lib/gcc/pic32c/8.3.1/../../../../pic32c/lib/arm/v5te/nofp\libg-musl.a(atoi.o)
 .note.GNU-stack
                0x00000000        0x0 c:/program files/microchip/xc32/v4.35/bin/bin/../../lib/gcc/pic32c/8.3.1/../../../../pic32c/lib/arm/v5te/nofp\libg-musl.a(memcpy.o)
 .note.GNU-stack
                0x00000000        0x0 c:/program files/microchip/xc32/v4.35/bin/bin/../../lib/gcc/pic32c/8.3.1/../../../../pic32c/lib/arm/v5te/nofp\libg-musl.a(memset.o)
 .note.GNU-stack
                0x00000000        0x0 c:/program files/microchip/xc32/v4.35/bin/bin/../../lib/gcc/pic32c/8.3.1/../../../../pic32c/lib/arm/v5te/nofp\libg-musl.a(strlen.o)
 .note.GNU-stack
                0x00000000        0x0 c:/program files/microchip/xc32/v4.35/bin/bin/../../lib/gcc/pic32c/8.3.1/../../../../pic32c/lib/arm/v5te/nofp\libg-musl.a(tolower.o)
 .note.GNU-stack
                0x00000000        0x0 c:/program files/microchip/xc32/v4.35/bin/bin/../../lib/gcc/pic32c/8.3.1/../../../../pic32c/lib/arm/v5te/nofp\libg-musl.a(toupper.o)
 .note.GNU-stack
                0x00000000        0x0 c:/program files/microchip/xc32/v4.35/bin/bin/../../lib/gcc/pic32c/8.3.1/../../../../pic32c/lib/arm/v5te/nofp\libg-musl.a(__environ.o)
 .note.GNU-stack
                0x00000000        0x0 c:/program files/microchip/xc32/v4.35/bin/bin/../../lib/gcc/pic32c/8.3.1/../../../../pic32c/lib/arm/v5te/nofp\libg-musl.a(__errno_location.o)
 .note.GNU-stack
                0x00000000        0x0 c:/program files/microchip/xc32/v4.35/bin/bin/../../lib/gcc/pic32c/8.3.1/../../../../pic32c/lib/arm/v5te/nofp\libg-musl.a(__int_vfprintf.o)
 .note.GNU-stack
                0x00000000        0x0 c:/program files/microchip/xc32/v4.35/bin/bin/../../lib/gcc/pic32c/8.3.1/../../../../pic32c/lib/arm/v5te/nofp\libg-musl.a(__int_vsprintf.o)
 .note.GNU-stack
                0x00000000        0x0 c:/program files/microchip/xc32/v4.35/bin/bin/../../lib/gcc/pic32c/8.3.1/../../../../pic32c/lib/arm/v5te/nofp\libg-musl.a(__cvt_u.o)
 .note.GNU-stack
                0x00000000        0x0 c:/program files/microchip/xc32/v4.35/bin/bin/../../lib/gcc/pic32c/8.3.1/../../../../pic32c/lib/arm/v5te/nofp\libg-musl.a(__pop_float.o)
 .note.GNU-stack
                0x00000000        0x0 c:/program files/microchip/xc32/v4.35/bin/bin/../../lib/gcc/pic32c/8.3.1/../../../../pic32c/lib/arm/v5te/nofp\libg-musl.a(fwrite.o)
 .note.GNU-stack
                0x00000000        0x0 c:/program files/microchip/xc32/v4.35/bin/bin/../../lib/gcc/pic32c/8.3.1/../../../../pic32c/lib/arm/v5te/nofp\libg-musl.a(__int_vsnprintf.o)
 .note.GNU-stack
                0x00000000        0x0 c:/program files/microchip/xc32/v4.35/bin/bin/../../lib/gcc/pic32c/8.3.1/../../../../pic32c/lib/arm/v5te/nofp\libg-musl.a(__init_stdio.o)
 .note.GNU-stack
                0x00000000        0x0 c:/program files/microchip/xc32/v4.35/bin/bin/../../lib/gcc/pic32c/8.3.1/../../../../pic32c/lib/arm/v5te/nofp\libg-musl.a(__out.o)

__xc_reference_data
                0x00000000       0x20
 __xc_reference_data
                0x00000000        0x4 c:/program files/microchip/xc32/v4.35/bin/bin/../../lib/gcc/pic32c/8.3.1/../../../../pic32c/lib/arm/v5te/nofp\libg-musl.a(stdout.o)
                0x00000000                __stdout_needs_init
 __xc_reference_data
                0x00000004       0x10 c:/program files/microchip/xc32/v4.35/bin/bin/../../lib/gcc/pic32c/8.3.1/../../../../pic32c/lib/arm/v5te/nofp\libg-musl.a(__io_init_needed.o)
                0x00000004                __io_init_needed
                0x00000010                __io_init_needs_file
 __xc_reference_data
                0x00000014        0xc c:/program files/microchip/xc32/v4.35/bin/bin/../../lib/gcc/pic32c/8.3.1/../../../../pic32c/lib/arm/v5te/nofp\libg-musl.a(__io_file_needed.o)
                0x00000014                __io_file_needed

.stack          0x244fae20      0x100
 .stack         0x244fae20      0x100 stack

.eh_frame%z1    0x00000000        0x0
 .eh_frame      0x00000000        0x0 c:/program files/microchip/xc32/v4.35/bin/bin/../../lib/gcc/pic32c/8.3.1/arm/v5te/nofp/crtbegin.o
